ARM Linker, RVCT2.2 [Build 616]

================================================================================

Image Symbol Table

    Local Symbols

    Symbol Name                              Value     Ov Type        Size  Object(Section)

    [Anonymous Symbol]                       0x00000000   Number         0  euser{000a0000}-593.o ABSOLUTE
    [Anonymous Symbol]                       0x00000000   Number         0  euser{000a0000}-1253.o ABSOLUTE
    [Anonymous Symbol]                       0x00000000   Number         0  FeatMgr{000a0000}-3.o ABSOLUTE
    [Anonymous Symbol]                       0x00000000   Number         0  euser{000a0000}-645.o ABSOLUTE
    [Anonymous Symbol]                       0x00000000   Number         0  euser{000a0000}-1469.o ABSOLUTE
    [Anonymous Symbol]                       0x00000000   Number         0  vpnapi{000a0000}-10.o ABSOLUTE
    [Anonymous Symbol]                       0x00000000   Number         0  euser{000a0000}-649.o ABSOLUTE
    [Anonymous Symbol]                       0x00000000   Number         0  euser{000a0000}-1553.o ABSOLUTE
    [Anonymous Symbol]                       0x00000000   Number         0  vpnapi{000a0000}-11.o ABSOLUTE
    [Anonymous Symbol]                       0x00000000   Number         0  euser{000a0000}-650.o ABSOLUTE
    [Anonymous Symbol]                       0x00000000   Number         0  euser{000a0000}-1718.o ABSOLUTE
    [Anonymous Symbol]                       0x00000000   Number         0  vpnapi{000a0000}-12.o ABSOLUTE
    [Anonymous Symbol]                       0x00000000   Number         0  euser{000a0000}-651.o ABSOLUTE
    [Anonymous Symbol]                       0x00000000   Number         0  euser{000a0000}-1719.o ABSOLUTE
    [Anonymous Symbol]                       0x00000000   Number         0  vpnapi{000a0000}-7.o ABSOLUTE
    [Anonymous Symbol]                       0x00000000   Number         0  euser{000a0000}-654.o ABSOLUTE
    [Anonymous Symbol]                       0x00000000   Number         0  euser{000a0000}-1733.o ABSOLUTE
    [Anonymous Symbol]                       0x00000000   Number         0  vpnapi{000a0000}-8.o ABSOLUTE
    [Anonymous Symbol]                       0x00000000   Number         0  euser{000a0000}-669.o ABSOLUTE
    [Anonymous Symbol]                       0x00000000   Number         0  euser{000a0000}-1803.o ABSOLUTE
    [Anonymous Symbol]                       0x00000000   Number         0  vpnapi{000a0000}-9.o ABSOLUTE
    [Anonymous Symbol]                       0x00000000   Number         0  euser{000a0000}-758.o ABSOLUTE
    [Anonymous Symbol]                       0x00000000   Number         0  euser{000a0000}-1806.o ABSOLUTE
    [Anonymous Symbol]                       0x00000000   Number         0  centralrepository{000a0000}-14.o ABSOLUTE
    [Anonymous Symbol]                       0x00000000   Number         0  euser{000a0000}-767.o ABSOLUTE
    [Anonymous Symbol]                       0x00000000   Number         0  euser{000a0000}-1815.o ABSOLUTE
    [Anonymous Symbol]                       0x00000000   Number         0  centralrepository{000a0000}-9.o ABSOLUTE
    [Anonymous Symbol]                       0x00000000   Number         0  euser{000a0000}-782.o ABSOLUTE
    [Anonymous Symbol]                       0x00000000   Number         0  euser{000a0000}-1817.o ABSOLUTE
    [Anonymous Symbol]                       0x00000000   Number         0  WEPSecuritySettingsUI{000a0000}-1.o ABSOLUTE
    [Anonymous Symbol]                       0x00000000   Number         0  euser{000a0000}-80.o ABSOLUTE
    [Anonymous Symbol]                       0x00000000   Number         0  euser{000a0000}-1818.o ABSOLUTE
    [Anonymous Symbol]                       0x00000000   Number         0  WEPSecuritySettingsUI{000a0000}-12.o ABSOLUTE
    [Anonymous Symbol]                       0x00000000   Number         0  euser{000a0000}-81.o ABSOLUTE
    [Anonymous Symbol]                       0x00000000   Number         0  euser{000a0000}-1821.o ABSOLUTE
    [Anonymous Symbol]                       0x00000000   Number         0  WEPSecuritySettingsUI{000a0000}-3.o ABSOLUTE
    [Anonymous Symbol]                       0x00000000   Number         0  euser{000a0000}-891.o ABSOLUTE
    [Anonymous Symbol]                       0x00000000   Number         0  euser{000a0000}-1822.o ABSOLUTE
    [Anonymous Symbol]                       0x00000000   Number         0  WPASecuritySettingsUI{000a0000}-1.o ABSOLUTE
    [Anonymous Symbol]                       0x00000000   Number         0  euser{000a0000}-893.o ABSOLUTE
    [Anonymous Symbol]                       0x00000000   Number         0  euser{000a0000}-1824.o ABSOLUTE
    [Anonymous Symbol]                       0x00000000   Number         0  WPASecuritySettingsUI{000a0000}-12.o ABSOLUTE
    [Anonymous Symbol]                       0x00000000   Number         0  euser{000a0000}-894.o ABSOLUTE
    [Anonymous Symbol]                       0x00000000   Number         0  euser{000a0000}-202.o ABSOLUTE
    [Anonymous Symbol]                       0x00000000   Number         0  WPASecuritySettingsUI{000a0000}-13.o ABSOLUTE
    [Anonymous Symbol]                       0x00000000   Number         0  euser{000a0000}-953.o ABSOLUTE
    [Anonymous Symbol]                       0x00000000   Number         0  euser{000a0000}-203.o ABSOLUTE
    [Anonymous Symbol]                       0x00000000   Number         0  WPASecuritySettingsUI{000a0000}-3.o ABSOLUTE
    [Anonymous Symbol]                       0x00000000   Number         0  euser{000a0000}-959.o ABSOLUTE
    [Anonymous Symbol]                       0x00000000   Number         0  euser{000a0000}-204.o ABSOLUTE
    [Anonymous Symbol]                       0x00000000   Number         0  drtaeabi{000a0000}-135.o ABSOLUTE
    [Anonymous Symbol]                       0x00000000   Number         0  euser{000a0000}-966.o ABSOLUTE
    [Anonymous Symbol]                       0x00000000   Number         0  euser{000a0000}-205.o ABSOLUTE
    [Anonymous Symbol]                       0x00000000   Number         0  drtaeabi{000a0000}-144.o ABSOLUTE
    [Anonymous Symbol]                       0x00000000   Number         0  euser{000a0000}-968.o ABSOLUTE
    [Anonymous Symbol]                       0x00000000   Number         0  euser{000a0000}-2060.o ABSOLUTE
    [Anonymous Symbol]                       0x00000000   Number         0  drtaeabi{000a0000}-158.o ABSOLUTE
    [Anonymous Symbol]                       0x00000000   Number         0  euser{000a0000}-973.o ABSOLUTE
    [Anonymous Symbol]                       0x00000000   Number         0  euser{000a0000}-2061.o ABSOLUTE
    [Anonymous Symbol]                       0x00000000   Number         0  drtaeabi{000a0000}-159.o ABSOLUTE
    [Anonymous Symbol]                       0x00000000   Number         0  euser{000a0000}-988.o ABSOLUTE
    [Anonymous Symbol]                       0x00000000   Number         0  euser{000a0000}-207.o ABSOLUTE
    [Anonymous Symbol]                       0x00000000   Number         0  drtaeabi{000a0000}-180.o ABSOLUTE
    [Anonymous Symbol]                       0x00000000   Number         0  efsrv{000a0000}-68.o ABSOLUTE
    [Anonymous Symbol]                       0x00000000   Number         0  euser{000a0000}-208.o ABSOLUTE
    [Anonymous Symbol]                       0x00000000   Number         0  drtaeabi{000a0000}-183.o ABSOLUTE
    [Anonymous Symbol]                       0x00000000   Number         0  bafl{000a0000}-276.o ABSOLUTE
    [Anonymous Symbol]                       0x00000000   Number         0  euser{000a0000}-2082.o ABSOLUTE
    [Anonymous Symbol]                       0x00000000   Number         0  drtaeabi{000a0000}-184.o ABSOLUTE
    [Anonymous Symbol]                       0x00000000   Number         0  bafl{000a0000}-324.o ABSOLUTE
    [Anonymous Symbol]                       0x00000000   Number         0  euser{000a0000}-209.o ABSOLUTE
    [Anonymous Symbol]                       0x00000000   Number         0  scppnwdl{000a0000}-3.o ABSOLUTE
    [Anonymous Symbol]                       0x00000000   Number         0  bafl{000a0000}-66.o ABSOLUTE
    [Anonymous Symbol]                       0x00000000   Number         0  euser{000a0000}-2105.o ABSOLUTE
    [Anonymous Symbol]                       0x00000000   Number         0  drtrvct2_2{000a0000}-28.o ABSOLUTE
    [Anonymous Symbol]                       0x00000000   Number         0  bafl{000a0000}-68.o ABSOLUTE
    [Anonymous Symbol]                       0x00000000   Number         0  euser{000a0000}-2106.o ABSOLUTE
    [Anonymous Symbol]                       0x00000000   Number         0  FeatMgr{000a0000}-1.o ABSOLUTE
    [Anonymous Symbol]                       0x00000000   Number         0  bafl{000a0000}-69.o ABSOLUTE
    [Anonymous Symbol]                       0x00000000   Number         0  euser{000a0000}-2107.o ABSOLUTE
    [Anonymous Symbol]                       0x00000000   Number         0  FeatMgr{000a0000}-2.o ABSOLUTE
    [Anonymous Symbol]                       0x00000000   Number         0  bafl{000a0000}-71.o ABSOLUTE
    [Anonymous Symbol]                       0x00000000   Number         0  euser{000a0000}-2123.o ABSOLUTE
    [Anonymous Symbol]                       0x00000000   Number         0  commdb{000a0000}-56.o ABSOLUTE
    [Anonymous Symbol]                       0x00000000   Number         0  insock{000a0000}-13.o ABSOLUTE
    [Anonymous Symbol]                       0x00000000   Number         0  euser{000a0000}-2125.o ABSOLUTE
    [Anonymous Symbol]                       0x00000000   Number         0  commdb{000a0000}-6.o ABSOLUTE
    [Anonymous Symbol]                       0x00000000   Number         0  insock{000a0000}-3.o ABSOLUTE
    [Anonymous Symbol]                       0x00000000   Number         0  euser{000a0000}-2128.o ABSOLUTE
    [Anonymous Symbol]                       0x00000000   Number         0  commdb{000a0000}-61.o ABSOLUTE
    [Anonymous Symbol]                       0x00000000   Number         0  insock{000a0000}-9.o ABSOLUTE
    [Anonymous Symbol]                       0x00000000   Number         0  euser{000a0000}-217.o ABSOLUTE
    [Anonymous Symbol]                       0x00000000   Number         0  commdb{000a0000}-69.o ABSOLUTE
    [Anonymous Symbol]                       0x00000000   Number         0  esock{000a0000}-41.o ABSOLUTE
    [Anonymous Symbol]                       0x00000000   Number         0  euser{000a0000}-218.o ABSOLUTE
    [Anonymous Symbol]                       0x00000000   Number         0  commdb{000a0000}-71.o ABSOLUTE
    [Anonymous Symbol]                       0x00000000   Number         0  esock{000a0000}-46.o ABSOLUTE
    [Anonymous Symbol]                       0x00000000   Number         0  euser{000a0000}-244.o ABSOLUTE
    [Anonymous Symbol]                       0x00000000   Number         0  commdb{000a0000}-73.o ABSOLUTE
    [Anonymous Symbol]                       0x00000000   Number         0  esock{000a0000}-59.o ABSOLUTE
    [Anonymous Symbol]                       0x00000000   Number         0  euser{000a0000}-245.o ABSOLUTE
    [Anonymous Symbol]                       0x00000000   Number         0  commdb{000a0000}-75.o ABSOLUTE
    [Anonymous Symbol]                       0x00000000   Number         0  esock{000a0000}-6.o ABSOLUTE
    [Anonymous Symbol]                       0x00000000   Number         0  euser{000a0000}-247.o ABSOLUTE
    [Anonymous Symbol]                       0x00000000   Number         0  commdb{000a0000}-76.o ABSOLUTE
    [Anonymous Symbol]                       0x00000000   Number         0  esock{000a0000}-62.o ABSOLUTE
    [Anonymous Symbol]                       0x00000000   Number         0  euser{000a0000}-250.o ABSOLUTE
    [Anonymous Symbol]                       0x00000000   Number         0  commdb{000a0000}-79.o ABSOLUTE
    [Anonymous Symbol]                       0x00000000   Number         0  esock{000a0000}-81.o ABSOLUTE
    [Anonymous Symbol]                       0x00000000   Number         0  euser{000a0000}-254.o ABSOLUTE
    [Anonymous Symbol]                       0x00000000   Number         0  commdb{000a0000}-87.o ABSOLUTE
    [Anonymous Symbol]                       0x00000000   Number         0  esock{000a0000}-82.o ABSOLUTE
    [Anonymous Symbol]                       0x00000000   Number         0  euser{000a0000}-257.o ABSOLUTE
    [Anonymous Symbol]                       0x00000000   Number         0  commdb{000a0000}-94.o ABSOLUTE
    [Anonymous Symbol]                       0x00000000   Number         0  esock{000a0000}-9.o ABSOLUTE
    [Anonymous Symbol]                       0x00000000   Number         0  euser{000a0000}-264.o ABSOLUTE
    [Anonymous Symbol]                       0x00000000   Number         0  commdb{000a0000}-99.o ABSOLUTE
    [Anonymous Symbol]                       0x00000000   Number         0  commdb{000a0000}-50.o ABSOLUTE
    [Anonymous Symbol]                       0x00000000   Number         0  euser{000a0000}-424.o ABSOLUTE
    [Anonymous Symbol]                       0x00000000   Number         0  euser{000a0000}-1010.o ABSOLUTE
    [Anonymous Symbol]                       0x00000000   Number         0  commdb{000a0000}-52.o ABSOLUTE
    [Anonymous Symbol]                       0x00000000   Number         0  commdb{000a0000}-22.o ABSOLUTE
    [Anonymous Symbol]                       0x00000000   Number         0  euser{000a0000}-1016.o ABSOLUTE
    [Anonymous Symbol]                       0x00000000   Number         0  commdb{000a0000}-133.o ABSOLUTE
    [Anonymous Symbol]                       0x00000000   Number         0  commdb{000a0000}-31.o ABSOLUTE
    [Anonymous Symbol]                       0x00000000   Number         0  euser{000a0000}-1088.o ABSOLUTE
    [Anonymous Symbol]                       0x00000000   Number         0  commdb{000a0000}-134.o ABSOLUTE
    [Anonymous Symbol]                       0x00000000   Number         0  commdb{000a0000}-34.o ABSOLUTE
    [Anonymous Symbol]                       0x00000000   Number         0  euser{000a0000}-1089.o ABSOLUTE
    [Anonymous Symbol]                       0x00000000   Number         0  commdb{000a0000}-135.o ABSOLUTE
    [Anonymous Symbol]                       0x00000000   Number         0  commdb{000a0000}-36.o ABSOLUTE
    [Anonymous Symbol]                       0x00000000   Number         0  euser{000a0000}-1090.o ABSOLUTE
    [Anonymous Symbol]                       0x00000000   Number         0  commdb{000a0000}-136.o ABSOLUTE
    [Anonymous Symbol]                       0x00000000   Number         0  commdb{000a0000}-37.o ABSOLUTE
    [Anonymous Symbol]                       0x00000000   Number         0  euser{000a0000}-1091.o ABSOLUTE
    [Anonymous Symbol]                       0x00000000   Number         0  commdb{000a0000}-137.o ABSOLUTE
    [Anonymous Symbol]                       0x00000000   Number         0  commdb{000a0000}-38.o ABSOLUTE
    [Anonymous Symbol]                       0x00000000   Number         0  euser{000a0000}-1094.o ABSOLUTE
    [Anonymous Symbol]                       0x00000000   Number         0  commdb{000a0000}-140.o ABSOLUTE
    [Anonymous Symbol]                       0x00000000   Number         0  commdb{000a0000}-4.o ABSOLUTE
    [Anonymous Symbol]                       0x00000000   Number         0  euser{000a0000}-1116.o ABSOLUTE
    [Anonymous Symbol]                       0x00000000   Number         0  commdb{000a0000}-142.o ABSOLUTE
    [Anonymous Symbol]                       0x00000000   Number         0  commdb{000a0000}-40.o ABSOLUTE
    [Anonymous Symbol]                       0x00000000   Number         0  euser{000a0000}-1118.o ABSOLUTE
    [Anonymous Symbol]                       0x00000000   Number         0  commdb{000a0000}-144.o ABSOLUTE
    [Anonymous Symbol]                       0x00000000   Number         0  commdb{000a0000}-42.o ABSOLUTE
    [Anonymous Symbol]                       0x00000000   Number         0  euser{000a0000}-1119.o ABSOLUTE
    [Anonymous Symbol]                       0x00000000   Number         0  commdb{000a0000}-153.o ABSOLUTE
    [Anonymous Symbol]                       0x00000000   Number         0  commdb{000a0000}-44.o ABSOLUTE
    [Anonymous Symbol]                       0x00000000   Number         0  euser{000a0000}-1126.o ABSOLUTE
    [Anonymous Symbol]                       0x00000000   Number         0  commdb{000a0000}-155.o ABSOLUTE
    [Anonymous Symbol]                       0x00000000   Number         0  commdb{000a0000}-45.o ABSOLUTE
    [Anonymous Symbol]                       0x00000000   Number         0  euser{000a0000}-1169.o ABSOLUTE
    [Anonymous Symbol]                       0x00000000   Number         0  commdb{000a0000}-18.o ABSOLUTE
    [Anonymous Symbol]                       0x00000000   Number         0  commdb{000a0000}-5.o ABSOLUTE
    [Anonymous Symbol]                       0x00000000   Number         0  euser{000a0000}-1170.o ABSOLUTE
    [Anonymous Symbol]                       0x00000000   Number         0  commdb{000a0000}-19.o ABSOLUTE
    [Anonymous Symbol]                       0x00000000   Number         0  commdb{000a0000}-13.o ABSOLUTE
    [Anonymous Symbol]                       0x00000000   Number         0  euser{000a0000}-1171.o ABSOLUTE
    [Anonymous Symbol]                       0x00000000   Number         0  commdb{000a0000}-21.o ABSOLUTE
    [Anonymous Symbol]                       0x00000000   Number         0  commdb{000a0000}-132.o ABSOLUTE
    [Anonymous Symbol]                       0x00000000   Number         0  euser{000a0000}-120.o ABSOLUTE
    [Anonymous Symbol]                       0x00000000   Number         0  commdb{000a0000}-109.o ABSOLUTE
    [Anonymous Symbol]                       0x00000000   Number         0  commdb{000a0000}-123.o ABSOLUTE
    [Anonymous Symbol]                       0x00000000   Number         0  commdb{000a0000}-116.o ABSOLUTE
    [Anonymous Symbol]                       0x00000000   Number         0  commdb{000a0000}-102.o ABSOLUTE
    [Anonymous Symbol]                       0x00000000   Number         0  commdb{000a0000}-107.o ABSOLUTE
    [Anonymous Symbol]                       0x00000000   Number         0  commdb{000a0000}-105.o ABSOLUTE
    M:/epoc32/build/bafl/group/bafl_dll/armv5/udeb\VtblExports.s 0x00000000   Number         0  VtblExports.o ABSOLUTE
    M:/epoc32/build/centralrepository/group/centralrepository_dll/armv5/udeb\VtblExports.s 0x00000000   Number         0  VtblExports.o ABSOLUTE
    M:/epoc32/build/commdb/group/commdb_dll/armv5/udeb\VtblExports.s 0x00000000   Number         0  VtblExports.o ABSOLUTE
    M:/epoc32/build/insock/group/insock_dll/armv5/udeb\VtblExports.s 0x00000000   Number         0  VtblExports.o ABSOLUTE
    M:/epoc32/build/version2/group/esock_dll/armv5/udeb\VtblExports.s 0x00000000   Number         0  VtblExports.o ABSOLUTE
    \EPOC32\BUILD\s60\mw\networking\group\APENGINE\ARMV5\urel\APEngine{000a0000}.s 0x00000000   Number         0  APEngine{000a0000}.exp ABSOLUTE
    \EPOC32\BUILD\s60\mw\networking\group\WEPSECURITYSETTINGSUI\ARMV5\VtblExports.s 0x00000000   Number         0  VtblExports.o ABSOLUTE
    \EPOC32\BUILD\s60\mw\networking\group\WPASECURITYSETTINGSUI\ARMV5\VtblExports.s 0x00000000   Number         0  VtblExports.o ABSOLUTE
    \EPOC32\BUILD\s60\osext\systemswextensions\group\FEATMGR\ARMV5\VtblExports.s 0x00000000   Number         0  VtblExports.o ABSOLUTE
    \EPOC32\BUILD\src\cedar\generic\base\e32\compsupp\DRTAEABI\ARMV5\VtblExports.s 0x00000000   Number         0  VtblExports.o ABSOLUTE
    \EPOC32\BUILD\src\cedar\generic\base\e32\euser\EDLL\ARMV5\urel\uc_dll_.cpp 0x00000000   Number         0  uc_dll_.o ABSOLUTE
    \EPOC32\BUILD\src\cedar\generic\base\e32\euser\EUSER\ARMV5\VtblExports.s 0x00000000   Number         0  VtblExports.o ABSOLUTE
    \EPOC32\BUILD\src\cedar\generic\base\f32\group\EFSRV\ARMV5\VtblExports.s 0x00000000   Number         0  VtblExports.o ABSOLUTE
    \EPOC32\BUILD\src\common\generic\networking\ipsec\vpnapi\group\VPNAPI\ARMV5\VtblExports.s 0x00000000   Number         0  VtblExports.o ABSOLUTE
    \\EPOC32\\BUILD\\src\\cedar\\generic\\base\\e32\\euser\\EDLL\\ARMV5\\urel\\uc_dll_.cpp 0x00000000   Number         0  uc_dll_.o ABSOLUTE
    \\src\\cedar\\generic\\base\\e32\\compsupp\\RVCT2_2\\ucppinit_aeabi.cpp 0x00000000   Number         0  ucppinit_aeabi.o ABSOLUTE
    \s60\mw\networking\networkingutilities\apengine\src\activeapdb.cpp 0x00000000   Number         0  APEngine.in ABSOLUTE
    \s60\mw\networking\networkingutilities\apengine\src\activeapdbnotifier.cpp 0x00000000   Number         0  APEngine.in ABSOLUTE
    \s60\mw\networking\networkingutilities\apengine\src\apaccesspointitem.cpp 0x00000000   Number         0  APEngine.in ABSOLUTE
    \s60\mw\networking\networkingutilities\apengine\src\apdatahandler.cpp 0x00000000   Number         0  APEngine.in ABSOLUTE
    \s60\mw\networking\networkingutilities\apengine\src\apenginecommons.cpp 0x00000000   Number         0  APEngine.in ABSOLUTE
    \s60\mw\networking\networkingutilities\apengine\src\apenginelogger.cpp 0x00000000   Number         0  APEngine.in ABSOLUTE
    \s60\mw\networking\networkingutilities\apengine\src\aplistitem.cpp 0x00000000   Number         0  APEngine.in ABSOLUTE
    \s60\mw\networking\networkingutilities\apengine\src\aplistitemkey.cpp 0x00000000   Number         0  APEngine.in ABSOLUTE
    \s60\mw\networking\networkingutilities\apengine\src\aplistitemlist.cpp 0x00000000   Number         0  APEngine.in ABSOLUTE
    \s60\mw\networking\networkingutilities\apengine\src\apnetworkitem.cpp 0x00000000   Number         0  APEngine.in ABSOLUTE
    \s60\mw\networking\networkingutilities\apengine\src\apnetworkitemlist.cpp 0x00000000   Number         0  APEngine.in ABSOLUTE
    \s60\mw\networking\networkingutilities\apengine\src\apnetworks.cpp 0x00000000   Number         0  APEngine.in ABSOLUTE
    \s60\mw\networking\networkingutilities\apengine\src\approthandler.cpp 0x00000000   Number         0  APEngine.in ABSOLUTE
    \s60\mw\networking\networkingutilities\apengine\src\apselect.cpp 0x00000000   Number         0  APEngine.in ABSOLUTE
    \s60\mw\networking\networkingutilities\apengine\src\aputils.cpp 0x00000000   Number         0  APEngine.in ABSOLUTE
    \s60\mw\networking\networkingutilities\apengine\src\vpnapengine.cpp 0x00000000   Number         0  APEngine.in ABSOLUTE
    \s60\mw\networking\networkingutilities\apengine\src\vpnapitem.cpp 0x00000000   Number         0  APEngine.in ABSOLUTE
    \src\cedar\generic\base\e32\compsupp\RVCT2_2\ucppinit_aeabi.cpp 0x00000000   Number         0  ucppinit_aeabi.o ABSOLUTE
    \src\cedar\generic\base\e32\euser\epoc\arm\uc_dll.cpp 0x00000000   Number         0  uc_dll.o ABSOLUTE
    .emb_text                                0x00008000   Section       40  uc_dll_.o(.emb_text)
    .emb_text                                0x00008028   Section       72  ucppinit_aeabi.o(.emb_text)
    skip                                     0x0000803c   ARM Code       0  ucppinit_aeabi.o(.emb_text)
    loop                                     0x0000804c   ARM Code       0  ucppinit_aeabi.o(.emb_text)
    fpinit                                   0x00008064   Data           0  ucppinit_aeabi.o(.emb_text)
    base                                     0x00008068   Data           0  ucppinit_aeabi.o(.emb_text)
    limit                                    0x0000806c   Data           0  ucppinit_aeabi.o(.emb_text)
    .text                                    0x00008070   Section      556  APEngine.in(.text)
    .text                                    0x0000829c   Section     7396  APEngine.in(.text)
    |L1.1172|                                0x00008730   Data           0  APEngine.in(.text)
    |L1.1204|                                0x00008750   Data           0  APEngine.in(.text)
    |L1.1224|                                0x00008764   Data           0  APEngine.in(.text)
    |L1.1244|                                0x00008778   Data           0  APEngine.in(.text)
    |L1.1288|                                0x000087a4   Data           0  APEngine.in(.text)
    |L1.1300|                                0x000087b0   Data           0  APEngine.in(.text)
    |L1.1332|                                0x000087d0   Data           0  APEngine.in(.text)
    |L1.2324|                                0x00008bb0   Data           0  APEngine.in(.text)
    |L1.2336|                                0x00008bbc   Data           0  APEngine.in(.text)
    |L1.2364|                                0x00008bd8   Data           0  APEngine.in(.text)
    |L1.3320|                                0x00008f94   Data           0  APEngine.in(.text)
    |L1.3376|                                0x00008fcc   Data           0  APEngine.in(.text)
    |L1.3380|                                0x00008fd0   Data           0  APEngine.in(.text)
    |L1.3408|                                0x00008fec   Data           0  APEngine.in(.text)
    |L1.3436|                                0x00009008   Data           0  APEngine.in(.text)
    |L1.3464|                                0x00009024   Data           0  APEngine.in(.text)
    |L1.3524|                                0x00009060   Data           0  APEngine.in(.text)
    |L1.3548|                                0x00009078   Data           0  APEngine.in(.text)
    .text                                    0x00009f80   Section    22312  APEngine.in(.text)
    |L1.548|                                 0x0000a1a4   Data           0  APEngine.in(.text)
    |L1.584|                                 0x0000a1c8   Data           0  APEngine.in(.text)
    |L1.608|                                 0x0000a1e0   Data           0  APEngine.in(.text)
    |L1.640|                                 0x0000a200   Data           0  APEngine.in(.text)
    |L1.656|                                 0x0000a210   Data           0  APEngine.in(.text)
    |L1.668|                                 0x0000a21c   Data           0  APEngine.in(.text)
    |L1.692|                                 0x0000a234   Data           0  APEngine.in(.text)
    |L1.724|                                 0x0000a254   Data           0  APEngine.in(.text)
    |L1.748|                                 0x0000a26c   Data           0  APEngine.in(.text)
    |L1.792|                                 0x0000a298   Data           0  APEngine.in(.text)
    |L1.824|                                 0x0000a2b8   Data           0  APEngine.in(.text)
    |L1.1316|                                0x0000a4a4   Data           0  APEngine.in(.text)
    |L1.1336|                                0x0000a4b8   Data           0  APEngine.in(.text)
    |L1.1344|                                0x0000a4c0   Data           0  APEngine.in(.text)
    |L1.1384|                                0x0000a4e8   Data           0  APEngine.in(.text)
    |L1.1420|                                0x0000a50c   Data           0  APEngine.in(.text)
    |L1.1448|                                0x0000a528   Data           0  APEngine.in(.text)
    |L1.1480|                                0x0000a548   Data           0  APEngine.in(.text)
    |L1.1504|                                0x0000a560   Data           0  APEngine.in(.text)
    |L1.1524|                                0x0000a574   Data           0  APEngine.in(.text)
    |L1.1544|                                0x0000a588   Data           0  APEngine.in(.text)
    |L1.1580|                                0x0000a5ac   Data           0  APEngine.in(.text)
    |L1.1596|                                0x0000a5bc   Data           0  APEngine.in(.text)
    |L1.1636|                                0x0000a5e4   Data           0  APEngine.in(.text)
    |L1.1664|                                0x0000a600   Data           0  APEngine.in(.text)
    |L1.2164|                                0x0000a7f4   Data           0  APEngine.in(.text)
    |L1.2188|                                0x0000a80c   Data           0  APEngine.in(.text)
    |L1.2208|                                0x0000a820   Data           0  APEngine.in(.text)
    |L1.2244|                                0x0000a844   Data           0  APEngine.in(.text)
    |L1.2276|                                0x0000a864   Data           0  APEngine.in(.text)
    |L1.2284|                                0x0000a86c   Data           0  APEngine.in(.text)
    |L1.2308|                                0x0000a884   Data           0  APEngine.in(.text)
    |L1.2328|                                0x0000a898   Data           0  APEngine.in(.text)
    |L1.2340|                                0x0000a8a4   Data           0  APEngine.in(.text)
    |L1.2368|                                0x0000a8c0   Data           0  APEngine.in(.text)
    |L1.2396|                                0x0000a8dc   Data           0  APEngine.in(.text)
    |L1.2420|                                0x0000a8f4   Data           0  APEngine.in(.text)
    |L1.2432|                                0x0000a900   Data           0  APEngine.in(.text)
    |L1.2440|                                0x0000a908   Data           0  APEngine.in(.text)
    |L1.3464|                                0x0000ad08   Data           0  APEngine.in(.text)
    |L1.3544|                                0x0000ad58   Data           0  APEngine.in(.text)
    |L1.3572|                                0x0000ad74   Data           0  APEngine.in(.text)
    |L1.3600|                                0x0000ad90   Data           0  APEngine.in(.text)
    |L1.3632|                                0x0000adb0   Data           0  APEngine.in(.text)
    |L1.3664|                                0x0000add0   Data           0  APEngine.in(.text)
    |L1.3688|                                0x0000ade8   Data           0  APEngine.in(.text)
    |L1.3720|                                0x0000ae08   Data           0  APEngine.in(.text)
    |L1.3740|                                0x0000ae1c   Data           0  APEngine.in(.text)
    |L1.3760|                                0x0000ae30   Data           0  APEngine.in(.text)
    |L1.3784|                                0x0000ae48   Data           0  APEngine.in(.text)
    |L1.3808|                                0x0000ae60   Data           0  APEngine.in(.text)
    |L1.3840|                                0x0000ae80   Data           0  APEngine.in(.text)
    |L1.3864|                                0x0000ae98   Data           0  APEngine.in(.text)
    |L1.3900|                                0x0000aebc   Data           0  APEngine.in(.text)
    |L1.3932|                                0x0000aedc   Data           0  APEngine.in(.text)
    |L1.3964|                                0x0000aefc   Data           0  APEngine.in(.text)
    |L1.4684|                                0x0000b1cc   Data           0  APEngine.in(.text)
    |L1.4724|                                0x0000b1f4   Data           0  APEngine.in(.text)
    |L1.4764|                                0x0000b21c   Data           0  APEngine.in(.text)
    |L1.4808|                                0x0000b248   Data           0  APEngine.in(.text)
    |L1.4836|                                0x0000b264   Data           0  APEngine.in(.text)
    |L1.4848|                                0x0000b270   Data           0  APEngine.in(.text)
    |L1.4860|                                0x0000b27c   Data           0  APEngine.in(.text)
    |L1.4884|                                0x0000b294   Data           0  APEngine.in(.text)
    |L1.4916|                                0x0000b2b4   Data           0  APEngine.in(.text)
    |L1.4936|                                0x0000b2c8   Data           0  APEngine.in(.text)
    |L1.4964|                                0x0000b2e4   Data           0  APEngine.in(.text)
    |L1.4992|                                0x0000b300   Data           0  APEngine.in(.text)
    |L1.5020|                                0x0000b31c   Data           0  APEngine.in(.text)
    |L1.5032|                                0x0000b328   Data           0  APEngine.in(.text)
    |L1.5072|                                0x0000b350   Data           0  APEngine.in(.text)
    |L1.6136|                                0x0000b778   Data           0  APEngine.in(.text)
    |L1.6152|                                0x0000b788   Data           0  APEngine.in(.text)
    |L1.6180|                                0x0000b7a4   Data           0  APEngine.in(.text)
    |L1.6196|                                0x0000b7b4   Data           0  APEngine.in(.text)
    |L1.6220|                                0x0000b7cc   Data           0  APEngine.in(.text)
    |L1.6252|                                0x0000b7ec   Data           0  APEngine.in(.text)
    |L1.6284|                                0x0000b80c   Data           0  APEngine.in(.text)
    |L1.6312|                                0x0000b828   Data           0  APEngine.in(.text)
    |L1.6340|                                0x0000b844   Data           0  APEngine.in(.text)
    |L1.6364|                                0x0000b85c   Data           0  APEngine.in(.text)
    |L1.6388|                                0x0000b874   Data           0  APEngine.in(.text)
    |L1.6420|                                0x0000b894   Data           0  APEngine.in(.text)
    |L1.6452|                                0x0000b8b4   Data           0  APEngine.in(.text)
    |L1.6480|                                0x0000b8d0   Data           0  APEngine.in(.text)
    |L1.6508|                                0x0000b8ec   Data           0  APEngine.in(.text)
    |L1.6536|                                0x0000b908   Data           0  APEngine.in(.text)
    |L1.6564|                                0x0000b924   Data           0  APEngine.in(.text)
    |L1.6600|                                0x0000b948   Data           0  APEngine.in(.text)
    |L1.6636|                                0x0000b96c   Data           0  APEngine.in(.text)
    |L1.6668|                                0x0000b98c   Data           0  APEngine.in(.text)
    |L1.6712|                                0x0000b9b8   Data           0  APEngine.in(.text)
    |L1.6724|                                0x0000b9c4   Data           0  APEngine.in(.text)
    |L1.6736|                                0x0000b9d0   Data           0  APEngine.in(.text)
    |L1.7836|                                0x0000be1c   Data           0  APEngine.in(.text)
    |L1.7840|                                0x0000be20   Data           0  APEngine.in(.text)
    |L1.7852|                                0x0000be2c   Data           0  APEngine.in(.text)
    |L1.7888|                                0x0000be50   Data           0  APEngine.in(.text)
    |L1.7924|                                0x0000be74   Data           0  APEngine.in(.text)
    |L1.7932|                                0x0000be7c   Data           0  APEngine.in(.text)
    |L1.7948|                                0x0000be8c   Data           0  APEngine.in(.text)
    |L1.7972|                                0x0000bea4   Data           0  APEngine.in(.text)
    |L1.8000|                                0x0000bec0   Data           0  APEngine.in(.text)
    |L1.8020|                                0x0000bed4   Data           0  APEngine.in(.text)
    |L1.8052|                                0x0000bef4   Data           0  APEngine.in(.text)
    |L1.8088|                                0x0000bf18   Data           0  APEngine.in(.text)
    |L1.8124|                                0x0000bf3c   Data           0  APEngine.in(.text)
    |L1.8152|                                0x0000bf58   Data           0  APEngine.in(.text)
    |L1.8172|                                0x0000bf6c   Data           0  APEngine.in(.text)
    |L1.8204|                                0x0000bf8c   Data           0  APEngine.in(.text)
    |L1.8240|                                0x0000bfb0   Data           0  APEngine.in(.text)
    |L1.8280|                                0x0000bfd8   Data           0  APEngine.in(.text)
    |L1.9404|                                0x0000c43c   Data           0  APEngine.in(.text)
    |L1.9480|                                0x0000c488   Data           0  APEngine.in(.text)
    |L1.9516|                                0x0000c4ac   Data           0  APEngine.in(.text)
    |L1.9536|                                0x0000c4c0   Data           0  APEngine.in(.text)
    |L1.9564|                                0x0000c4dc   Data           0  APEngine.in(.text)
    |L1.10104|                               0x0000c6f8   Data           0  APEngine.in(.text)
    |L1.10148|                               0x0000c724   Data           0  APEngine.in(.text)
    |L1.10180|                               0x0000c744   Data           0  APEngine.in(.text)
    |L1.10200|                               0x0000c758   Data           0  APEngine.in(.text)
    |L1.10232|                               0x0000c778   Data           0  APEngine.in(.text)
    |L1.10260|                               0x0000c794   Data           0  APEngine.in(.text)
    |L1.10292|                               0x0000c7b4   Data           0  APEngine.in(.text)
    |L1.10312|                               0x0000c7c8   Data           0  APEngine.in(.text)
    |L1.10332|                               0x0000c7dc   Data           0  APEngine.in(.text)
    |L1.10360|                               0x0000c7f8   Data           0  APEngine.in(.text)
    |L1.10392|                               0x0000c818   Data           0  APEngine.in(.text)
    |L1.10416|                               0x0000c830   Data           0  APEngine.in(.text)
    |L1.11932|                               0x0000ce1c   Data           0  APEngine.in(.text)
    |L1.11972|                               0x0000ce44   Data           0  APEngine.in(.text)
    |L1.11996|                               0x0000ce5c   Data           0  APEngine.in(.text)
    |L1.14260|                               0x0000d734   Data           0  APEngine.in(.text)
    |L1.14308|                               0x0000d764   Data           0  APEngine.in(.text)
    |L1.14332|                               0x0000d77c   Data           0  APEngine.in(.text)
    .text                                    0x0000f6a8   Section     5276  APEngine.in(.text)
    |L1.1060|                                0x0000facc   Data           0  APEngine.in(.text)
    |L1.1068|                                0x0000fad4   Data           0  APEngine.in(.text)
    |L1.1100|                                0x0000faf4   Data           0  APEngine.in(.text)
    |L1.1128|                                0x0000fb10   Data           0  APEngine.in(.text)
    |L1.1152|                                0x0000fb28   Data           0  APEngine.in(.text)
    |L1.1196|                                0x0000fb54   Data           0  APEngine.in(.text)
    |L1.1216|                                0x0000fb68   Data           0  APEngine.in(.text)
    |L1.1720|                                0x0000fd60   Data           0  APEngine.in(.text)
    |L1.1740|                                0x0000fd74   Data           0  APEngine.in(.text)
    |L1.1752|                                0x0000fd80   Data           0  APEngine.in(.text)
    |L1.1776|                                0x0000fd98   Data           0  APEngine.in(.text)
    |L1.1796|                                0x0000fdac   Data           0  APEngine.in(.text)
    |L1.1824|                                0x0000fdc8   Data           0  APEngine.in(.text)
    |L1.1852|                                0x0000fde4   Data           0  APEngine.in(.text)
    |L1.1996|                                0x0000fe74   Data           0  APEngine.in(.text)
    |L1.3112|                                0x000102d0   Data           0  APEngine.in(.text)
    |L1.3156|                                0x000102fc   Data           0  APEngine.in(.text)
    |L1.3160|                                0x00010300   Data           0  APEngine.in(.text)
    |L1.3172|                                0x0001030c   Data           0  APEngine.in(.text)
    .text                                    0x00010b44   Section    17224  APEngine.in(.text)
    |L1.1056|                                0x00010f64   Data           0  APEngine.in(.text)
    |L1.1084|                                0x00010f80   Data           0  APEngine.in(.text)
    |L1.1108|                                0x00010f98   Data           0  APEngine.in(.text)
    |L1.1128|                                0x00010fac   Data           0  APEngine.in(.text)
    |L1.1184|                                0x00010fe4   Data           0  APEngine.in(.text)
    |L1.1212|                                0x00011000   Data           0  APEngine.in(.text)
    |L1.1244|                                0x00011020   Data           0  APEngine.in(.text)
    .text                                    0x00014e8c   Section     1336  APEngine.in(.text)
    .text                                    0x000153c4   Section      384  APEngine.in(.text)
    .text                                    0x00015544   Section      184  APEngine.in(.text)
    .text                                    0x000155fc   Section      148  APEngine.in(.text)
    .text                                    0x00015690   Section     1312  APEngine.in(.text)
    .text                                    0x00015bb0   Section      240  APEngine.in(.text)
    .text                                    0x00015ca0   Section      216  APEngine.in(.text)
    .text                                    0x00015d78   Section      540  APEngine.in(.text)
    .text                                    0x00015f94   Section      148  APEngine.in(.text)
    .text                                    0x00016028   Section     1268  APEngine.in(.text)
    .text                                    0x0001651c   Section     5568  APEngine.in(.text)
    |L1.652|                                 0x000167a8   Data           0  APEngine.in(.text)
    |L1.676|                                 0x000167c0   Data           0  APEngine.in(.text)
    |L1.712|                                 0x000167e4   Data           0  APEngine.in(.text)
    |L1.728|                                 0x000167f4   Data           0  APEngine.in(.text)
    |L1.736|                                 0x000167fc   Data           0  APEngine.in(.text)
    |L1.788|                                 0x00016830   Data           0  APEngine.in(.text)
    |L1.800|                                 0x0001683c   Data           0  APEngine.in(.text)
    |L1.880|                                 0x0001688c   Data           0  APEngine.in(.text)
    |L1.1624|                                0x00016b74   Data           0  APEngine.in(.text)
    |L1.1732|                                0x00016be0   Data           0  APEngine.in(.text)
    |L1.1764|                                0x00016c00   Data           0  APEngine.in(.text)
    |L1.1772|                                0x00016c08   Data           0  APEngine.in(.text)
    |L1.1844|                                0x00016c50   Data           0  APEngine.in(.text)
    |L1.1872|                                0x00016c6c   Data           0  APEngine.in(.text)
    |L1.1904|                                0x00016c8c   Data           0  APEngine.in(.text)
    |L1.1960|                                0x00016cc4   Data           0  APEngine.in(.text)
    |L1.1980|                                0x00016cd8   Data           0  APEngine.in(.text)
    |L1.2640|                                0x00016f6c   Data           0  APEngine.in(.text)
    |L1.2688|                                0x00016f9c   Data           0  APEngine.in(.text)
    |L1.2856|                                0x00017044   Data           0  APEngine.in(.text)
    |L1.2872|                                0x00017054   Data           0  APEngine.in(.text)
    |L1.2880|                                0x0001705c   Data           0  APEngine.in(.text)
    |L1.2888|                                0x00017064   Data           0  APEngine.in(.text)
    .text                                    0x00017adc   Section       40  uc_dll.o(.text)
    .text.clean                              0x00017b04   Section       66  APEngine.in(.text.clean)
    .text.clean                              0x00017b46   Section       26  APEngine.in(.text.clean)
    .text.clean                              0x00017b60   Section       32  APEngine.in(.text.clean)
    .text.clean                              0x00017b80   Section       44  APEngine.in(.text.clean)
    .text.clean                              0x00017bac   Section       24  APEngine.in(.text.clean)
    .text.clean                              0x00017bc4   Section       18  APEngine.in(.text.clean)
    .text.clean                              0x00017bd6   Section       28  APEngine.in(.text.clean)
    .text.clean                              0x00017bf2   Section       10  APEngine.in(.text.clean)
    .text.clean                              0x00017bfc   Section       10  APEngine.in(.text.clean)
    .text.clean                              0x00017c06   Section       10  APEngine.in(.text.clean)
    .text.clean                              0x00017c10   Section       18  APEngine.in(.text.clean)
    ExportTable                              0x00017c24   Section      952  APEngine{000a0000}.exp(ExportTable)
    StubCode                                 0x00017fdc   Section        8  commdb{000a0000}-102.o(StubCode)
    theImportedSymbol                        0x00017fe0   Data           0  commdb{000a0000}-102.o(StubCode)
    StubCode                                 0x00017fe4   Section        8  commdb{000a0000}-105.o(StubCode)
    theImportedSymbol                        0x00017fe8   Data           0  commdb{000a0000}-105.o(StubCode)
    StubCode                                 0x00017fec   Section        8  commdb{000a0000}-107.o(StubCode)
    theImportedSymbol                        0x00017ff0   Data           0  commdb{000a0000}-107.o(StubCode)
    StubCode                                 0x00017ff4   Section        8  commdb{000a0000}-109.o(StubCode)
    theImportedSymbol                        0x00017ff8   Data           0  commdb{000a0000}-109.o(StubCode)
    StubCode                                 0x00017ffc   Section        8  commdb{000a0000}-116.o(StubCode)
    theImportedSymbol                        0x00018000   Data           0  commdb{000a0000}-116.o(StubCode)
    StubCode                                 0x00018004   Section        8  commdb{000a0000}-123.o(StubCode)
    theImportedSymbol                        0x00018008   Data           0  commdb{000a0000}-123.o(StubCode)
    StubCode                                 0x0001800c   Section        8  commdb{000a0000}-13.o(StubCode)
    theImportedSymbol                        0x00018010   Data           0  commdb{000a0000}-13.o(StubCode)
    StubCode                                 0x00018014   Section        8  commdb{000a0000}-132.o(StubCode)
    theImportedSymbol                        0x00018018   Data           0  commdb{000a0000}-132.o(StubCode)
    StubCode                                 0x0001801c   Section        8  commdb{000a0000}-133.o(StubCode)
    theImportedSymbol                        0x00018020   Data           0  commdb{000a0000}-133.o(StubCode)
    StubCode                                 0x00018024   Section        8  commdb{000a0000}-134.o(StubCode)
    theImportedSymbol                        0x00018028   Data           0  commdb{000a0000}-134.o(StubCode)
    StubCode                                 0x0001802c   Section        8  commdb{000a0000}-135.o(StubCode)
    theImportedSymbol                        0x00018030   Data           0  commdb{000a0000}-135.o(StubCode)
    StubCode                                 0x00018034   Section        8  commdb{000a0000}-136.o(StubCode)
    theImportedSymbol                        0x00018038   Data           0  commdb{000a0000}-136.o(StubCode)
    StubCode                                 0x0001803c   Section        8  commdb{000a0000}-137.o(StubCode)
    theImportedSymbol                        0x00018040   Data           0  commdb{000a0000}-137.o(StubCode)
    StubCode                                 0x00018044   Section        8  commdb{000a0000}-140.o(StubCode)
    theImportedSymbol                        0x00018048   Data           0  commdb{000a0000}-140.o(StubCode)
    StubCode                                 0x0001804c   Section        8  commdb{000a0000}-142.o(StubCode)
    theImportedSymbol                        0x00018050   Data           0  commdb{000a0000}-142.o(StubCode)
    StubCode                                 0x00018054   Section        8  commdb{000a0000}-144.o(StubCode)
    theImportedSymbol                        0x00018058   Data           0  commdb{000a0000}-144.o(StubCode)
    StubCode                                 0x0001805c   Section        8  commdb{000a0000}-153.o(StubCode)
    theImportedSymbol                        0x00018060   Data           0  commdb{000a0000}-153.o(StubCode)
    StubCode                                 0x00018064   Section        8  commdb{000a0000}-155.o(StubCode)
    theImportedSymbol                        0x00018068   Data           0  commdb{000a0000}-155.o(StubCode)
    StubCode                                 0x0001806c   Section        8  commdb{000a0000}-18.o(StubCode)
    theImportedSymbol                        0x00018070   Data           0  commdb{000a0000}-18.o(StubCode)
    StubCode                                 0x00018074   Section        8  commdb{000a0000}-19.o(StubCode)
    theImportedSymbol                        0x00018078   Data           0  commdb{000a0000}-19.o(StubCode)
    StubCode                                 0x0001807c   Section        8  commdb{000a0000}-21.o(StubCode)
    theImportedSymbol                        0x00018080   Data           0  commdb{000a0000}-21.o(StubCode)
    StubCode                                 0x00018084   Section        8  commdb{000a0000}-22.o(StubCode)
    theImportedSymbol                        0x00018088   Data           0  commdb{000a0000}-22.o(StubCode)
    StubCode                                 0x0001808c   Section        8  commdb{000a0000}-31.o(StubCode)
    theImportedSymbol                        0x00018090   Data           0  commdb{000a0000}-31.o(StubCode)
    StubCode                                 0x00018094   Section        8  commdb{000a0000}-34.o(StubCode)
    theImportedSymbol                        0x00018098   Data           0  commdb{000a0000}-34.o(StubCode)
    StubCode                                 0x0001809c   Section        8  commdb{000a0000}-36.o(StubCode)
    theImportedSymbol                        0x000180a0   Data           0  commdb{000a0000}-36.o(StubCode)
    StubCode                                 0x000180a4   Section        8  commdb{000a0000}-37.o(StubCode)
    theImportedSymbol                        0x000180a8   Data           0  commdb{000a0000}-37.o(StubCode)
    StubCode                                 0x000180ac   Section        8  commdb{000a0000}-38.o(StubCode)
    theImportedSymbol                        0x000180b0   Data           0  commdb{000a0000}-38.o(StubCode)
    StubCode                                 0x000180b4   Section        8  commdb{000a0000}-4.o(StubCode)
    theImportedSymbol                        0x000180b8   Data           0  commdb{000a0000}-4.o(StubCode)
    StubCode                                 0x000180bc   Section        8  commdb{000a0000}-40.o(StubCode)
    theImportedSymbol                        0x000180c0   Data           0  commdb{000a0000}-40.o(StubCode)
    StubCode                                 0x000180c4   Section        8  commdb{000a0000}-42.o(StubCode)
    theImportedSymbol                        0x000180c8   Data           0  commdb{000a0000}-42.o(StubCode)
    StubCode                                 0x000180cc   Section        8  commdb{000a0000}-44.o(StubCode)
    theImportedSymbol                        0x000180d0   Data           0  commdb{000a0000}-44.o(StubCode)
    StubCode                                 0x000180d4   Section        8  commdb{000a0000}-45.o(StubCode)
    theImportedSymbol                        0x000180d8   Data           0  commdb{000a0000}-45.o(StubCode)
    StubCode                                 0x000180dc   Section        8  commdb{000a0000}-5.o(StubCode)
    theImportedSymbol                        0x000180e0   Data           0  commdb{000a0000}-5.o(StubCode)
    StubCode                                 0x000180e4   Section        8  commdb{000a0000}-50.o(StubCode)
    theImportedSymbol                        0x000180e8   Data           0  commdb{000a0000}-50.o(StubCode)
    StubCode                                 0x000180ec   Section        8  commdb{000a0000}-52.o(StubCode)
    theImportedSymbol                        0x000180f0   Data           0  commdb{000a0000}-52.o(StubCode)
    StubCode                                 0x000180f4   Section        8  commdb{000a0000}-56.o(StubCode)
    theImportedSymbol                        0x000180f8   Data           0  commdb{000a0000}-56.o(StubCode)
    StubCode                                 0x000180fc   Section        8  commdb{000a0000}-6.o(StubCode)
    theImportedSymbol                        0x00018100   Data           0  commdb{000a0000}-6.o(StubCode)
    StubCode                                 0x00018104   Section        8  commdb{000a0000}-61.o(StubCode)
    theImportedSymbol                        0x00018108   Data           0  commdb{000a0000}-61.o(StubCode)
    StubCode                                 0x0001810c   Section        8  commdb{000a0000}-69.o(StubCode)
    theImportedSymbol                        0x00018110   Data           0  commdb{000a0000}-69.o(StubCode)
    StubCode                                 0x00018114   Section        8  commdb{000a0000}-71.o(StubCode)
    theImportedSymbol                        0x00018118   Data           0  commdb{000a0000}-71.o(StubCode)
    StubCode                                 0x0001811c   Section        8  commdb{000a0000}-73.o(StubCode)
    theImportedSymbol                        0x00018120   Data           0  commdb{000a0000}-73.o(StubCode)
    StubCode                                 0x00018124   Section        8  commdb{000a0000}-75.o(StubCode)
    theImportedSymbol                        0x00018128   Data           0  commdb{000a0000}-75.o(StubCode)
    StubCode                                 0x0001812c   Section        8  commdb{000a0000}-76.o(StubCode)
    theImportedSymbol                        0x00018130   Data           0  commdb{000a0000}-76.o(StubCode)
    StubCode                                 0x00018134   Section        8  commdb{000a0000}-79.o(StubCode)
    theImportedSymbol                        0x00018138   Data           0  commdb{000a0000}-79.o(StubCode)
    StubCode                                 0x0001813c   Section        8  commdb{000a0000}-87.o(StubCode)
    theImportedSymbol                        0x00018140   Data           0  commdb{000a0000}-87.o(StubCode)
    StubCode                                 0x00018144   Section        8  commdb{000a0000}-94.o(StubCode)
    theImportedSymbol                        0x00018148   Data           0  commdb{000a0000}-94.o(StubCode)
    StubCode                                 0x0001814c   Section        8  commdb{000a0000}-99.o(StubCode)
    theImportedSymbol                        0x00018150   Data           0  commdb{000a0000}-99.o(StubCode)
    StubCode                                 0x00018154   Section        8  euser{000a0000}-1010.o(StubCode)
    theImportedSymbol                        0x00018158   Data           0  euser{000a0000}-1010.o(StubCode)
    StubCode                                 0x0001815c   Section        8  euser{000a0000}-1016.o(StubCode)
    theImportedSymbol                        0x00018160   Data           0  euser{000a0000}-1016.o(StubCode)
    StubCode                                 0x00018164   Section        8  euser{000a0000}-1088.o(StubCode)
    theImportedSymbol                        0x00018168   Data           0  euser{000a0000}-1088.o(StubCode)
    StubCode                                 0x0001816c   Section        8  euser{000a0000}-1089.o(StubCode)
    theImportedSymbol                        0x00018170   Data           0  euser{000a0000}-1089.o(StubCode)
    StubCode                                 0x00018174   Section        8  euser{000a0000}-1090.o(StubCode)
    theImportedSymbol                        0x00018178   Data           0  euser{000a0000}-1090.o(StubCode)
    StubCode                                 0x0001817c   Section        8  euser{000a0000}-1091.o(StubCode)
    theImportedSymbol                        0x00018180   Data           0  euser{000a0000}-1091.o(StubCode)
    StubCode                                 0x00018184   Section        8  euser{000a0000}-1094.o(StubCode)
    theImportedSymbol                        0x00018188   Data           0  euser{000a0000}-1094.o(StubCode)
    StubCode                                 0x0001818c   Section        8  euser{000a0000}-1116.o(StubCode)
    theImportedSymbol                        0x00018190   Data           0  euser{000a0000}-1116.o(StubCode)
    StubCode                                 0x00018194   Section        8  euser{000a0000}-1118.o(StubCode)
    theImportedSymbol                        0x00018198   Data           0  euser{000a0000}-1118.o(StubCode)
    StubCode                                 0x0001819c   Section        8  euser{000a0000}-1119.o(StubCode)
    theImportedSymbol                        0x000181a0   Data           0  euser{000a0000}-1119.o(StubCode)
    StubCode                                 0x000181a4   Section        8  euser{000a0000}-1126.o(StubCode)
    theImportedSymbol                        0x000181a8   Data           0  euser{000a0000}-1126.o(StubCode)
    StubCode                                 0x000181ac   Section        8  euser{000a0000}-1169.o(StubCode)
    theImportedSymbol                        0x000181b0   Data           0  euser{000a0000}-1169.o(StubCode)
    StubCode                                 0x000181b4   Section        8  euser{000a0000}-1170.o(StubCode)
    theImportedSymbol                        0x000181b8   Data           0  euser{000a0000}-1170.o(StubCode)
    StubCode                                 0x000181bc   Section        8  euser{000a0000}-1171.o(StubCode)
    theImportedSymbol                        0x000181c0   Data           0  euser{000a0000}-1171.o(StubCode)
    StubCode                                 0x000181c4   Section        8  euser{000a0000}-120.o(StubCode)
    theImportedSymbol                        0x000181c8   Data           0  euser{000a0000}-120.o(StubCode)
    StubCode                                 0x000181cc   Section        8  euser{000a0000}-1253.o(StubCode)
    theImportedSymbol                        0x000181d0   Data           0  euser{000a0000}-1253.o(StubCode)
    StubCode                                 0x000181d4   Section        8  euser{000a0000}-1469.o(StubCode)
    theImportedSymbol                        0x000181d8   Data           0  euser{000a0000}-1469.o(StubCode)
    StubCode                                 0x000181dc   Section        8  euser{000a0000}-1553.o(StubCode)
    theImportedSymbol                        0x000181e0   Data           0  euser{000a0000}-1553.o(StubCode)
    StubCode                                 0x000181e4   Section        8  euser{000a0000}-1718.o(StubCode)
    theImportedSymbol                        0x000181e8   Data           0  euser{000a0000}-1718.o(StubCode)
    StubCode                                 0x000181ec   Section        8  euser{000a0000}-1719.o(StubCode)
    theImportedSymbol                        0x000181f0   Data           0  euser{000a0000}-1719.o(StubCode)
    StubCode                                 0x000181f4   Section        8  euser{000a0000}-1733.o(StubCode)
    theImportedSymbol                        0x000181f8   Data           0  euser{000a0000}-1733.o(StubCode)
    StubCode                                 0x000181fc   Section        8  euser{000a0000}-1803.o(StubCode)
    theImportedSymbol                        0x00018200   Data           0  euser{000a0000}-1803.o(StubCode)
    StubCode                                 0x00018204   Section        8  euser{000a0000}-1806.o(StubCode)
    theImportedSymbol                        0x00018208   Data           0  euser{000a0000}-1806.o(StubCode)
    StubCode                                 0x0001820c   Section        8  euser{000a0000}-1815.o(StubCode)
    theImportedSymbol                        0x00018210   Data           0  euser{000a0000}-1815.o(StubCode)
    StubCode                                 0x00018214   Section        8  euser{000a0000}-1817.o(StubCode)
    theImportedSymbol                        0x00018218   Data           0  euser{000a0000}-1817.o(StubCode)
    StubCode                                 0x0001821c   Section        8  euser{000a0000}-1818.o(StubCode)
    theImportedSymbol                        0x00018220   Data           0  euser{000a0000}-1818.o(StubCode)
    StubCode                                 0x00018224   Section        8  euser{000a0000}-1821.o(StubCode)
    theImportedSymbol                        0x00018228   Data           0  euser{000a0000}-1821.o(StubCode)
    StubCode                                 0x0001822c   Section        8  euser{000a0000}-1822.o(StubCode)
    theImportedSymbol                        0x00018230   Data           0  euser{000a0000}-1822.o(StubCode)
    StubCode                                 0x00018234   Section        8  euser{000a0000}-1824.o(StubCode)
    theImportedSymbol                        0x00018238   Data           0  euser{000a0000}-1824.o(StubCode)
    StubCode                                 0x0001823c   Section        8  euser{000a0000}-202.o(StubCode)
    theImportedSymbol                        0x00018240   Data           0  euser{000a0000}-202.o(StubCode)
    StubCode                                 0x00018244   Section        8  euser{000a0000}-203.o(StubCode)
    theImportedSymbol                        0x00018248   Data           0  euser{000a0000}-203.o(StubCode)
    StubCode                                 0x0001824c   Section        8  euser{000a0000}-204.o(StubCode)
    theImportedSymbol                        0x00018250   Data           0  euser{000a0000}-204.o(StubCode)
    StubCode                                 0x00018254   Section        8  euser{000a0000}-205.o(StubCode)
    theImportedSymbol                        0x00018258   Data           0  euser{000a0000}-205.o(StubCode)
    StubCode                                 0x0001825c   Section        8  euser{000a0000}-2060.o(StubCode)
    theImportedSymbol                        0x00018260   Data           0  euser{000a0000}-2060.o(StubCode)
    StubCode                                 0x00018264   Section        8  euser{000a0000}-2061.o(StubCode)
    theImportedSymbol                        0x00018268   Data           0  euser{000a0000}-2061.o(StubCode)
    StubCode                                 0x0001826c   Section        8  euser{000a0000}-207.o(StubCode)
    theImportedSymbol                        0x00018270   Data           0  euser{000a0000}-207.o(StubCode)
    StubCode                                 0x00018274   Section        8  euser{000a0000}-208.o(StubCode)
    theImportedSymbol                        0x00018278   Data           0  euser{000a0000}-208.o(StubCode)
    StubCode                                 0x0001827c   Section        8  euser{000a0000}-2082.o(StubCode)
    theImportedSymbol                        0x00018280   Data           0  euser{000a0000}-2082.o(StubCode)
    StubCode                                 0x00018284   Section        8  euser{000a0000}-209.o(StubCode)
    theImportedSymbol                        0x00018288   Data           0  euser{000a0000}-209.o(StubCode)
    StubCode                                 0x0001828c   Section        8  euser{000a0000}-2105.o(StubCode)
    theImportedSymbol                        0x00018290   Data           0  euser{000a0000}-2105.o(StubCode)
    StubCode                                 0x00018294   Section        8  euser{000a0000}-2106.o(StubCode)
    theImportedSymbol                        0x00018298   Data           0  euser{000a0000}-2106.o(StubCode)
    StubCode                                 0x0001829c   Section        8  euser{000a0000}-2107.o(StubCode)
    theImportedSymbol                        0x000182a0   Data           0  euser{000a0000}-2107.o(StubCode)
    StubCode                                 0x000182a4   Section        8  euser{000a0000}-2123.o(StubCode)
    theImportedSymbol                        0x000182a8   Data           0  euser{000a0000}-2123.o(StubCode)
    StubCode                                 0x000182ac   Section        8  euser{000a0000}-2125.o(StubCode)
    theImportedSymbol                        0x000182b0   Data           0  euser{000a0000}-2125.o(StubCode)
    StubCode                                 0x000182b4   Section        8  euser{000a0000}-2128.o(StubCode)
    theImportedSymbol                        0x000182b8   Data           0  euser{000a0000}-2128.o(StubCode)
    StubCode                                 0x000182bc   Section        8  euser{000a0000}-217.o(StubCode)
    theImportedSymbol                        0x000182c0   Data           0  euser{000a0000}-217.o(StubCode)
    StubCode                                 0x000182c4   Section        8  euser{000a0000}-218.o(StubCode)
    theImportedSymbol                        0x000182c8   Data           0  euser{000a0000}-218.o(StubCode)
    StubCode                                 0x000182cc   Section        8  euser{000a0000}-244.o(StubCode)
    theImportedSymbol                        0x000182d0   Data           0  euser{000a0000}-244.o(StubCode)
    StubCode                                 0x000182d4   Section        8  euser{000a0000}-245.o(StubCode)
    theImportedSymbol                        0x000182d8   Data           0  euser{000a0000}-245.o(StubCode)
    StubCode                                 0x000182dc   Section        8  euser{000a0000}-247.o(StubCode)
    theImportedSymbol                        0x000182e0   Data           0  euser{000a0000}-247.o(StubCode)
    StubCode                                 0x000182e4   Section        8  euser{000a0000}-250.o(StubCode)
    theImportedSymbol                        0x000182e8   Data           0  euser{000a0000}-250.o(StubCode)
    StubCode                                 0x000182ec   Section        8  euser{000a0000}-254.o(StubCode)
    theImportedSymbol                        0x000182f0   Data           0  euser{000a0000}-254.o(StubCode)
    StubCode                                 0x000182f4   Section        8  euser{000a0000}-257.o(StubCode)
    theImportedSymbol                        0x000182f8   Data           0  euser{000a0000}-257.o(StubCode)
    StubCode                                 0x000182fc   Section        8  euser{000a0000}-264.o(StubCode)
    theImportedSymbol                        0x00018300   Data           0  euser{000a0000}-264.o(StubCode)
    StubCode                                 0x00018304   Section        8  euser{000a0000}-424.o(StubCode)
    theImportedSymbol                        0x00018308   Data           0  euser{000a0000}-424.o(StubCode)
    StubCode                                 0x0001830c   Section        8  euser{000a0000}-593.o(StubCode)
    theImportedSymbol                        0x00018310   Data           0  euser{000a0000}-593.o(StubCode)
    StubCode                                 0x00018314   Section        8  euser{000a0000}-645.o(StubCode)
    theImportedSymbol                        0x00018318   Data           0  euser{000a0000}-645.o(StubCode)
    StubCode                                 0x0001831c   Section        8  euser{000a0000}-649.o(StubCode)
    theImportedSymbol                        0x00018320   Data           0  euser{000a0000}-649.o(StubCode)
    StubCode                                 0x00018324   Section        8  euser{000a0000}-650.o(StubCode)
    theImportedSymbol                        0x00018328   Data           0  euser{000a0000}-650.o(StubCode)
    StubCode                                 0x0001832c   Section        8  euser{000a0000}-651.o(StubCode)
    theImportedSymbol                        0x00018330   Data           0  euser{000a0000}-651.o(StubCode)
    StubCode                                 0x00018334   Section        8  euser{000a0000}-654.o(StubCode)
    theImportedSymbol                        0x00018338   Data           0  euser{000a0000}-654.o(StubCode)
    StubCode                                 0x0001833c   Section        8  euser{000a0000}-669.o(StubCode)
    theImportedSymbol                        0x00018340   Data           0  euser{000a0000}-669.o(StubCode)
    StubCode                                 0x00018344   Section        8  euser{000a0000}-758.o(StubCode)
    theImportedSymbol                        0x00018348   Data           0  euser{000a0000}-758.o(StubCode)
    StubCode                                 0x0001834c   Section        8  euser{000a0000}-767.o(StubCode)
    theImportedSymbol                        0x00018350   Data           0  euser{000a0000}-767.o(StubCode)
    StubCode                                 0x00018354   Section        8  euser{000a0000}-782.o(StubCode)
    theImportedSymbol                        0x00018358   Data           0  euser{000a0000}-782.o(StubCode)
    StubCode                                 0x0001835c   Section        8  euser{000a0000}-80.o(StubCode)
    theImportedSymbol                        0x00018360   Data           0  euser{000a0000}-80.o(StubCode)
    StubCode                                 0x00018364   Section        8  euser{000a0000}-81.o(StubCode)
    theImportedSymbol                        0x00018368   Data           0  euser{000a0000}-81.o(StubCode)
    StubCode                                 0x0001836c   Section        8  euser{000a0000}-891.o(StubCode)
    theImportedSymbol                        0x00018370   Data           0  euser{000a0000}-891.o(StubCode)
    StubCode                                 0x00018374   Section        8  euser{000a0000}-893.o(StubCode)
    theImportedSymbol                        0x00018378   Data           0  euser{000a0000}-893.o(StubCode)
    StubCode                                 0x0001837c   Section        8  euser{000a0000}-894.o(StubCode)
    theImportedSymbol                        0x00018380   Data           0  euser{000a0000}-894.o(StubCode)
    StubCode                                 0x00018384   Section        8  euser{000a0000}-953.o(StubCode)
    theImportedSymbol                        0x00018388   Data           0  euser{000a0000}-953.o(StubCode)
    StubCode                                 0x0001838c   Section        8  euser{000a0000}-959.o(StubCode)
    theImportedSymbol                        0x00018390   Data           0  euser{000a0000}-959.o(StubCode)
    StubCode                                 0x00018394   Section        8  euser{000a0000}-966.o(StubCode)
    theImportedSymbol                        0x00018398   Data           0  euser{000a0000}-966.o(StubCode)
    StubCode                                 0x0001839c   Section        8  euser{000a0000}-968.o(StubCode)
    theImportedSymbol                        0x000183a0   Data           0  euser{000a0000}-968.o(StubCode)
    StubCode                                 0x000183a4   Section        8  euser{000a0000}-973.o(StubCode)
    theImportedSymbol                        0x000183a8   Data           0  euser{000a0000}-973.o(StubCode)
    StubCode                                 0x000183ac   Section        8  euser{000a0000}-988.o(StubCode)
    theImportedSymbol                        0x000183b0   Data           0  euser{000a0000}-988.o(StubCode)
    StubCode                                 0x000183b4   Section        8  efsrv{000a0000}-68.o(StubCode)
    theImportedSymbol                        0x000183b8   Data           0  efsrv{000a0000}-68.o(StubCode)
    StubCode                                 0x000183bc   Section        8  bafl{000a0000}-276.o(StubCode)
    theImportedSymbol                        0x000183c0   Data           0  bafl{000a0000}-276.o(StubCode)
    StubCode                                 0x000183c4   Section        8  bafl{000a0000}-324.o(StubCode)
    theImportedSymbol                        0x000183c8   Data           0  bafl{000a0000}-324.o(StubCode)
    StubCode                                 0x000183cc   Section        8  bafl{000a0000}-66.o(StubCode)
    theImportedSymbol                        0x000183d0   Data           0  bafl{000a0000}-66.o(StubCode)
    StubCode                                 0x000183d4   Section        8  bafl{000a0000}-68.o(StubCode)
    theImportedSymbol                        0x000183d8   Data           0  bafl{000a0000}-68.o(StubCode)
    StubCode                                 0x000183dc   Section        8  bafl{000a0000}-69.o(StubCode)
    theImportedSymbol                        0x000183e0   Data           0  bafl{000a0000}-69.o(StubCode)
    StubCode                                 0x000183e4   Section        8  bafl{000a0000}-71.o(StubCode)
    theImportedSymbol                        0x000183e8   Data           0  bafl{000a0000}-71.o(StubCode)
    StubCode                                 0x000183ec   Section        8  insock{000a0000}-13.o(StubCode)
    theImportedSymbol                        0x000183f0   Data           0  insock{000a0000}-13.o(StubCode)
    StubCode                                 0x000183f4   Section        8  insock{000a0000}-3.o(StubCode)
    theImportedSymbol                        0x000183f8   Data           0  insock{000a0000}-3.o(StubCode)
    StubCode                                 0x000183fc   Section        8  insock{000a0000}-9.o(StubCode)
    theImportedSymbol                        0x00018400   Data           0  insock{000a0000}-9.o(StubCode)
    StubCode                                 0x00018404   Section        8  esock{000a0000}-41.o(StubCode)
    theImportedSymbol                        0x00018408   Data           0  esock{000a0000}-41.o(StubCode)
    StubCode                                 0x0001840c   Section        8  esock{000a0000}-46.o(StubCode)
    theImportedSymbol                        0x00018410   Data           0  esock{000a0000}-46.o(StubCode)
    StubCode                                 0x00018414   Section        8  esock{000a0000}-59.o(StubCode)
    theImportedSymbol                        0x00018418   Data           0  esock{000a0000}-59.o(StubCode)
    StubCode                                 0x0001841c   Section        8  esock{000a0000}-6.o(StubCode)
    theImportedSymbol                        0x00018420   Data           0  esock{000a0000}-6.o(StubCode)
    StubCode                                 0x00018424   Section        8  esock{000a0000}-62.o(StubCode)
    theImportedSymbol                        0x00018428   Data           0  esock{000a0000}-62.o(StubCode)
    StubCode                                 0x0001842c   Section        8  esock{000a0000}-81.o(StubCode)
    theImportedSymbol                        0x00018430   Data           0  esock{000a0000}-81.o(StubCode)
    StubCode                                 0x00018434   Section        8  esock{000a0000}-82.o(StubCode)
    theImportedSymbol                        0x00018438   Data           0  esock{000a0000}-82.o(StubCode)
    StubCode                                 0x0001843c   Section        8  esock{000a0000}-9.o(StubCode)
    theImportedSymbol                        0x00018440   Data           0  esock{000a0000}-9.o(StubCode)
    StubCode                                 0x00018444   Section        8  FeatMgr{000a0000}-1.o(StubCode)
    theImportedSymbol                        0x00018448   Data           0  FeatMgr{000a0000}-1.o(StubCode)
    StubCode                                 0x0001844c   Section        8  FeatMgr{000a0000}-2.o(StubCode)
    theImportedSymbol                        0x00018450   Data           0  FeatMgr{000a0000}-2.o(StubCode)
    StubCode                                 0x00018454   Section        8  FeatMgr{000a0000}-3.o(StubCode)
    theImportedSymbol                        0x00018458   Data           0  FeatMgr{000a0000}-3.o(StubCode)
    StubCode                                 0x0001845c   Section        8  vpnapi{000a0000}-10.o(StubCode)
    theImportedSymbol                        0x00018460   Data           0  vpnapi{000a0000}-10.o(StubCode)
    StubCode                                 0x00018464   Section        8  vpnapi{000a0000}-11.o(StubCode)
    theImportedSymbol                        0x00018468   Data           0  vpnapi{000a0000}-11.o(StubCode)
    StubCode                                 0x0001846c   Section        8  vpnapi{000a0000}-12.o(StubCode)
    theImportedSymbol                        0x00018470   Data           0  vpnapi{000a0000}-12.o(StubCode)
    StubCode                                 0x00018474   Section        8  vpnapi{000a0000}-7.o(StubCode)
    theImportedSymbol                        0x00018478   Data           0  vpnapi{000a0000}-7.o(StubCode)
    StubCode                                 0x0001847c   Section        8  vpnapi{000a0000}-8.o(StubCode)
    theImportedSymbol                        0x00018480   Data           0  vpnapi{000a0000}-8.o(StubCode)
    StubCode                                 0x00018484   Section        8  vpnapi{000a0000}-9.o(StubCode)
    theImportedSymbol                        0x00018488   Data           0  vpnapi{000a0000}-9.o(StubCode)
    StubCode                                 0x0001848c   Section        8  centralrepository{000a0000}-14.o(StubCode)
    theImportedSymbol                        0x00018490   Data           0  centralrepository{000a0000}-14.o(StubCode)
    StubCode                                 0x00018494   Section        8  centralrepository{000a0000}-9.o(StubCode)
    theImportedSymbol                        0x00018498   Data           0  centralrepository{000a0000}-9.o(StubCode)
    StubCode                                 0x0001849c   Section        8  WEPSecuritySettingsUI{000a0000}-1.o(StubCode)
    theImportedSymbol                        0x000184a0   Data           0  WEPSecuritySettingsUI{000a0000}-1.o(StubCode)
    StubCode                                 0x000184a4   Section        8  WEPSecuritySettingsUI{000a0000}-12.o(StubCode)
    theImportedSymbol                        0x000184a8   Data           0  WEPSecuritySettingsUI{000a0000}-12.o(StubCode)
    StubCode                                 0x000184ac   Section        8  WEPSecuritySettingsUI{000a0000}-3.o(StubCode)
    theImportedSymbol                        0x000184b0   Data           0  WEPSecuritySettingsUI{000a0000}-3.o(StubCode)
    StubCode                                 0x000184b4   Section        8  WPASecuritySettingsUI{000a0000}-1.o(StubCode)
    theImportedSymbol                        0x000184b8   Data           0  WPASecuritySettingsUI{000a0000}-1.o(StubCode)
    StubCode                                 0x000184bc   Section        8  WPASecuritySettingsUI{000a0000}-12.o(StubCode)
    theImportedSymbol                        0x000184c0   Data           0  WPASecuritySettingsUI{000a0000}-12.o(StubCode)
    StubCode                                 0x000184c4   Section        8  WPASecuritySettingsUI{000a0000}-13.o(StubCode)
    theImportedSymbol                        0x000184c8   Data           0  WPASecuritySettingsUI{000a0000}-13.o(StubCode)
    StubCode                                 0x000184cc   Section        8  WPASecuritySettingsUI{000a0000}-3.o(StubCode)
    theImportedSymbol                        0x000184d0   Data           0  WPASecuritySettingsUI{000a0000}-3.o(StubCode)
    StubCode                                 0x000184d4   Section        8  drtaeabi{000a0000}-135.o(StubCode)
    theImportedSymbol                        0x000184d8   Data           0  drtaeabi{000a0000}-135.o(StubCode)
    StubCode                                 0x000184dc   Section        8  drtaeabi{000a0000}-144.o(StubCode)
    theImportedSymbol                        0x000184e0   Data           0  drtaeabi{000a0000}-144.o(StubCode)
    StubCode                                 0x000184e4   Section        8  drtaeabi{000a0000}-158.o(StubCode)
    theImportedSymbol                        0x000184e8   Data           0  drtaeabi{000a0000}-158.o(StubCode)
    StubCode                                 0x000184ec   Section        8  drtaeabi{000a0000}-159.o(StubCode)
    theImportedSymbol                        0x000184f0   Data           0  drtaeabi{000a0000}-159.o(StubCode)
    StubCode                                 0x000184f4   Section        8  drtaeabi{000a0000}-180.o(StubCode)
    theImportedSymbol                        0x000184f8   Data           0  drtaeabi{000a0000}-180.o(StubCode)
    StubCode                                 0x000184fc   Section        8  drtaeabi{000a0000}-183.o(StubCode)
    theImportedSymbol                        0x00018500   Data           0  drtaeabi{000a0000}-183.o(StubCode)
    StubCode                                 0x00018504   Section        8  drtaeabi{000a0000}-184.o(StubCode)
    theImportedSymbol                        0x00018508   Data           0  drtaeabi{000a0000}-184.o(StubCode)
    StubCode                                 0x0001850c   Section        8  scppnwdl{000a0000}-3.o(StubCode)
    theImportedSymbol                        0x00018510   Data           0  scppnwdl{000a0000}-3.o(StubCode)
    StubCode                                 0x00018514   Section        8  drtrvct2_2{000a0000}-28.o(StubCode)
    theImportedSymbol                        0x00018518   Data           0  drtrvct2_2{000a0000}-28.o(StubCode)
    i._ZN13CArrayFixFlatI14TVpnPolicyInfoED0Ev 0x0001851c   Section       16  APEngine.in(i._ZN13CArrayFixFlatI14TVpnPolicyInfoED0Ev)
    i._ZN13CArrayFixFlatI14TVpnPolicyInfoED1Ev 0x0001852c   Section        8  APEngine.in(i._ZN13CArrayFixFlatI14TVpnPolicyInfoED1Ev)
    i._ZN13CArrayFixFlatI8TVpnDataED0Ev      0x00018534   Section       16  APEngine.in(i._ZN13CArrayFixFlatI8TVpnDataED0Ev)
    i._ZN13CArrayFixFlatI8TVpnDataED1Ev      0x00018544   Section        8  APEngine.in(i._ZN13CArrayFixFlatI8TVpnDataED1Ev)
    i._ZN13CArrayFixFlatIA3_mED0Ev           0x0001854c   Section       16  APEngine.in(i._ZN13CArrayFixFlatIA3_mED0Ev)
    i._ZN13CArrayFixFlatIA3_mED1Ev           0x0001855c   Section        8  APEngine.in(i._ZN13CArrayFixFlatIA3_mED1Ev)
    i._ZN13CArrayFixFlatImED0Ev              0x00018564   Section       16  APEngine.in(i._ZN13CArrayFixFlatImED0Ev)
    i._ZN13CArrayFixFlatImED1Ev              0x00018574   Section        8  APEngine.in(i._ZN13CArrayFixFlatImED1Ev)
    i._ZN13CArrayPtrFlatI11CApListItemED1Ev  0x0001857c   Section        8  APEngine.in(i._ZN13CArrayPtrFlatI11CApListItemED1Ev)
    i._ZN13CArrayPtrFlatI14CApNetworkItemED1Ev 0x00018584   Section        8  APEngine.in(i._ZN13CArrayPtrFlatI14CApNetworkItemED1Ev)
    i._ZN13CArrayPtrFlatI19MActiveApDbObserverED0Ev 0x0001858c   Section       16  APEngine.in(i._ZN13CArrayPtrFlatI19MActiveApDbObserverED0Ev)
    i._ZN13CArrayPtrFlatI19MActiveApDbObserverED1Ev 0x0001859c   Section        8  APEngine.in(i._ZN13CArrayPtrFlatI19MActiveApDbObserverED1Ev)
    i._ZN13CArrayPtrFlatI7HBufC16ED0Ev       0x000185a4   Section       16  APEngine.in(i._ZN13CArrayPtrFlatI7HBufC16ED0Ev)
    i._ZN13CArrayPtrFlatI7HBufC16ED1Ev       0x000185b4   Section        8  APEngine.in(i._ZN13CArrayPtrFlatI7HBufC16ED1Ev)
    i._ZN6TLex16C1ERK7TDesC16                0x000185bc   Section       16  APEngine.in(i._ZN6TLex16C1ERK7TDesC16)
    i._ZN6TPtr16C1ERKS_                      0x000185cc   Section       14  APEngine.in(i._ZN6TPtr16C1ERKS_)
    i._ZN9CArrayFixI14TVpnPolicyInfoED1Ev    0x000185da   Section        8  APEngine.in(i._ZN9CArrayFixI14TVpnPolicyInfoED1Ev)
    i._ZN9CArrayFixI8TVpnDataED1Ev           0x000185e2   Section        8  APEngine.in(i._ZN9CArrayFixI8TVpnDataED1Ev)
    i._ZN9CArrayFixIA3_mED1Ev                0x000185ea   Section        8  APEngine.in(i._ZN9CArrayFixIA3_mED1Ev)
    i._ZN9CArrayFixIP11CApListItemED1Ev      0x000185f2   Section        8  APEngine.in(i._ZN9CArrayFixIP11CApListItemED1Ev)
    i._ZN9CArrayFixIP14CApNetworkItemED1Ev   0x000185fa   Section        8  APEngine.in(i._ZN9CArrayFixIP14CApNetworkItemED1Ev)
    i._ZN9CArrayFixIP19MActiveApDbObserverED1Ev 0x00018602   Section        8  APEngine.in(i._ZN9CArrayFixIP19MActiveApDbObserverED1Ev)
    i._ZN9CArrayFixIP7HBufC16ED1Ev           0x0001860a   Section        8  APEngine.in(i._ZN9CArrayFixIP7HBufC16ED1Ev)
    i._ZN9CArrayFixImED1Ev                   0x00018612   Section        8  APEngine.in(i._ZN9CArrayFixImED1Ev)
    i._ZN9CArrayPtrI11CApListItemED1Ev       0x0001861a   Section        8  APEngine.in(i._ZN9CArrayPtrI11CApListItemED1Ev)
    i._ZN9CArrayPtrI14CApNetworkItemED1Ev    0x00018622   Section        8  APEngine.in(i._ZN9CArrayPtrI14CApNetworkItemED1Ev)
    i._ZN9CArrayPtrI19MActiveApDbObserverED1Ev 0x0001862a   Section        8  APEngine.in(i._ZN9CArrayPtrI19MActiveApDbObserverED1Ev)
    i._ZN9CArrayPtrI7HBufC16ED1Ev            0x00018632   Section        8  APEngine.in(i._ZN9CArrayPtrI7HBufC16ED1Ev)
    i._ZNK6TDesC8ixEi                        0x0001863a   Section        8  APEngine.in(i._ZNK6TDesC8ixEi)
    i._ZNK7TDesC16eqERKS_                    0x00018642   Section       18  APEngine.in(i._ZNK7TDesC16eqERKS_)
    i._ZnwjPv                                0x00018654   Section        4  APEngine.in(i._ZnwjPv)
    t._Z17CleanupClosePushLI8RVpnServEvRT_   0x00018658   Section       16  APEngine.in(t._Z17CleanupClosePushLI8RVpnServEvRT_)
    t._ZN12CleanupCloseI13RResourceFileE5CloseEPv 0x00018668   Section        8  APEngine.in(t._ZN12CleanupCloseI13RResourceFileE5CloseEPv)
    t._ZN12CleanupCloseI3RFsE5CloseEPv       0x00018670   Section        8  APEngine.in(t._ZN12CleanupCloseI3RFsE5CloseEPv)
    t._ZN12CleanupCloseI8RVpnServE5CloseEPv  0x00018678   Section        8  APEngine.in(t._ZN12CleanupCloseI8RVpnServE5CloseEPv)
    t._ZN13CArrayFixFlatImEC1Ei              0x00018680   Section       28  APEngine.in(t._ZN13CArrayFixFlatImEC1Ei)
    t._ZN13CArrayPtrFlatI7HBufC16EC1Ei       0x0001869c   Section       28  APEngine.in(t._ZN13CArrayPtrFlatI7HBufC16EC1Ei)
    t._ZN4TBufILi128EEC1Ev                   0x000186b8   Section       10  APEngine.in(t._ZN4TBufILi128EEC1Ev)
    t._ZN9CArrayFixIA3_mE2AtEi               0x000186c2   Section        8  APEngine.in(t._ZN9CArrayFixIA3_mE2AtEi)
    t._ZN9CArrayFixIP11CApListItemE2AtEi     0x000186ca   Section        8  APEngine.in(t._ZN9CArrayFixIP11CApListItemE2AtEi)
    t._ZN9CArrayFixIP11CApListItemE7AppendLERKS1_ 0x000186d2   Section       12  APEngine.in(t._ZN9CArrayFixIP11CApListItemE7AppendLERKS1_)
    t._ZN9CArrayFixIP7HBufC16E2AtEi          0x000186de   Section        8  APEngine.in(t._ZN9CArrayFixIP7HBufC16E2AtEi)
    t._ZN9CArrayFixIiE2AtEi                  0x000186e6   Section        8  APEngine.in(t._ZN9CArrayFixIiE2AtEi)
    t._ZN9CArrayFixImE2AtEi                  0x000186ee   Section        8  APEngine.in(t._ZN9CArrayFixImE2AtEi)
    t._ZN9CArrayPtrI11CApListItemE15ResetAndDestroyEv 0x000186f6   Section       44  APEngine.in(t._ZN9CArrayPtrI11CApListItemE15ResetAndDestroyEv)
    t._ZN9CArrayPtrI14CApNetworkItemE15ResetAndDestroyEv 0x00018722   Section       44  APEngine.in(t._ZN9CArrayPtrI14CApNetworkItemE15ResetAndDestroyEv)
    .extab._ZN9CApSelect14GetUintValuesLEP17CCommsDbTableViewRK7TDesC16R13CArrayFixFlatImE 0x00018750   Data           0  APEngine.in(.ARM.extab)
    .extab._ZN9CApSelect7AddLanLEi           0x00018778   Data           0  APEngine.in(.ARM.extab)
    .extab._ZN9CApSelect21OpenViewMatchingTextLERK7TDesC16S2_S2_ 0x00018800   Data           0  APEngine.in(.ARM.extab)
    .extab._ZN9CApSelect13GetIspValuesLEP17CCommsDbTableViewP13CArrayFixFlatIA3_mERK7TDesC16 0x00018828   Data           0  APEngine.in(.ARM.extab)
    .extab._ZN9CApSelect32GetFilteredSortedCdmaTableViewLCEv 0x00018850   Data           0  APEngine.in(.ARM.extab)
    .extab._ZN9CApSelect32GetFilteredSortedGprsTableViewLCEi 0x00018878   Data           0  APEngine.in(.ARM.extab)
    .extab._ZN9CApSelect9DoUpdateLEv         0x000188a0   Data           0  APEngine.in(.ARM.extab)
    .extab._ZN9CApSelectD1Ev                 0x000188c8   Data           0  APEngine.in(.ARM.extab)
    .extab._ZN14CApDataHandlerD1Ev           0x000188d8   Data           0  APEngine.in(.ARM.extab)
    .extab._ZN14CApDataHandler10RemoveLanLEm 0x000188e8   Data           0  APEngine.in(.ARM.extab)
    .extab._ZN14CApDataHandler24DoUpdateAccessPointDataLER18CApAccessPointItemiRi 0x00018910   Data           0  APEngine.in(.ARM.extab)
    .extab._ZN8CApUtilsD1Ev                  0x00018938   Data           0  APEngine.in(.ARM.extab)
    .extab._ZN8CApUtils10IsAPInUseLEm        0x00018948   Data           0  APEngine.in(.ARM.extab)
    .extab._ZN8CApUtils7IsWlanLEm            0x00018980   Data           0  APEngine.in(.ARM.extab)
    .extab._ZN18CApAccessPointItem19SetDns6IpFromServerEv 0x000189a8   Data           0  APEngine.in(.ARM.extab)
    .extab._ZN18CApAccessPointItemD1Ev       0x000189d0   Data           0  APEngine.in(.ARM.extab)
    .extab._ZNK18CApAccessPointItemeqERKS_   0x000189e0   Data           0  APEngine.in(.ARM.extab)
    .extab._ZN18CApAccessPointItem9WriteUintE9TApMemberRKm 0x00018a08   Data           0  APEngine.in(.ARM.extab)
    .extab._ZN12CApItemExtraD1Ev             0x00018a58   Data           0  APEngine.in(.ARM.extab)
    .extab._ZN9ApCommons9ReadUintLEP17CCommsDbTableViewRK7TDesC16Rm 0x00018a68   Data           0  APEngine.in(.ARM.extab)
    .extab._ZN9ApCommons9ReadBoolLEP17CCommsDbTableViewRK7TDesC16Ri 0x00018a90   Data           0  APEngine.in(.ARM.extab)
    .extab._ZN9ApCommons14ReadLongTextLCEP17CCommsDbTableViewRK7TDesC16Ri 0x00018ab8   Data           0  APEngine.in(.ARM.extab)
    .extab._ZN11CActiveApDbD1Ev              0x00018ae0   Data           0  APEngine.in(.ARM.extab)
    .extab._ZN11CActiveApDb16NotifyObserversLEN19MActiveApDbObserver6TEventE 0x00018af0   Data           0  APEngine.in(.ARM.extab)
    .extab._ZN19CActiveApDbNotifierC1ER11CActiveApDb 0x00018b18   Data           0  APEngine.in(.ARM.extab)
    .extab._ZN19CActiveApDbNotifierD1Ev      0x00018b28   Data           0  APEngine.in(.ARM.extab)
    .extab._ZN19CActiveApDbNotifier4RunLEv   0x00018b38   Data           0  APEngine.in(.ARM.extab)
    .extab._ZN15CApListItemListD1Ev          0x00018b60   Data           0  APEngine.in(.ARM.extab)
    .extab._ZN11CApNetworksD1Ev              0x00018b70   Data           0  APEngine.in(.ARM.extab)
    .extab._ZN18CApNetworkItemListD1Ev       0x00018b80   Data           0  APEngine.in(.ARM.extab)
    .extab._ZN12CVpnApEngineD1Ev             0x00018b90   Data           0  APEngine.in(.ARM.extab)
    .extab._ZN12CVpnApEngine14DoCreateVpnApLEiR10CVpnApItem 0x00018ba0   Data           0  APEngine.in(.ARM.extab)
    .extab._ZN12CVpnApEngine12CreateVpnApLER7TDesC16mS1_PS0_m 0x00018bc8   Data           0  APEngine.in(.ARM.extab)
    .constdata$1                             0x00018bd4   Data           0  APEngine.in(.constdata)
    KEmpty                                   0x00018bd4   Data           8  APEngine.in(.constdata)
    .constdata                               0x00018bd4   Section        8  APEngine.in(.constdata)
    .constdata$1                             0x00018bdc   Data           0  APEngine.in(.constdata)
    KEmpty                                   0x00018bdc   Data           8  APEngine.in(.constdata)
    .constdata                               0x00018bdc   Section       72  APEngine.in(.constdata)
    KDynIpAddress                            0x00018be4   Data          20  APEngine.in(.constdata)
    KInvStartPage                            0x00018bf8   Data          20  APEngine.in(.constdata)
    KModemBearerLANModem                     0x00018c0c   Data          24  APEngine.in(.constdata)
    .constdata$1                             0x00018c24   Data           0  APEngine.in(.constdata)
    KEmpty                                   0x00018c24   Data           8  APEngine.in(.constdata)
    .constdata                               0x00018c24   Section     1780  APEngine.in(.constdata)
    KLocation                                0x00018c2c   Data          20  APEngine.in(.constdata)
    KModemBearerCSD                          0x00018c40   Data          24  APEngine.in(.constdata)
    KModemBearerGPRS                         0x00018c58   Data          28  APEngine.in(.constdata)
    KModemBearerCDMA                         0x00018c74   Data          28  APEngine.in(.constdata)
    KModemBearerWLAN                         0x00018c90   Data          28  APEngine.in(.constdata)
    KModemBearerLANModem                     0x00018cac   Data          24  APEngine.in(.constdata)
    KDaemonManagerName                       0x00018cc4   Data          36  APEngine.in(.constdata)
    KConfigDaemonName                        0x00018ce8   Data          24  APEngine.in(.constdata)
    SpeedData                                0x00018d00   Data        1404  APEngine.in(.constdata)
    KErrNoSuchCase                           0x0001927c   Data          32  APEngine.in(.constdata)
    KWlanBearerName                          0x0001929c   Data          28  APEngine.in(.constdata)
    KWlanBearerAgent                         0x000192b8   Data          28  APEngine.in(.constdata)
    KWlanBearerNif                           0x000192d4   Data          20  APEngine.in(.constdata)
    KWlanLDDName                             0x000192e8   Data          24  APEngine.in(.constdata)
    KWlanPDDName                             0x00019300   Data          24  APEngine.in(.constdata)
    .constdata$1                             0x00019318   Data           0  APEngine.in(.constdata)
    KEmpty                                   0x00019318   Data           8  APEngine.in(.constdata)
    .constdata                               0x00019318   Section       64  APEngine.in(.constdata)
    KDynIpAddress                            0x00019320   Data          20  APEngine.in(.constdata)
    KModemBearerLANModem                     0x00019334   Data          24  APEngine.in(.constdata)
    KFormat                                  0x0001934c   Data          12  APEngine.in(.constdata)
    .constdata$1                             0x00019358   Data           0  APEngine.in(.constdata)
    KEmpty                                   0x00019358   Data           8  APEngine.in(.constdata)
    .constdata                               0x00019358   Section      848  APEngine.in(.constdata)
    KFormat8                                 0x00019360   Data           8  APEngine.in(.constdata)
    KDefGprsIfParams                         0x00019368   Data           8  APEngine.in(.constdata)
    KDynIpAddress                            0x00019370   Data          20  APEngine.in(.constdata)
    KModemBearerCSD                          0x00019384   Data          24  APEngine.in(.constdata)
    KModemBearerGPRS                         0x0001939c   Data          28  APEngine.in(.constdata)
    KModemBearerCDMA                         0x000193b8   Data          28  APEngine.in(.constdata)
    KModemBearerWLAN                         0x000193d4   Data          28  APEngine.in(.constdata)
    KModemBearerLANModem                     0x000193f0   Data          24  APEngine.in(.constdata)
    KDynIpv6Address                          0x00019408   Data          36  APEngine.in(.constdata)
    KFormat                                  0x0001942c   Data          12  APEngine.in(.constdata)
    KDC_RESOURCE_FILES_DIR                   0x00019438   Data          28  APEngine.in(.constdata)
    KDefIspIfName                            0x00019454   Data          12  APEngine.in(.constdata)
    KDefGprsIfName                           0x00019460   Data          20  APEngine.in(.constdata)
    KDefIspIfNetworksIPv4                    0x00019474   Data          12  APEngine.in(.constdata)
    KDefWapGatewayIpAddress                  0x00019480   Data          20  APEngine.in(.constdata)
    KDefIspGateway                           0x00019494   Data          20  APEngine.in(.constdata)
    KDefPhoneIpAddress                       0x000194a8   Data          20  APEngine.in(.constdata)
    KDefPrimaryNameServer                    0x000194bc   Data          20  APEngine.in(.constdata)
    KDefSecondaryNameServer                  0x000194d0   Data          20  APEngine.in(.constdata)
    KWellKnownIp6PrimaryNameServer           0x000194e4   Data          48  APEngine.in(.constdata)
    KWellKnownIp6SecondaryNameServer         0x00019514   Data          48  APEngine.in(.constdata)
    KDefIp6PrimaryNameServer                 0x00019544   Data          36  APEngine.in(.constdata)
    KDefIp6SecondaryNameServer               0x00019568   Data          36  APEngine.in(.constdata)
    KDefIspIfNetworksIPv6                    0x0001958c   Data          12  APEngine.in(.constdata)
    KDefIspIfNetworksIPv4IPv6                0x00019598   Data          20  APEngine.in(.constdata)
    KDefIspIfNetworksIPv4IPv6LAN             0x000195ac   Data          20  APEngine.in(.constdata)
    KApEngineResDriveZ                       0x000195c0   Data          12  APEngine.in(.constdata)
    KApEngineResFileName                     0x000195cc   Data          32  APEngine.in(.constdata)
    KDefProxyProtocolName                    0x000195ec   Data          16  APEngine.in(.constdata)
    KCsdAnalogue                             0x000195fc   Data          16  APEngine.in(.constdata)
    KCsdAnalogueWcdma                        0x0001960c   Data          20  APEngine.in(.constdata)
    KCsdIsdn110                              0x00019620   Data          12  APEngine.in(.constdata)
    KCsdIsdn110Wcdma                         0x0001962c   Data          20  APEngine.in(.constdata)
    KCsdIsdn120                              0x00019640   Data          12  APEngine.in(.constdata)
    KCsdIsdn120Wcdma                         0x0001964c   Data          20  APEngine.in(.constdata)
    KHcsdAnal                                0x00019660   Data          24  APEngine.in(.constdata)
    KHcsdIsdn110                             0x00019678   Data          24  APEngine.in(.constdata)
    KHcsdIsdn120                             0x00019690   Data          24  APEngine.in(.constdata)
    .constdata$1                             0x000196a8   Data           0  APEngine.in(.constdata)
    KCRUidApEngineLV                         0x000196a8   Data           4  APEngine.in(.constdata)
    .constdata                               0x000196a8   Section       84  APEngine.in(.constdata)
    KFormatPostfix                           0x000196ac   Data          24  APEngine.in(.constdata)
    KFormatNoPostfix                         0x000196c4   Data          12  APEngine.in(.constdata)
    KFormatLargePostfix                      0x000196d0   Data          20  APEngine.in(.constdata)
    kApSet@_ZN9ApCommons5PanicE19TApEnginePanicCodes_0 0x000196e4   Data          24  APEngine.in(.constdata)
    .constdata$1                             0x000196fc   Data           0  APEngine.in(.constdata)
    KEmpty                                   0x000196fc   Data           8  APEngine.in(.constdata)
    .constdata                               0x000196fc   Section      112  APEngine.in(.constdata)
    KDC_RESOURCE_FILES_DIR                   0x00019704   Data          28  APEngine.in(.constdata)
    KDynIpAddress                            0x00019720   Data          20  APEngine.in(.constdata)
    KFormat                                  0x00019734   Data          12  APEngine.in(.constdata)
    KApEngineResDriveZ                       0x00019740   Data          12  APEngine.in(.constdata)
    KApEngineResFileName                     0x0001974c   Data          32  APEngine.in(.constdata)
    .constdata$1                             0x0001976c   Data           0  APEngine.in(.constdata)
    KLastSessionTimeout                      0x0001976c   Data           4  APEngine.in(.constdata)
    .constdata                               0x0001976c   Section      152  APEngine.in(.constdata)
    KEmpty                                   0x00019770   Data           8  APEngine.in(.constdata)
    KLocation                                0x00019778   Data          20  APEngine.in(.constdata)
    KVpnVirtualBearerName                    0x0001978c   Data          24  APEngine.in(.constdata)
    KVpnVirtualBearerAgent                   0x000197a4   Data          36  APEngine.in(.constdata)
    KVpnVirtualBearerNif                     0x000197c8   Data          24  APEngine.in(.constdata)
    KDefProxyProtocolName                    0x000197e0   Data          16  APEngine.in(.constdata)
    KDefWapGatewayIpAddress                  0x000197f0   Data          20  APEngine.in(.constdata)
    .constdata__ZTI10CVpnApItem              0x00019804   Section       12  APEngine.in(.constdata__ZTI10CVpnApItem)
    .constdata__ZTI11CActiveApDb             0x00019810   Section       12  APEngine.in(.constdata__ZTI11CActiveApDb)
    .constdata__ZTI11CApListItem             0x0001981c   Section       12  APEngine.in(.constdata__ZTI11CApListItem)
    .constdata__ZTI11CApNetworks             0x00019828   Section       12  APEngine.in(.constdata__ZTI11CApNetworks)
    .constdata__ZTI12CApItemExtra            0x00019834   Section       12  APEngine.in(.constdata__ZTI12CApItemExtra)
    .constdata__ZTI12CVpnApEngine            0x00019840   Section       12  APEngine.in(.constdata__ZTI12CVpnApEngine)
    .constdata__ZTI13CArrayFixFlatI14TVpnPolicyInfoE 0x0001984c   Section       12  APEngine.in(.constdata__ZTI13CArrayFixFlatI14TVpnPolicyInfoE)
    .constdata__ZTI13CArrayFixFlatI8TVpnDataE 0x00019858   Section       12  APEngine.in(.constdata__ZTI13CArrayFixFlatI8TVpnDataE)
    .constdata__ZTI13CArrayFixFlatIA3_mE     0x00019864   Section       12  APEngine.in(.constdata__ZTI13CArrayFixFlatIA3_mE)
    .constdata__ZTI13CArrayFixFlatImE        0x00019870   Section       12  APEngine.in(.constdata__ZTI13CArrayFixFlatImE)
    .constdata__ZTI13CArrayPtrFlatI11CApListItemE 0x0001987c   Section       12  APEngine.in(.constdata__ZTI13CArrayPtrFlatI11CApListItemE)
    .constdata__ZTI13CArrayPtrFlatI14CApNetworkItemE 0x00019888   Section       12  APEngine.in(.constdata__ZTI13CArrayPtrFlatI14CApNetworkItemE)
    .constdata__ZTI13CArrayPtrFlatI19MActiveApDbObserverE 0x00019894   Section       12  APEngine.in(.constdata__ZTI13CArrayPtrFlatI19MActiveApDbObserverE)
    .constdata__ZTI13CArrayPtrFlatI7HBufC16E 0x000198a0   Section       12  APEngine.in(.constdata__ZTI13CArrayPtrFlatI7HBufC16E)
    .constdata__ZTI14CApDataHandler          0x000198ac   Section       12  APEngine.in(.constdata__ZTI14CApDataHandler)
    .constdata__ZTI14CApNetworkItem          0x000198b8   Section       12  APEngine.in(.constdata__ZTI14CApNetworkItem)
    .constdata__ZTI15CApItemCdmaData         0x000198c4   Section       12  APEngine.in(.constdata__ZTI15CApItemCdmaData)
    .constdata__ZTI15CApItemWlanData         0x000198d0   Section       12  APEngine.in(.constdata__ZTI15CApItemWlanData)
    .constdata__ZTI15CApListItemList         0x000198dc   Section       12  APEngine.in(.constdata__ZTI15CApListItemList)
    .constdata__ZTI17TApListItemUidKey       0x000198e8   Section       12  APEngine.in(.constdata__ZTI17TApListItemUidKey)
    .constdata__ZTI18CApAccessPointItem      0x000198f4   Section       12  APEngine.in(.constdata__ZTI18CApAccessPointItem)
    .constdata__ZTI18CApNetworkItemList      0x00019900   Section       12  APEngine.in(.constdata__ZTI18CApNetworkItemList)
    .constdata__ZTI18TApListItemNameKey      0x0001990c   Section       12  APEngine.in(.constdata__ZTI18TApListItemNameKey)
    .constdata__ZTI19CActiveApDbNotifier     0x00019918   Section       12  APEngine.in(.constdata__ZTI19CActiveApDbNotifier)
    .constdata__ZTI8CApUtils                 0x00019924   Section       12  APEngine.in(.constdata__ZTI8CApUtils)
    .constdata__ZTI9CApSelect                0x00019930   Section       12  APEngine.in(.constdata__ZTI9CApSelect)
    .constdata__ZTI9CArrayFixI14TVpnPolicyInfoE 0x0001993c   Section       12  APEngine.in(.constdata__ZTI9CArrayFixI14TVpnPolicyInfoE)
    .constdata__ZTI9CArrayFixI8TVpnDataE     0x00019948   Section       12  APEngine.in(.constdata__ZTI9CArrayFixI8TVpnDataE)
    .constdata__ZTI9CArrayFixIA3_mE          0x00019954   Section       12  APEngine.in(.constdata__ZTI9CArrayFixIA3_mE)
    .constdata__ZTI9CArrayFixIP11CApListItemE 0x00019960   Section       12  APEngine.in(.constdata__ZTI9CArrayFixIP11CApListItemE)
    .constdata__ZTI9CArrayFixIP14CApNetworkItemE 0x0001996c   Section       12  APEngine.in(.constdata__ZTI9CArrayFixIP14CApNetworkItemE)
    .constdata__ZTI9CArrayFixIP19MActiveApDbObserverE 0x00019978   Section       12  APEngine.in(.constdata__ZTI9CArrayFixIP19MActiveApDbObserverE)
    .constdata__ZTI9CArrayFixIP7HBufC16E     0x00019984   Section       12  APEngine.in(.constdata__ZTI9CArrayFixIP7HBufC16E)
    .constdata__ZTI9CArrayFixImE             0x00019990   Section       12  APEngine.in(.constdata__ZTI9CArrayFixImE)
    .constdata__ZTI9CArrayPtrI11CApListItemE 0x0001999c   Section       12  APEngine.in(.constdata__ZTI9CArrayPtrI11CApListItemE)
    .constdata__ZTI9CArrayPtrI14CApNetworkItemE 0x000199a8   Section       12  APEngine.in(.constdata__ZTI9CArrayPtrI14CApNetworkItemE)
    .constdata__ZTI9CArrayPtrI19MActiveApDbObserverE 0x000199b4   Section       12  APEngine.in(.constdata__ZTI9CArrayPtrI19MActiveApDbObserverE)
    .constdata__ZTI9CArrayPtrI7HBufC16E      0x000199c0   Section       12  APEngine.in(.constdata__ZTI9CArrayPtrI7HBufC16E)
    .constdata__ZTS10CVpnApItem              0x000199cc   Section       13  APEngine.in(.constdata__ZTS10CVpnApItem)
    .constdata__ZTS11CActiveApDb             0x000199d9   Section       14  APEngine.in(.constdata__ZTS11CActiveApDb)
    .constdata__ZTS11CApListItem             0x000199e7   Section       14  APEngine.in(.constdata__ZTS11CApListItem)
    .constdata__ZTS11CApNetworks             0x000199f5   Section       14  APEngine.in(.constdata__ZTS11CApNetworks)
    .constdata__ZTS12CApItemExtra            0x00019a03   Section       15  APEngine.in(.constdata__ZTS12CApItemExtra)
    .constdata__ZTS12CVpnApEngine            0x00019a12   Section       15  APEngine.in(.constdata__ZTS12CVpnApEngine)
    .constdata__ZTS13CArrayFixFlatI14TVpnPolicyInfoE 0x00019a21   Section       34  APEngine.in(.constdata__ZTS13CArrayFixFlatI14TVpnPolicyInfoE)
    .constdata__ZTS13CArrayFixFlatI8TVpnDataE 0x00019a43   Section       27  APEngine.in(.constdata__ZTS13CArrayFixFlatI8TVpnDataE)
    .constdata__ZTS13CArrayFixFlatIA3_mE     0x00019a5e   Section       22  APEngine.in(.constdata__ZTS13CArrayFixFlatIA3_mE)
    .constdata__ZTS13CArrayFixFlatImE        0x00019a74   Section       19  APEngine.in(.constdata__ZTS13CArrayFixFlatImE)
    .constdata__ZTS13CArrayPtrFlatI11CApListItemE 0x00019a87   Section       31  APEngine.in(.constdata__ZTS13CArrayPtrFlatI11CApListItemE)
    .constdata__ZTS13CArrayPtrFlatI14CApNetworkItemE 0x00019aa6   Section       34  APEngine.in(.constdata__ZTS13CArrayPtrFlatI14CApNetworkItemE)
    .constdata__ZTS13CArrayPtrFlatI19MActiveApDbObserverE 0x00019ac8   Section       39  APEngine.in(.constdata__ZTS13CArrayPtrFlatI19MActiveApDbObserverE)
    .constdata__ZTS13CArrayPtrFlatI7HBufC16E 0x00019aef   Section       26  APEngine.in(.constdata__ZTS13CArrayPtrFlatI7HBufC16E)
    .constdata__ZTS14CApDataHandler          0x00019b09   Section       17  APEngine.in(.constdata__ZTS14CApDataHandler)
    .constdata__ZTS14CApNetworkItem          0x00019b1a   Section       17  APEngine.in(.constdata__ZTS14CApNetworkItem)
    .constdata__ZTS15CApItemCdmaData         0x00019b2b   Section       18  APEngine.in(.constdata__ZTS15CApItemCdmaData)
    .constdata__ZTS15CApItemWlanData         0x00019b3d   Section       18  APEngine.in(.constdata__ZTS15CApItemWlanData)
    .constdata__ZTS15CApListItemList         0x00019b4f   Section       18  APEngine.in(.constdata__ZTS15CApListItemList)
    .constdata__ZTS17TApListItemUidKey       0x00019b61   Section       20  APEngine.in(.constdata__ZTS17TApListItemUidKey)
    .constdata__ZTS18CApAccessPointItem      0x00019b75   Section       21  APEngine.in(.constdata__ZTS18CApAccessPointItem)
    .constdata__ZTS18CApNetworkItemList      0x00019b8a   Section       21  APEngine.in(.constdata__ZTS18CApNetworkItemList)
    .constdata__ZTS18TApListItemNameKey      0x00019b9f   Section       21  APEngine.in(.constdata__ZTS18TApListItemNameKey)
    .constdata__ZTS19CActiveApDbNotifier     0x00019bb4   Section       22  APEngine.in(.constdata__ZTS19CActiveApDbNotifier)
    .constdata__ZTS8CApUtils                 0x00019bca   Section       10  APEngine.in(.constdata__ZTS8CApUtils)
    .constdata__ZTS9CApSelect                0x00019bd4   Section       11  APEngine.in(.constdata__ZTS9CApSelect)
    .constdata__ZTS9CArrayFixI14TVpnPolicyInfoE 0x00019bdf   Section       29  APEngine.in(.constdata__ZTS9CArrayFixI14TVpnPolicyInfoE)
    .constdata__ZTS9CArrayFixI8TVpnDataE     0x00019bfc   Section       22  APEngine.in(.constdata__ZTS9CArrayFixI8TVpnDataE)
    .constdata__ZTS9CArrayFixIA3_mE          0x00019c12   Section       17  APEngine.in(.constdata__ZTS9CArrayFixIA3_mE)
    .constdata__ZTS9CArrayFixIP11CApListItemE 0x00019c23   Section       27  APEngine.in(.constdata__ZTS9CArrayFixIP11CApListItemE)
    .constdata__ZTS9CArrayFixIP14CApNetworkItemE 0x00019c3e   Section       30  APEngine.in(.constdata__ZTS9CArrayFixIP14CApNetworkItemE)
    .constdata__ZTS9CArrayFixIP19MActiveApDbObserverE 0x00019c5c   Section       35  APEngine.in(.constdata__ZTS9CArrayFixIP19MActiveApDbObserverE)
    .constdata__ZTS9CArrayFixIP7HBufC16E     0x00019c7f   Section       22  APEngine.in(.constdata__ZTS9CArrayFixIP7HBufC16E)
    .constdata__ZTS9CArrayFixImE             0x00019c95   Section       14  APEngine.in(.constdata__ZTS9CArrayFixImE)
    .constdata__ZTS9CArrayPtrI11CApListItemE 0x00019ca3   Section       26  APEngine.in(.constdata__ZTS9CArrayPtrI11CApListItemE)
    .constdata__ZTS9CArrayPtrI14CApNetworkItemE 0x00019cbd   Section       29  APEngine.in(.constdata__ZTS9CArrayPtrI14CApNetworkItemE)
    .constdata__ZTS9CArrayPtrI19MActiveApDbObserverE 0x00019cda   Section       34  APEngine.in(.constdata__ZTS9CArrayPtrI19MActiveApDbObserverE)
    .constdata__ZTS9CArrayPtrI7HBufC16E      0x00019cfc   Section       21  APEngine.in(.constdata__ZTS9CArrayPtrI7HBufC16E)
    .constdata__ZTV10CVpnApItem              0x00019d14   Section       20  APEngine.in(.constdata__ZTV10CVpnApItem)
    .constdata__ZTV11CActiveApDb             0x00019d28   Section       20  APEngine.in(.constdata__ZTV11CActiveApDb)
    .constdata__ZTV11CApListItem             0x00019d3c   Section       20  APEngine.in(.constdata__ZTV11CApListItem)
    .constdata__ZTV11CApNetworks             0x00019d50   Section       20  APEngine.in(.constdata__ZTV11CApNetworks)
    .constdata__ZTV12CApItemExtra            0x00019d64   Section       20  APEngine.in(.constdata__ZTV12CApItemExtra)
    .constdata__ZTV12CVpnApEngine            0x00019d78   Section       20  APEngine.in(.constdata__ZTV12CVpnApEngine)
    .constdata__ZTV13CArrayFixFlatI14TVpnPolicyInfoE 0x00019d8c   Section       20  APEngine.in(.constdata__ZTV13CArrayFixFlatI14TVpnPolicyInfoE)
    .constdata__ZTV13CArrayFixFlatI8TVpnDataE 0x00019da0   Section       20  APEngine.in(.constdata__ZTV13CArrayFixFlatI8TVpnDataE)
    .constdata__ZTV13CArrayFixFlatIA3_mE     0x00019db4   Section       20  APEngine.in(.constdata__ZTV13CArrayFixFlatIA3_mE)
    .constdata__ZTV13CArrayFixFlatImE        0x00019dc8   Section       20  APEngine.in(.constdata__ZTV13CArrayFixFlatImE)
    .constdata__ZTV13CArrayPtrFlatI19MActiveApDbObserverE 0x00019ddc   Section       20  APEngine.in(.constdata__ZTV13CArrayPtrFlatI19MActiveApDbObserverE)
    .constdata__ZTV13CArrayPtrFlatI7HBufC16E 0x00019df0   Section       20  APEngine.in(.constdata__ZTV13CArrayPtrFlatI7HBufC16E)
    .constdata__ZTV14CApDataHandler          0x00019e04   Section       20  APEngine.in(.constdata__ZTV14CApDataHandler)
    .constdata__ZTV14CApNetworkItem          0x00019e18   Section       20  APEngine.in(.constdata__ZTV14CApNetworkItem)
    .constdata__ZTV15CApItemCdmaData         0x00019e2c   Section       20  APEngine.in(.constdata__ZTV15CApItemCdmaData)
    .constdata__ZTV15CApItemWlanData         0x00019e40   Section       20  APEngine.in(.constdata__ZTV15CApItemWlanData)
    .constdata__ZTV15CApListItemList         0x00019e54   Section       20  APEngine.in(.constdata__ZTV15CApListItemList)
    .constdata__ZTV17TApListItemUidKey       0x00019e68   Section       20  APEngine.in(.constdata__ZTV17TApListItemUidKey)
    .constdata__ZTV18CApAccessPointItem      0x00019e7c   Section       20  APEngine.in(.constdata__ZTV18CApAccessPointItem)
    .constdata__ZTV18CApNetworkItemList      0x00019e90   Section       20  APEngine.in(.constdata__ZTV18CApNetworkItemList)
    .constdata__ZTV18TApListItemNameKey      0x00019ea4   Section       20  APEngine.in(.constdata__ZTV18TApListItemNameKey)
    .constdata__ZTV19CActiveApDbNotifier     0x00019eb8   Section       32  APEngine.in(.constdata__ZTV19CActiveApDbNotifier)
    .constdata__ZTV8CApUtils                 0x00019ed8   Section       20  APEngine.in(.constdata__ZTV8CApUtils)
    .constdata__ZTV9CApSelect                0x00019eec   Section       20  APEngine.in(.constdata__ZTV9CApSelect)
    .ARM.exidx                               0x00019f00   Section        8  ucppinit_aeabi.o(.ARM.exidx)

    Global Symbols

    Symbol Name                              Value     Ov Type        Size  Object(Section)

    BuildAttributes$$THUMB_ISAv2$ARM_ISAv5$M$PE$A:L22$X:L11$S22$IEEE1$IW$USESV6$~STKCKD$USESV7$~SHL$OSPACE$IEEEJ$EBA8$UX$REQ8$PRES8$EABIv2 0x00000000   Number         0  anon$$obj.o ABSOLUTE
    #<DLL>FeatMgr{000a0000}[10005a2b].dll#<\DLL>1  - Undefined Reference
    #<DLL>FeatMgr{000a0000}[10005a2b].dll#<\DLL>2  - Undefined Reference
    #<DLL>FeatMgr{000a0000}[10005a2b].dll#<\DLL>3  - Undefined Reference
    #<DLL>WEPSecuritySettingsUI{000a0000}.dll#<\DLL>1  - Undefined Reference
    #<DLL>WEPSecuritySettingsUI{000a0000}.dll#<\DLL>3  - Undefined Reference
    #<DLL>WEPSecuritySettingsUI{000a0000}.dll#<\DLL>c  - Undefined Reference
    #<DLL>WPASecuritySettingsUI{000a0000}.dll#<\DLL>1  - Undefined Reference
    #<DLL>WPASecuritySettingsUI{000a0000}.dll#<\DLL>3  - Undefined Reference
    #<DLL>WPASecuritySettingsUI{000a0000}.dll#<\DLL>c  - Undefined Reference
    #<DLL>WPASecuritySettingsUI{000a0000}.dll#<\DLL>d  - Undefined Reference
    #<DLL>bafl{000a0000}[10003a0f].dll#<\DLL>114  - Undefined Reference
    #<DLL>bafl{000a0000}[10003a0f].dll#<\DLL>144  - Undefined Reference
    #<DLL>bafl{000a0000}[10003a0f].dll#<\DLL>42  - Undefined Reference
    #<DLL>bafl{000a0000}[10003a0f].dll#<\DLL>44  - Undefined Reference
    #<DLL>bafl{000a0000}[10003a0f].dll#<\DLL>45  - Undefined Reference
    #<DLL>bafl{000a0000}[10003a0f].dll#<\DLL>47  - Undefined Reference
    #<DLL>centralrepository{000a0000}[101fbc70].dll#<\DLL>9  - Undefined Reference
    #<DLL>centralrepository{000a0000}[101fbc70].dll#<\DLL>e  - Undefined Reference
    #<DLL>commdb{000a0000}[10004e1c].dll#<\DLL>12  - Undefined Reference
    #<DLL>commdb{000a0000}[10004e1c].dll#<\DLL>13  - Undefined Reference
    #<DLL>commdb{000a0000}[10004e1c].dll#<\DLL>15  - Undefined Reference
    #<DLL>commdb{000a0000}[10004e1c].dll#<\DLL>16  - Undefined Reference
    #<DLL>commdb{000a0000}[10004e1c].dll#<\DLL>1f  - Undefined Reference
    #<DLL>commdb{000a0000}[10004e1c].dll#<\DLL>22  - Undefined Reference
    #<DLL>commdb{000a0000}[10004e1c].dll#<\DLL>24  - Undefined Reference
    #<DLL>commdb{000a0000}[10004e1c].dll#<\DLL>25  - Undefined Reference
    #<DLL>commdb{000a0000}[10004e1c].dll#<\DLL>26  - Undefined Reference
    #<DLL>commdb{000a0000}[10004e1c].dll#<\DLL>28  - Undefined Reference
    #<DLL>commdb{000a0000}[10004e1c].dll#<\DLL>2a  - Undefined Reference
    #<DLL>commdb{000a0000}[10004e1c].dll#<\DLL>2c  - Undefined Reference
    #<DLL>commdb{000a0000}[10004e1c].dll#<\DLL>2d  - Undefined Reference
    #<DLL>commdb{000a0000}[10004e1c].dll#<\DLL>32  - Undefined Reference
    #<DLL>commdb{000a0000}[10004e1c].dll#<\DLL>34  - Undefined Reference
    #<DLL>commdb{000a0000}[10004e1c].dll#<\DLL>38  - Undefined Reference
    #<DLL>commdb{000a0000}[10004e1c].dll#<\DLL>3d  - Undefined Reference
    #<DLL>commdb{000a0000}[10004e1c].dll#<\DLL>4  - Undefined Reference
    #<DLL>commdb{000a0000}[10004e1c].dll#<\DLL>45  - Undefined Reference
    #<DLL>commdb{000a0000}[10004e1c].dll#<\DLL>47  - Undefined Reference
    #<DLL>commdb{000a0000}[10004e1c].dll#<\DLL>49  - Undefined Reference
    #<DLL>commdb{000a0000}[10004e1c].dll#<\DLL>4b  - Undefined Reference
    #<DLL>commdb{000a0000}[10004e1c].dll#<\DLL>4c  - Undefined Reference
    #<DLL>commdb{000a0000}[10004e1c].dll#<\DLL>4f  - Undefined Reference
    #<DLL>commdb{000a0000}[10004e1c].dll#<\DLL>5  - Undefined Reference
    #<DLL>commdb{000a0000}[10004e1c].dll#<\DLL>57  - Undefined Reference
    #<DLL>commdb{000a0000}[10004e1c].dll#<\DLL>5e  - Undefined Reference
    #<DLL>commdb{000a0000}[10004e1c].dll#<\DLL>6  - Undefined Reference
    #<DLL>commdb{000a0000}[10004e1c].dll#<\DLL>63  - Undefined Reference
    #<DLL>commdb{000a0000}[10004e1c].dll#<\DLL>66  - Undefined Reference
    #<DLL>commdb{000a0000}[10004e1c].dll#<\DLL>69  - Undefined Reference
    #<DLL>commdb{000a0000}[10004e1c].dll#<\DLL>6b  - Undefined Reference
    #<DLL>commdb{000a0000}[10004e1c].dll#<\DLL>6d  - Undefined Reference
    #<DLL>commdb{000a0000}[10004e1c].dll#<\DLL>74  - Undefined Reference
    #<DLL>commdb{000a0000}[10004e1c].dll#<\DLL>7b  - Undefined Reference
    #<DLL>commdb{000a0000}[10004e1c].dll#<\DLL>84  - Undefined Reference
    #<DLL>commdb{000a0000}[10004e1c].dll#<\DLL>85  - Undefined Reference
    #<DLL>commdb{000a0000}[10004e1c].dll#<\DLL>86  - Undefined Reference
    #<DLL>commdb{000a0000}[10004e1c].dll#<\DLL>87  - Undefined Reference
    #<DLL>commdb{000a0000}[10004e1c].dll#<\DLL>88  - Undefined Reference
    #<DLL>commdb{000a0000}[10004e1c].dll#<\DLL>89  - Undefined Reference
    #<DLL>commdb{000a0000}[10004e1c].dll#<\DLL>8c  - Undefined Reference
    #<DLL>commdb{000a0000}[10004e1c].dll#<\DLL>8e  - Undefined Reference
    #<DLL>commdb{000a0000}[10004e1c].dll#<\DLL>90  - Undefined Reference
    #<DLL>commdb{000a0000}[10004e1c].dll#<\DLL>99  - Undefined Reference
    #<DLL>commdb{000a0000}[10004e1c].dll#<\DLL>9b  - Undefined Reference
    #<DLL>commdb{000a0000}[10004e1c].dll#<\DLL>d  - Undefined Reference
    #<DLL>drtaeabi{000a0000}.dll#<\DLL>87     - Undefined Reference
    #<DLL>drtaeabi{000a0000}.dll#<\DLL>90     - Undefined Reference
    #<DLL>drtaeabi{000a0000}.dll#<\DLL>9e     - Undefined Reference
    #<DLL>drtaeabi{000a0000}.dll#<\DLL>9f     - Undefined Reference
    #<DLL>drtaeabi{000a0000}.dll#<\DLL>b4     - Undefined Reference
    #<DLL>drtaeabi{000a0000}.dll#<\DLL>b7     - Undefined Reference
    #<DLL>drtaeabi{000a0000}.dll#<\DLL>b8     - Undefined Reference
    #<DLL>drtrvct2_2{000a0000}.dll#<\DLL>1c   - Undefined Reference
    #<DLL>efsrv{000a0000}[100039e4].dll#<\DLL>44  - Undefined Reference
    #<DLL>esock{000a0000}[10003d3f].dll#<\DLL>29  - Undefined Reference
    #<DLL>esock{000a0000}[10003d3f].dll#<\DLL>2e  - Undefined Reference
    #<DLL>esock{000a0000}[10003d3f].dll#<\DLL>3b  - Undefined Reference
    #<DLL>esock{000a0000}[10003d3f].dll#<\DLL>3e  - Undefined Reference
    #<DLL>esock{000a0000}[10003d3f].dll#<\DLL>51  - Undefined Reference
    #<DLL>esock{000a0000}[10003d3f].dll#<\DLL>52  - Undefined Reference
    #<DLL>esock{000a0000}[10003d3f].dll#<\DLL>6  - Undefined Reference
    #<DLL>esock{000a0000}[10003d3f].dll#<\DLL>9  - Undefined Reference
    #<DLL>euser{000a0000}[100039e5].dll#<\DLL>101  - Undefined Reference
    #<DLL>euser{000a0000}[100039e5].dll#<\DLL>108  - Undefined Reference
    #<DLL>euser{000a0000}[100039e5].dll#<\DLL>1a8  - Undefined Reference
    #<DLL>euser{000a0000}[100039e5].dll#<\DLL>251  - Undefined Reference
    #<DLL>euser{000a0000}[100039e5].dll#<\DLL>285  - Undefined Reference
    #<DLL>euser{000a0000}[100039e5].dll#<\DLL>289  - Undefined Reference
    #<DLL>euser{000a0000}[100039e5].dll#<\DLL>28a  - Undefined Reference
    #<DLL>euser{000a0000}[100039e5].dll#<\DLL>28b  - Undefined Reference
    #<DLL>euser{000a0000}[100039e5].dll#<\DLL>28e  - Undefined Reference
    #<DLL>euser{000a0000}[100039e5].dll#<\DLL>29d  - Undefined Reference
    #<DLL>euser{000a0000}[100039e5].dll#<\DLL>2f6  - Undefined Reference
    #<DLL>euser{000a0000}[100039e5].dll#<\DLL>2ff  - Undefined Reference
    #<DLL>euser{000a0000}[100039e5].dll#<\DLL>30e  - Undefined Reference
    #<DLL>euser{000a0000}[100039e5].dll#<\DLL>37b  - Undefined Reference
    #<DLL>euser{000a0000}[100039e5].dll#<\DLL>37d  - Undefined Reference
    #<DLL>euser{000a0000}[100039e5].dll#<\DLL>37e  - Undefined Reference
    #<DLL>euser{000a0000}[100039e5].dll#<\DLL>3b9  - Undefined Reference
    #<DLL>euser{000a0000}[100039e5].dll#<\DLL>3bf  - Undefined Reference
    #<DLL>euser{000a0000}[100039e5].dll#<\DLL>3c6  - Undefined Reference
    #<DLL>euser{000a0000}[100039e5].dll#<\DLL>3c8  - Undefined Reference
    #<DLL>euser{000a0000}[100039e5].dll#<\DLL>3cd  - Undefined Reference
    #<DLL>euser{000a0000}[100039e5].dll#<\DLL>3dc  - Undefined Reference
    #<DLL>euser{000a0000}[100039e5].dll#<\DLL>3f2  - Undefined Reference
    #<DLL>euser{000a0000}[100039e5].dll#<\DLL>3f8  - Undefined Reference
    #<DLL>euser{000a0000}[100039e5].dll#<\DLL>440  - Undefined Reference
    #<DLL>euser{000a0000}[100039e5].dll#<\DLL>441  - Undefined Reference
    #<DLL>euser{000a0000}[100039e5].dll#<\DLL>442  - Undefined Reference
    #<DLL>euser{000a0000}[100039e5].dll#<\DLL>443  - Undefined Reference
    #<DLL>euser{000a0000}[100039e5].dll#<\DLL>446  - Undefined Reference
    #<DLL>euser{000a0000}[100039e5].dll#<\DLL>45c  - Undefined Reference
    #<DLL>euser{000a0000}[100039e5].dll#<\DLL>45e  - Undefined Reference
    #<DLL>euser{000a0000}[100039e5].dll#<\DLL>45f  - Undefined Reference
    #<DLL>euser{000a0000}[100039e5].dll#<\DLL>466  - Undefined Reference
    #<DLL>euser{000a0000}[100039e5].dll#<\DLL>491  - Undefined Reference
    #<DLL>euser{000a0000}[100039e5].dll#<\DLL>492  - Undefined Reference
    #<DLL>euser{000a0000}[100039e5].dll#<\DLL>493  - Undefined Reference
    #<DLL>euser{000a0000}[100039e5].dll#<\DLL>4e5  - Undefined Reference
    #<DLL>euser{000a0000}[100039e5].dll#<\DLL>50  - Undefined Reference
    #<DLL>euser{000a0000}[100039e5].dll#<\DLL>51  - Undefined Reference
    #<DLL>euser{000a0000}[100039e5].dll#<\DLL>5bd  - Undefined Reference
    #<DLL>euser{000a0000}[100039e5].dll#<\DLL>611  - Undefined Reference
    #<DLL>euser{000a0000}[100039e5].dll#<\DLL>6b6  - Undefined Reference
    #<DLL>euser{000a0000}[100039e5].dll#<\DLL>6b7  - Undefined Reference
    #<DLL>euser{000a0000}[100039e5].dll#<\DLL>6c5  - Undefined Reference
    #<DLL>euser{000a0000}[100039e5].dll#<\DLL>70b  - Undefined Reference
    #<DLL>euser{000a0000}[100039e5].dll#<\DLL>70e  - Undefined Reference
    #<DLL>euser{000a0000}[100039e5].dll#<\DLL>717  - Undefined Reference
    #<DLL>euser{000a0000}[100039e5].dll#<\DLL>719  - Undefined Reference
    #<DLL>euser{000a0000}[100039e5].dll#<\DLL>71a  - Undefined Reference
    #<DLL>euser{000a0000}[100039e5].dll#<\DLL>71d  - Undefined Reference
    #<DLL>euser{000a0000}[100039e5].dll#<\DLL>71e  - Undefined Reference
    #<DLL>euser{000a0000}[100039e5].dll#<\DLL>720  - Undefined Reference
    #<DLL>euser{000a0000}[100039e5].dll#<\DLL>78  - Undefined Reference
    #<DLL>euser{000a0000}[100039e5].dll#<\DLL>80c  - Undefined Reference
    #<DLL>euser{000a0000}[100039e5].dll#<\DLL>80d  - Undefined Reference
    #<DLL>euser{000a0000}[100039e5].dll#<\DLL>822  - Undefined Reference
    #<DLL>euser{000a0000}[100039e5].dll#<\DLL>839  - Undefined Reference
    #<DLL>euser{000a0000}[100039e5].dll#<\DLL>83a  - Undefined Reference
    #<DLL>euser{000a0000}[100039e5].dll#<\DLL>83b  - Undefined Reference
    #<DLL>euser{000a0000}[100039e5].dll#<\DLL>84b  - Undefined Reference
    #<DLL>euser{000a0000}[100039e5].dll#<\DLL>84d  - Undefined Reference
    #<DLL>euser{000a0000}[100039e5].dll#<\DLL>850  - Undefined Reference
    #<DLL>euser{000a0000}[100039e5].dll#<\DLL>ca  - Undefined Reference
    #<DLL>euser{000a0000}[100039e5].dll#<\DLL>cb  - Undefined Reference
    #<DLL>euser{000a0000}[100039e5].dll#<\DLL>cc  - Undefined Reference
    #<DLL>euser{000a0000}[100039e5].dll#<\DLL>cd  - Undefined Reference
    #<DLL>euser{000a0000}[100039e5].dll#<\DLL>cf  - Undefined Reference
    #<DLL>euser{000a0000}[100039e5].dll#<\DLL>d0  - Undefined Reference
    #<DLL>euser{000a0000}[100039e5].dll#<\DLL>d1  - Undefined Reference
    #<DLL>euser{000a0000}[100039e5].dll#<\DLL>d9  - Undefined Reference
    #<DLL>euser{000a0000}[100039e5].dll#<\DLL>da  - Undefined Reference
    #<DLL>euser{000a0000}[100039e5].dll#<\DLL>f4  - Undefined Reference
    #<DLL>euser{000a0000}[100039e5].dll#<\DLL>f5  - Undefined Reference
    #<DLL>euser{000a0000}[100039e5].dll#<\DLL>f7  - Undefined Reference
    #<DLL>euser{000a0000}[100039e5].dll#<\DLL>fa  - Undefined Reference
    #<DLL>euser{000a0000}[100039e5].dll#<\DLL>fe  - Undefined Reference
    #<DLL>insock{000a0000}[10003d44].dll#<\DLL>3  - Undefined Reference
    #<DLL>insock{000a0000}[10003d44].dll#<\DLL>9  - Undefined Reference
    #<DLL>insock{000a0000}[10003d44].dll#<\DLL>d  - Undefined Reference
    #<DLL>scppnwdl{000a0000}.dll#<\DLL>3      - Undefined Reference
    #<DLL>vpnapi{000a0000}[101fd285].dll#<\DLL>7  - Undefined Reference
    #<DLL>vpnapi{000a0000}[101fd285].dll#<\DLL>8  - Undefined Reference
    #<DLL>vpnapi{000a0000}[101fd285].dll#<\DLL>9  - Undefined Reference
    #<DLL>vpnapi{000a0000}[101fd285].dll#<\DLL>a  - Undefined Reference
    #<DLL>vpnapi{000a0000}[101fd285].dll#<\DLL>b  - Undefined Reference
    #<DLL>vpnapi{000a0000}[101fd285].dll#<\DLL>c  - Undefined Reference
    SHT$$INIT_ARRAY$$Base                     - Undefined Weak Reference
    SHT$$INIT_ARRAY$$Limit                    - Undefined Weak Reference
    typeinfo for TKeyArrayFix                 - Undefined Reference
    typeinfo for CArrayFixBase                - Undefined Reference
    typeinfo for XLeaveException              - Undefined Reference
    typeinfo for CBase                        - Undefined Reference
    typeinfo for CActive                      - Undefined Reference
    vtable for __cxxabiv1::__si_class_type_info  - Undefined Reference
    _fp_init                                  - Undefined Weak Reference
    run_static_dtors                          - Undefined Weak Reference
    Image$$ER_RO$$Base                       0x00008000   Number         0  anon$$obj.o(linker$$defined$$symbols)
    _E32Dll                                  0x00008000   ARM Code      40  uc_dll_.o(.emb_text)
    Symbian$$CPP$$Exception$$Descriptor      0x00008014   Data           0  uc_dll_.o(.emb_text)
    __cpp_initialize__aeabi_                 0x00008028   ARM Code      72  ucppinit_aeabi.o(.emb_text)
    CApListItem::CreateExtraL()              0x00008071   Thumb Code    28  APEngine.in(.text)
    std::nothrow                             0x00008071   Thumb Code     0  ucppinit_aeabi.o(.emb_text)
    CApListItem::ConstructL()                0x0000808d   Thumb Code    28  APEngine.in(.text)
    CApListItem::CApListItem()               0x000080a9   Thumb Code    16  APEngine.in(.text)
    CApListItem::CApListItem__sub_object()   0x000080a9   Thumb Code     0  APEngine.in(.text)
    CApListItem::NewLC()                     0x000080b9   Thumb Code    28  APEngine.in(.text)
    CApListItem::SetItemL(TCommsDbIspType, unsigned long, const TDesC16&, TApBearerType, const TDesC16&) 0x000080d5   Thumb Code    54  APEngine.in(.text)
    CApListItem::SetItemL(TCommsDbIspType, unsigned long, const TDesC16&, TApBearerType) 0x0000810b   Thumb Code    24  APEngine.in(.text)
    CApListItem::ConstructL(TCommsDbIspType, unsigned long, const TDesC16&, TApBearerType) 0x00008123   Thumb Code    34  APEngine.in(.text)
    CApListItem::NewLC(TCommsDbIspType, unsigned long, const TDesC16&, TApBearerType) 0x00008145   Thumb Code    44  APEngine.in(.text)
    CApListItem::ConstructL(TCommsDbIspType, unsigned long, const TDesC16&, TApBearerType, const TDesC16&) 0x00008171   Thumb Code    38  APEngine.in(.text)
    CApListItem::NewLC(TCommsDbIspType, unsigned long, const TDesC16&, TApBearerType, const TDesC16&, int) 0x00008197   Thumb Code    52  APEngine.in(.text)
    CApListItem::IsReadOnly() const          0x000081cb   Thumb Code     6  APEngine.in(.text)
    CApListItem::NewLC(CApListItem*)         0x000081d1   Thumb Code    50  APEngine.in(.text)
    CApListItem::~CApListItem()              0x00008203   Thumb Code    38  APEngine.in(.text)
    CApListItem::~CApListItem__sub_object()  0x00008203   Thumb Code     0  APEngine.in(.text)
    CApListItem::~CApListItem__deallocating() 0x00008229   Thumb Code    16  APEngine.in(.text)
    CApListItem::CopyFromL(const CApListItem&) 0x00008239   Thumb Code    60  APEngine.in(.text)
    CApListItem::Name()                      0x00008275   Thumb Code     4  APEngine.in(.text)
    CApListItem::Uid()                       0x00008279   Thumb Code     4  APEngine.in(.text)
    CApListItem::Type()                      0x0000827d   Thumb Code     4  APEngine.in(.text)
    CApListItem::BearerType()                0x00008281   Thumb Code     4  APEngine.in(.text)
    CApListItem::StartPage() const           0x00008285   Thumb Code     4  APEngine.in(.text)
    CApListItem::IsVpnAp() const             0x00008289   Thumb Code     6  APEngine.in(.text)
    CApListItem::SetVpnFlag(int)             0x0000828f   Thumb Code     6  APEngine.in(.text)
    CApSelect::SortUidL(int)                 0x0000829d   Thumb Code    36  APEngine.in(.text)
    CApSelect::SortLocalisedNameL(int)       0x000082c1   Thumb Code    34  APEngine.in(.text)
    CApSelect::PosInArray(CArrayFixFlat<unsigned long>*, unsigned long) 0x000082e3   Thumb Code    52  APEngine.in(.text)
    CApSelect::GetTextValuesL(CCommsDbTableView*, const TDesC16&, CArrayPtrFlat<HBufC16>&) 0x00008317   Thumb Code   148  APEngine.in(.text)
    CApSelect::GetUintValuesL(CCommsDbTableView*, const TDesC16&, CArrayFixFlat<unsigned long>&) 0x000083ab   Thumb Code   160  APEngine.in(.text)
    CApSelect::AddLanL(int)                  0x0000844b   Thumb Code  1074  APEngine.in(.text)
    CApSelect::GetItemPos(CApListItemList*, unsigned long) 0x0000887d   Thumb Code    56  APEngine.in(.text)
    CApSelect::IsInArray(CArrayFixFlat<unsigned long>*, unsigned long) 0x000088b5   Thumb Code    12  APEngine.in(.text)
    CApSelect::GetIapPos(CArrayFixFlat<unsigned long[3]>*, unsigned long) 0x000088c1   Thumb Code    52  APEngine.in(.text)
    CApSelect::GetVpnValuesL(CCommsDbTableView*, CArrayFixFlat<TVpnData>*) 0x000088f5   Thumb Code   158  APEngine.in(.text)
    CApSelect::GetVpnTableViewLC()           0x00008993   Thumb Code    22  APEngine.in(.text)
    CApSelect::OpenViewMatchingTextL(const TDesC16&, const TDesC16&, const TDesC16&) 0x000089a9   Thumb Code    84  APEngine.in(.text)
    CApSelect::GetIspValuesL(CCommsDbTableView*, CArrayFixFlat<unsigned long[3]>*, const TDesC16&) 0x000089fd   Thumb Code   220  APEngine.in(.text)
    CApSelect::GetProtValuesL(CCommsDbTableView*, CArrayFixFlat<unsigned long>&) 0x00008ad9   Thumb Code    80  APEngine.in(.text)
    CApSelect::GetLongTextValuesL(CCommsDbTableView*, const TDesC16&, CArrayPtrFlat<HBufC16>&) 0x00008b29   Thumb Code   200  APEngine.in(.text)
    CApSelect::GetFilteredSortedCdmaTableViewLC() 0x00008bf1   Thumb Code   282  APEngine.in(.text)
    CApSelect::GetFilteredSortedGprsTableViewLC(int) 0x00008d0b   Thumb Code   290  APEngine.in(.text)
    CApSelect::GetFilteredSortedIspOutTableViewLC() 0x00008e2d   Thumb Code   226  APEngine.in(.text)
    CApSelect::GetFilteredSortedIpBearerTableViewLC() 0x00008f0f   Thumb Code   422  APEngine.in(.text)
    CApSelect::GetFilteredSortedWapTableViewLC() 0x000090b5   Thumb Code   200  APEngine.in(.text)
    CApSelect::DoUpdateL()                   0x0000917d   Thumb Code  2620  APEngine.in(.text)
    CApSelect::GetSupportedBearerSet(int)    0x00009bb9   Thumb Code    50  APEngine.in(.text)
    CApSelect::SetFiltersL(int, int, int, int, int) 0x00009beb   Thumb Code   164  APEngine.in(.text)
    CApSelect::ConstructL(CCommsDatabase&, int, int, int, int, TVpnFilterType, int) 0x00009c8f   Thumb Code   134  APEngine.in(.text)
    CApSelect::ConstructL(CCommsDatabase&, int, int, int, int, TVpnFilterType) 0x00009d15   Thumb Code    40  APEngine.in(.text)
    CApSelect::CApSelect()                   0x00009d3d   Thumb Code    12  APEngine.in(.text)
    CApSelect::CApSelect__sub_object()       0x00009d3d   Thumb Code     0  APEngine.in(.text)
    CApSelect::NewLC(CCommsDatabase&, int, int, int, int) 0x00009d49   Thumb Code    50  APEngine.in(.text)
    CApSelect::NewLC(CCommsDatabase&, int, int, int) 0x00009d7b   Thumb Code    16  APEngine.in(.text)
    CApSelect::NewLC(CCommsDatabase&, int, int, int, int, TVpnFilterType) 0x00009d8b   Thumb Code    48  APEngine.in(.text)
    CApSelect::NewLC(CCommsDatabase&, int, int, int, int, TVpnFilterType, int) 0x00009dbb   Thumb Code    54  APEngine.in(.text)
    CApSelect::~CApSelect()                  0x00009df1   Thumb Code    60  APEngine.in(.text)
    CApSelect::~CApSelect__sub_object()      0x00009df1   Thumb Code     0  APEngine.in(.text)
    CApSelect::~CApSelect__deallocating()    0x00009e2d   Thumb Code    16  APEngine.in(.text)
    CApSelect::ConstructL(CCommsDatabase&, int, int, int) 0x00009e3d   Thumb Code    30  APEngine.in(.text)
    CApSelect::ConstructL(CCommsDatabase&, int, int, int, int) 0x00009e5b   Thumb Code    30  APEngine.in(.text)
    CApSelect::SetFiltersL(int, int, int)    0x00009e79   Thumb Code    26  APEngine.in(.text)
    CApSelect::IspTypeFilter()               0x00009e93   Thumb Code     4  APEngine.in(.text)
    CApSelect::BearerFilter()                0x00009e97   Thumb Code     4  APEngine.in(.text)
    CApSelect::SortOrder()                   0x00009e9b   Thumb Code     4  APEngine.in(.text)
    CApSelect::MoveToFirst()                 0x00009e9f   Thumb Code    14  APEngine.in(.text)
    CApSelect::MoveNext()                    0x00009ead   Thumb Code    22  APEngine.in(.text)
    CApSelect::MoveLast()                    0x00009ec3   Thumb Code    12  APEngine.in(.text)
    CApSelect::MovePrev()                    0x00009ecf   Thumb Code    18  APEngine.in(.text)
    CApSelect::Count()                       0x00009ee1   Thumb Code     6  APEngine.in(.text)
    CApSelect::Name()                        0x00009ee7   Thumb Code    16  APEngine.in(.text)
    CApSelect::Uid()                         0x00009ef7   Thumb Code    16  APEngine.in(.text)
    CApSelect::Type()                        0x00009f07   Thumb Code    16  APEngine.in(.text)
    CApSelect::BearerType()                  0x00009f17   Thumb Code    16  APEngine.in(.text)
    CApSelect::AllListItemDataL(CApListItemList&) 0x00009f27   Thumb Code    62  APEngine.in(.text)
    CApSelect::IsReadOnly() const            0x00009f65   Thumb Code    18  APEngine.in(.text)
    CApDataHandler::ConstructL(CCommsDatabase&) 0x00009f81   Thumb Code    60  APEngine.in(.text)
    CApDataHandler::CApDataHandler()         0x00009fbd   Thumb Code    10  APEngine.in(.text)
    CApDataHandler::CApDataHandler__sub_object() 0x00009fbd   Thumb Code     0  APEngine.in(.text)
    CApDataHandler::NewLC(CCommsDatabase&)   0x00009fc7   Thumb Code    32  APEngine.in(.text)
    CApDataHandler::~CApDataHandler()        0x00009fe7   Thumb Code    38  APEngine.in(.text)
    CApDataHandler::~CApDataHandler__sub_object() 0x00009fe7   Thumb Code     0  APEngine.in(.text)
    CApDataHandler::~CApDataHandler__deallocating() 0x0000a00d   Thumb Code    16  APEngine.in(.text)
    CApDataHandler::ReadProxyDataL(CApAccessPointItem&) 0x0000a01d   Thumb Code   280  APEngine.in(.text)
    CApDataHandler::ReadServiceIp6L(CCommsDbTableView&, CApAccessPointItem&) 0x0000a135   Thumb Code   420  APEngine.in(.text)
    CApDataHandler::ReadWlanL(CCommsDbTableView&, CApAccessPointItem&) 0x0000a2d9   Thumb Code   182  APEngine.in(.text)
    CApDataHandler::ReadServiceL(CCommsDbTableView&, CApAccessPointItem&) 0x0000a38f   Thumb Code   654  APEngine.in(.text)
    CApDataHandler::ReadLanDataL(unsigned long, CApAccessPointItem&) 0x0000a61d   Thumb Code   176  APEngine.in(.text)
    CApDataHandler::ReadVpnInfoL(unsigned long, CApAccessPointItem&) 0x0000a6cd   Thumb Code   684  APEngine.in(.text)
    CApDataHandler::EtelSpeed2ApL(CApAccessPointItem&) 0x0000a979   Thumb Code   196  APEngine.in(.text)
    CApDataHandler::ReadDialInOutDataL(unsigned long, CApAccessPointItem&) 0x0000aa3d   Thumb Code  2382  APEngine.in(.text)
    CApDataHandler::ReadCdmaDataL(unsigned long, CApAccessPointItem&) 0x0000b38b   Thumb Code  1898  APEngine.in(.text)
    CApDataHandler::ReadGprsDataL(unsigned long, CApAccessPointItem&) 0x0000baf5   Thumb Code  1684  APEngine.in(.text)
    CApDataHandler::ReadIspDataL(unsigned long, CApAccessPointItem&) 0x0000c189   Thumb Code   256  APEngine.in(.text)
    CApDataHandler::ReadNetworkDataL(CApAccessPointItem&) 0x0000c289   Thumb Code   114  APEngine.in(.text)
    CApDataHandler::ReadModemBearerNameL(CApAccessPointItem&) 0x0000c2fb   Thumb Code    66  APEngine.in(.text)
    CApDataHandler::ReadIapDataL(unsigned long, CApAccessPointItem&) 0x0000c33d   Thumb Code   498  APEngine.in(.text)
    CApDataHandler::ReadWapDataL(unsigned long, CApAccessPointItem&) 0x0000c52f   Thumb Code   814  APEngine.in(.text)
    CApDataHandler::DoAccessPointDataL(unsigned long, CApAccessPointItem&) 0x0000c85d   Thumb Code    68  APEngine.in(.text)
    CApDataHandler::AccessPointDataL(unsigned long, CApAccessPointItem&) 0x0000c8a1   Thumb Code    50  APEngine.in(.text)
    CApDataHandler::RemoveProxyDataL(HBufC16*, unsigned long) 0x0000c8d3   Thumb Code   138  APEngine.in(.text)
    CApDataHandler::WriteProxyDataL(int, const CApAccessPointItem&) 0x0000c95d   Thumb Code   314  APEngine.in(.text)
    CApDataHandler::WriteWapBearerDataL(int, unsigned long, CApAccessPointItem&) 0x0000ca97   Thumb Code   296  APEngine.in(.text)
    CApDataHandler::WriteWapApDataL(int, unsigned long, CApAccessPointItem&) 0x0000cbbf   Thumb Code   260  APEngine.in(.text)
    CApDataHandler::GetLocationIdL()         0x0000ccc3   Thumb Code    80  APEngine.in(.text)
    CApDataHandler::CreateLanBearerIfNeededL() 0x0000cd13   Thumb Code   554  APEngine.in(.text)
    CApDataHandler::GetModemBearerIDL(CApAccessPointItem&) 0x0000cf3d   Thumb Code   214  APEngine.in(.text)
    CApDataHandler::WriteIapDataL(int, unsigned long, CApAccessPointItem&) 0x0000d013   Thumb Code   468  APEngine.in(.text)
    CApDataHandler::WriteNetworkDataL(int, CApAccessPointItem&) 0x0000d1e7   Thumb Code   182  APEngine.in(.text)
    CApDataHandler::WriteServiceIp6L(CCommsDbTableView&, CApAccessPointItem&) 0x0000d29d   Thumb Code   160  APEngine.in(.text)
    CApDataHandler::WriteWlanL(CCommsDbTableView&, CApAccessPointItem&) 0x0000d33d   Thumb Code   156  APEngine.in(.text)
    CApDataHandler::WriteServiceL(CCommsDbTableView&, CApAccessPointItem&) 0x0000d3d9   Thumb Code   260  APEngine.in(.text)
    CApDataHandler::WriteLanDataL(int, CApAccessPointItem&) 0x0000d4dd   Thumb Code   270  APEngine.in(.text)
    CApDataHandler::ApSpeed2EtelL(CApAccessPointItem*) 0x0000d5eb   Thumb Code   426  APEngine.in(.text)
    CApDataHandler::WriteCsdDataL(int, CApAccessPointItem&) 0x0000d795   Thumb Code  1240  APEngine.in(.text)
    CApDataHandler::WriteCdmaDataL(int, CApAccessPointItem&) 0x0000dc6d   Thumb Code  1196  APEngine.in(.text)
    CApDataHandler::WriteGprsDataL(int, CApAccessPointItem&) 0x0000e119   Thumb Code   898  APEngine.in(.text)
    CApDataHandler::WriteIspDataL(int, unsigned long, CApAccessPointItem&) 0x0000e49b   Thumb Code   396  APEngine.in(.text)
    CApDataHandler::RemoveWlanL(unsigned long) 0x0000e627   Thumb Code   162  APEngine.in(.text)
    CApDataHandler::RemoveLanL(unsigned long) 0x0000e6c9   Thumb Code   138  APEngine.in(.text)
    CApDataHandler::RemoveGprsL(unsigned long, int) 0x0000e753   Thumb Code    92  APEngine.in(.text)
    CApDataHandler::RemoveCdmaL(unsigned long) 0x0000e7af   Thumb Code    72  APEngine.in(.text)
    CApDataHandler::RemoveIspL(unsigned long, int) 0x0000e7f7   Thumb Code    92  APEngine.in(.text)
    CApDataHandler::RemoveWapBearerApL(unsigned long) 0x0000e853   Thumb Code    68  APEngine.in(.text)
    CApDataHandler::RemoveIapL(unsigned long) 0x0000e897   Thumb Code    72  APEngine.in(.text)
    CApDataHandler::HandleBearerChangeIfNeededL(CApAccessPointItem&) 0x0000e8df   Thumb Code   724  APEngine.in(.text)
    CApDataHandler::DoUpdateAccessPointDataL(CApAccessPointItem&, int, int&) 0x0000ebb3   Thumb Code   370  APEngine.in(.text)
    CApDataHandler::UpdateAccessPointDataL(CApAccessPointItem&, int&) 0x0000ed25   Thumb Code    68  APEngine.in(.text)
    CApDataHandler::CreateCopyFromL(unsigned long) 0x0000ed69   Thumb Code   360  APEngine.in(.text)
    CApDataHandler::CreateFromDataL(CApAccessPointItem&) 0x0000eed1   Thumb Code    74  APEngine.in(.text)
    CApDataHandler::RemoveWapApL(unsigned long) 0x0000ef1b   Thumb Code    72  APEngine.in(.text)
    CApDataHandler::RemoveNetworkDataL(unsigned long) 0x0000ef63   Thumb Code    68  APEngine.in(.text)
    CApDataHandler::DoRemoveAPL(unsigned long) 0x0000efa7   Thumb Code   588  APEngine.in(.text)
    CApDataHandler::RemoveAPL(unsigned long) 0x0000f1f3   Thumb Code    56  APEngine.in(.text)
    CApDataHandler::GetPreferredIfDbIapTypeL(unsigned long, TCommDbConnectionDirection, unsigned long&, unsigned long&, unsigned long&) 0x0000f22b   Thumb Code    94  APEngine.in(.text)
    CApDataHandler::DoGetDefaultL(int, int*) const 0x0000f289   Thumb Code   188  APEngine.in(.text)
    CApDataHandler::DefaultL(int) const      0x0000f345   Thumb Code    46  APEngine.in(.text)
    CApDataHandler::DoSetPreferredIfDbIapTypeL(unsigned long, TCommDbConnectionDirection, unsigned long, TCommDbDialogPref, unsigned long, int) 0x0000f373   Thumb Code    90  APEngine.in(.text)
    CApDataHandler::SetPreferredIfDbIapTypeL(unsigned long, TCommDbConnectionDirection, unsigned long, TCommDbDialogPref, unsigned long, int) 0x0000f3cd   Thumb Code    74  APEngine.in(.text)
    CApDataHandler::SetDefaultIapIspL(unsigned long) 0x0000f417   Thumb Code    84  APEngine.in(.text)
    CApDataHandler::DoSetAsDefaultL(unsigned long, TCommsDbIspType) 0x0000f46b   Thumb Code    76  APEngine.in(.text)
    CApDataHandler::SetAsDefaultL(unsigned long, TCommsDbIspType) 0x0000f4b7   Thumb Code    60  APEngine.in(.text)
    CApDataHandler::DoSetPreferredIfDbIspTypeL(unsigned long, TCommDbConnectionDirection, unsigned long, TCommDbDialogPref, unsigned long, unsigned long, const TDesC16&, int) 0x0000f4f3   Thumb Code    12  APEngine.in(.text)
    CApDataHandler::SetPreferredIfDbIspTypeL(unsigned long, TCommDbConnectionDirection, unsigned long, TCommDbDialogPref, unsigned long, unsigned long, const TDesC16&, int) 0x0000f4ff   Thumb Code    56  APEngine.in(.text)
    CApDataHandler::GetPreferredIfDbIspTypeL(unsigned long, TCommDbConnectionDirection, unsigned long&, unsigned long&, unsigned long&, unsigned long&) 0x0000f537   Thumb Code    14  APEngine.in(.text)
    CApDataHandler::DefaultL(int, int&) const 0x0000f545   Thumb Code    48  APEngine.in(.text)
    CApDataHandler::RemoveNetworkL(unsigned long) 0x0000f575   Thumb Code   112  APEngine.in(.text)
    CApDataHandler::CreateNetworkL(CApNetworkItem&) 0x0000f5e5   Thumb Code    82  APEngine.in(.text)
    CApDataHandler::ReadNetworkPartL(CApAccessPointItem&) 0x0000f637   Thumb Code     8  APEngine.in(.text)
    CApDataHandler::ReadNetworkL(unsigned long, CApNetworkItem&) 0x0000f63f   Thumb Code    86  APEngine.in(.text)
    CApUtils::ConstructL(CCommsDatabase&)    0x0000f6a9   Thumb Code    44  APEngine.in(.text)
    CApUtils::CApUtils()                     0x0000f6d5   Thumb Code     6  APEngine.in(.text)
    CApUtils::CApUtils__sub_object()         0x0000f6d5   Thumb Code     0  APEngine.in(.text)
    CApUtils::NewLC(CCommsDatabase&)         0x0000f6db   Thumb Code    32  APEngine.in(.text)
    CApUtils::~CApUtils()                    0x0000f6fb   Thumb Code    38  APEngine.in(.text)
    CApUtils::~CApUtils__sub_object()        0x0000f6fb   Thumb Code     0  APEngine.in(.text)
    CApUtils::~CApUtils__deallocating()      0x0000f721   Thumb Code    16  APEngine.in(.text)
    CApUtils::IapIdFromWapIdL(unsigned long) 0x0000f731   Thumb Code   196  APEngine.in(.text)
    CApUtils::IsAPInUseL(unsigned long)      0x0000f7f5   Thumb Code   246  APEngine.in(.text)
    CApUtils::DoWapBearerTypeL(unsigned long, TDes16&) 0x0000f8eb   Thumb Code   116  APEngine.in(.text)
    CApUtils::WapBearerTypeL(unsigned long, TDes16&) 0x0000f95f   Thumb Code    44  APEngine.in(.text)
    CApUtils::DoIsWlanL(unsigned long)       0x0000f98b   Thumb Code    62  APEngine.in(.text)
    CApUtils::IsWlanL(unsigned long)         0x0000f9c9   Thumb Code    78  APEngine.in(.text)
    CApUtils::DoBearerTypeL(unsigned long)   0x0000fa17   Thumb Code  1566  APEngine.in(.text)
    CApUtils::BearerTypeL(unsigned long)     0x00010035   Thumb Code    44  APEngine.in(.text)
    CApUtils::DoISPTypeL(unsigned long, TCommsDbIspType&) 0x00010061   Thumb Code   396  APEngine.in(.text)
    CApUtils::ISPTypeL(unsigned long, TCommsDbIspType&) 0x000101ed   Thumb Code    44  APEngine.in(.text)
    CApUtils::IsValidNameL(const TDesC16&, unsigned long) 0x00010219   Thumb Code   366  APEngine.in(.text)
    CApUtils::IsValidNameL(const TDesC16&)   0x00010387   Thumb Code     4  APEngine.in(.text)
    CApUtils::MakeValidNameL(TDes16&)        0x0001038b   Thumb Code   118  APEngine.in(.text)
    CApUtils::DoNameL(unsigned long, TDes16&) 0x00010401   Thumb Code   114  APEngine.in(.text)
    CApUtils::NameL(unsigned long, TDes16&)  0x00010473   Thumb Code    44  APEngine.in(.text)
    CApUtils::DoSetNameL(TDes16&, unsigned long) 0x0001049f   Thumb Code   210  APEngine.in(.text)
    CApUtils::SetNameL(TDes16&, unsigned long) 0x00010571   Thumb Code    60  APEngine.in(.text)
    CApUtils::DoSetISPTypeL(unsigned long, TCommsDbIspType) 0x000105ad   Thumb Code   438  APEngine.in(.text)
    CApUtils::SetISPTypeL(unsigned long, TCommsDbIspType) 0x00010763   Thumb Code    60  APEngine.in(.text)
    CApUtils::WapIdFromIapIdL(unsigned long) 0x0001079f   Thumb Code   174  APEngine.in(.text)
    CApUtils::DoHasMandatoryFieldsFilledL(unsigned long, CCommsDbTableView*, TApBearerType) 0x0001084d   Thumb Code   274  APEngine.in(.text)
    CApUtils::HasMandatoryFieldsFilledL(unsigned long) 0x0001095f   Thumb Code    48  APEngine.in(.text)
    CApUtils::DoesExistsL(TPtrC16, unsigned long) 0x0001098f   Thumb Code    88  APEngine.in(.text)
    CApUtils::IAPExistsL(unsigned long)      0x000109e7   Thumb Code    28  APEngine.in(.text)
    CApUtils::WapApExistsL(unsigned long)    0x00010a03   Thumb Code    28  APEngine.in(.text)
    CApUtils::IsReadOnlyL(unsigned long)     0x00010a1f   Thumb Code    88  APEngine.in(.text)
    CApUtils::HasWlanSSIDL(unsigned long)    0x00010a77   Thumb Code    96  APEngine.in(.text)
    CApAccessPointItem::RemoveInvalidCharsLC(const TDesC16&) 0x00010b45   Thumb Code    62  APEngine.in(.text)
    CApAccessPointItem::ReAllocL(HBufC16*&, const TDesC16&) 0x00010b83   Thumb Code    26  APEngine.in(.text)
    CApAccessPointItem::IsWlan()             0x00010b9d   Thumb Code    16  APEngine.in(.text)
    CApAccessPointItem::BearerTypeL()        0x00010bad   Thumb Code   260  APEngine.in(.text)
    CApAccessPointItem::SetDns6IpFromServer() 0x00010cb1   Thumb Code   128  APEngine.in(.text)
    CApAccessPointItem::SetProxyFlag()       0x00010d31   Thumb Code    58  APEngine.in(.text)
    CApAccessPointItem::SetDnsIpFromServer() 0x00010d6b   Thumb Code    44  APEngine.in(.text)
    CApAccessPointItem::SetIpFromServer()    0x00010d97   Thumb Code    30  APEngine.in(.text)
    CApAccessPointItem::GetCleanIpAddressLC(const TDesC16&) 0x00010db5   Thumb Code    56  APEngine.in(.text)
    CApAccessPointItem::IsSupported(TApMember) 0x00010ded   Thumb Code   116  APEngine.in(.text)
    CApAccessPointItem::LeaveIfUnsupportedL(TApMember) 0x00010e61   Thumb Code    18  APEngine.in(.text)
    CApAccessPointItem::WriteTextL(TApMember, const TDesC16&) 0x00010e73   Thumb Code  1202  APEngine.in(.text)
    CApAccessPointItem::SetIfNetworksL()     0x00011325   Thumb Code    96  APEngine.in(.text)
    CApAccessPointItem::SetNamesL(const TDesC16&) 0x00011385   Thumb Code    46  APEngine.in(.text)
    CApItemWlanData::ConstructL()            0x000113b3   Thumb Code    14  APEngine.in(.text)
    CApItemWlanData::CApItemWlanData()       0x000113c1   Thumb Code    12  APEngine.in(.text)
    CApItemWlanData::CApItemWlanData__sub_object() 0x000113c1   Thumb Code     0  APEngine.in(.text)
    CApItemWlanData::NewL()                  0x000113cd   Thumb Code    32  APEngine.in(.text)
    CApItemCdmaData::ConstructL()            0x000113ed   Thumb Code    54  APEngine.in(.text)
    CApItemCdmaData::CApItemCdmaData()       0x00011423   Thumb Code    76  APEngine.in(.text)
    CApItemCdmaData::CApItemCdmaData__sub_object() 0x00011423   Thumb Code     0  APEngine.in(.text)
    CApItemCdmaData::NewL()                  0x0001146f   Thumb Code    32  APEngine.in(.text)
    CApItemExtra::ConstructL()               0x0001148f   Thumb Code    82  APEngine.in(.text)
    CApItemExtra::CApItemExtra()             0x000114e1   Thumb Code    22  APEngine.in(.text)
    CApItemExtra::CApItemExtra__sub_object() 0x000114e1   Thumb Code     0  APEngine.in(.text)
    CApItemExtra::NewL()                     0x000114f7   Thumb Code    32  APEngine.in(.text)
    CApAccessPointItem::ConstructL()         0x00011517   Thumb Code   766  APEngine.in(.text)
    CApAccessPointItem::CApAccessPointItem() 0x00011815   Thumb Code    70  APEngine.in(.text)
    CApAccessPointItem::CApAccessPointItem__sub_object() 0x00011815   Thumb Code     0  APEngine.in(.text)
    CApAccessPointItem::NewLC()              0x0001185b   Thumb Code    30  APEngine.in(.text)
    CApAccessPointItem::~CApAccessPointItem() 0x00011879   Thumb Code   308  APEngine.in(.text)
    CApAccessPointItem::~CApAccessPointItem__sub_object() 0x00011879   Thumb Code     0  APEngine.in(.text)
    CApAccessPointItem::~CApAccessPointItem__deallocating() 0x000119ad   Thumb Code    16  APEngine.in(.text)
    CApAccessPointItem::WriteLongTextL(TApMember, const TDesC16&) 0x000119bd   Thumb Code   104  APEngine.in(.text)
    CApAccessPointItem::RemoveInvalidCharsLC(const TDesC8&) 0x00011a25   Thumb Code    62  APEngine.in(.text)
    CApAccessPointItem::ReAllocL(HBufC8*&, const TDesC8&) 0x00011a63   Thumb Code    26  APEngine.in(.text)
    CApAccessPointItem::WriteTextL(TApMember, const TDesC8&) 0x00011a7d   Thumb Code    50  APEngine.in(.text)
    CApAccessPointItem::CopyFromL(const CApAccessPointItem&) 0x00011aaf   Thumb Code  1358  APEngine.in(.text)
    CApAccessPointItem::CompareProxy(const CApAccessPointItem&) const 0x00011ffd   Thumb Code    84  APEngine.in(.text)
    CApAccessPointItem::CompareWlan(const CApAccessPointItem&) const 0x00012051   Thumb Code   176  APEngine.in(.text)
    CApAccessPointItem::CompareIap(const CApAccessPointItem&) const 0x00012101   Thumb Code    66  APEngine.in(.text)
    CApAccessPointItem::CompareCdma(const CApAccessPointItem&) const 0x00012143   Thumb Code   826  APEngine.in(.text)
    CApAccessPointItem::CompareGprs(const CApAccessPointItem&) const 0x0001247d   Thumb Code   530  APEngine.in(.text)
    CApAccessPointItem::CompareIsp(const CApAccessPointItem&) const 0x0001268f   Thumb Code   704  APEngine.in(.text)
    CApAccessPointItem::CompareWap(const CApAccessPointItem&) const 0x0001294f   Thumb Code   120  APEngine.in(.text)
    CApAccessPointItem::DoCompareApL(const CApAccessPointItem&) const 0x000129c7   Thumb Code   184  APEngine.in(.text)
    CApAccessPointItem::operator ==(const CApAccessPointItem&) const 0x00012a7f   Thumb Code    70  APEngine.in(.text)
    CApAccessPointItem::operator !=(const CApAccessPointItem&) const 0x00012ac5   Thumb Code    18  APEngine.in(.text)
    CApAccessPointItem::ReadTextL(TApMember, TDes8&) 0x00012ad7   Thumb Code    84  APEngine.in(.text)
    CApAccessPointItem::ReadTextL(TApMember, TDes16&) 0x00012b2b   Thumb Code  1212  APEngine.in(.text)
    CApAccessPointItem::ReadLongTextL(TApMember) 0x00012fe7   Thumb Code    70  APEngine.in(.text)
    CApAccessPointItem::ReadConstLongTextL(TApMember) 0x0001302d   Thumb Code    70  APEngine.in(.text)
    CApAccessPointItem::ReadTextLengthL(TApMember) 0x00013073   Thumb Code   612  APEngine.in(.text)
    CApAccessPointItem::ReadUint(TApMember, unsigned long&) 0x000132d7   Thumb Code  1246  APEngine.in(.text)
    CApAccessPointItem::ReadBool(TApMember, int&) 0x000137b5   Thumb Code   372  APEngine.in(.text)
    CApAccessPointItem::WriteUint(TApMember, const unsigned long&) 0x00013929   Thumb Code  1476  APEngine.in(.text)
    CApAccessPointItem::WriteBool(TApMember, const int&) 0x00013eed   Thumb Code   414  APEngine.in(.text)
    CApAccessPointItem::WapUid() const       0x0001408b   Thumb Code     4  APEngine.in(.text)
    CApAccessPointItem::ConnectionName() const 0x0001408f   Thumb Code     4  APEngine.in(.text)
    CApAccessPointItem::WapBearer() const    0x00014093   Thumb Code     4  APEngine.in(.text)
    CApAccessPointItem::LimitSpeedL()        0x00014097   Thumb Code   140  APEngine.in(.text)
    CApAccessPointItem::LimitIp6DNSL()       0x00014123   Thumb Code    64  APEngine.in(.text)
    CApAccessPointItem::SetBearerTypeL(TApBearerType) 0x00014163   Thumb Code   586  APEngine.in(.text)
    CApAccessPointItem::SanityCheckOk()      0x000143ad   Thumb Code     4  APEngine.in(.text)
    CApAccessPointItem::RemoveInvalidPhoneCharsLC(const TDesC16&) 0x000143b1   Thumb Code   120  APEngine.in(.text)
    CApAccessPointItem::GetPlainPhoneNumberLC(const TDesC16&) 0x00014429   Thumb Code   242  APEngine.in(.text)
    CApAccessPointItem::IsSamePhoneNumberL(CApAccessPointItem&) 0x0001451b   Thumb Code   140  APEngine.in(.text)
    CApAccessPointItem::HasSameIspAndBearerL(CApAccessPointItem&) 0x000145a7   Thumb Code   278  APEngine.in(.text)
    CApAccessPointItem::IsReadOnly() const   0x000146bd   Thumb Code     8  APEngine.in(.text)
    CApAccessPointItem::IsVpnAp() const      0x000146c5   Thumb Code     6  APEngine.in(.text)
    CApAccessPointItem::SetVpnAp(int)        0x000146cb   Thumb Code     6  APEngine.in(.text)
    CApAccessPointItem::Specified(TApMember) 0x000146d1   Thumb Code    16  APEngine.in(.text)
    CApAccessPointItem::Specify(TApMember, int) 0x000146e1   Thumb Code    18  APEngine.in(.text)
    CApAccessPointItem::SpecifyWap(int)      0x000146f3   Thumb Code    80  APEngine.in(.text)
    CApAccessPointItem::SpecifyIpBearer(int) 0x00014743   Thumb Code    52  APEngine.in(.text)
    CApAccessPointItem::SpecifyIAP(int)      0x00014777   Thumb Code    60  APEngine.in(.text)
    CApAccessPointItem::SpecifyISP(int)      0x000147b3   Thumb Code   480  APEngine.in(.text)
    CApAccessPointItem::SpecifyGPRS(int)     0x00014993   Thumb Code   330  APEngine.in(.text)
    CApAccessPointItem::SpecifyCDMA(int)     0x00014add   Thumb Code   580  APEngine.in(.text)
    CApAccessPointItem::SpecifyWLAN(int)     0x00014d21   Thumb Code   130  APEngine.in(.text)
    CApAccessPointItem::SpecifyAll(int)      0x00014da3   Thumb Code    28  APEngine.in(.text)
    CApAccessPointItem::HasProxy() const     0x00014dbf   Thumb Code     8  APEngine.in(.text)
    CApItemExtra::~CApItemExtra()            0x00014dc7   Thumb Code    64  APEngine.in(.text)
    CApItemExtra::~CApItemExtra__sub_object() 0x00014dc7   Thumb Code     0  APEngine.in(.text)
    CApItemExtra::~CApItemExtra__deallocating() 0x00014e07   Thumb Code    16  APEngine.in(.text)
    CApItemCdmaData::~CApItemCdmaData()      0x00014e17   Thumb Code    52  APEngine.in(.text)
    CApItemCdmaData::~CApItemCdmaData__sub_object() 0x00014e17   Thumb Code     0  APEngine.in(.text)
    CApItemCdmaData::~CApItemCdmaData__deallocating() 0x00014e4b   Thumb Code    16  APEngine.in(.text)
    CApItemWlanData::~CApItemWlanData()      0x00014e5b   Thumb Code    22  APEngine.in(.text)
    CApItemWlanData::~CApItemWlanData__sub_object() 0x00014e5b   Thumb Code     0  APEngine.in(.text)
    CApItemWlanData::~CApItemWlanData__deallocating() 0x00014e71   Thumb Code    16  APEngine.in(.text)
    ApCommons::Panic(TApEnginePanicCodes)    0x00014e8d   Thumb Code    12  APEngine.in(.text)
    ApCommons::RollbackTransactionOnLeave(void*) 0x00014e99   Thumb Code     8  APEngine.in(.text)
    ApCommons::StartPushedTransactionLC(CCommsDatabase&, int) 0x00014ea1   Thumb Code    80  APEngine.in(.text)
    ApCommons::GetPostfix(const TDesC16&, const TDesC16&) 0x00014ef1   Thumb Code   104  APEngine.in(.text)
    ApCommons::GetPrefix(const TDesC16&)     0x00014f59   Thumb Code   106  APEngine.in(.text)
    ApCommons::EnsureMaxLengthLC(const TDesC16*, int&) 0x00014fc3   Thumb Code   112  APEngine.in(.text)
    ApCommons::DoMakeValidNameL(CCommsDatabase&, int&, HBufC16*, unsigned long, int) 0x00015033   Thumb Code   318  APEngine.in(.text)
    ApCommons::ReadUintL(CCommsDbTableView*, const TDesC16&, unsigned long&) 0x00015171   Thumb Code    86  APEngine.in(.text)
    ApCommons::ReadBoolL(CCommsDbTableView*, const TDesC16&, int&) 0x000151c7   Thumb Code    80  APEngine.in(.text)
    ApCommons::ReadLongTextL(CCommsDbTableView*, const TDesC16&) 0x00015217   Thumb Code    16  APEngine.in(.text)
    ApCommons::ReadLongTextLC(CCommsDbTableView*, const TDesC16&, int&) 0x00015227   Thumb Code   106  APEngine.in(.text)
    ApCommons::EscapeTextLC(const TDesC16&)  0x00015291   Thumb Code    82  APEngine.in(.text)
    ApCommons::ReadText16ValueLC(CCommsDbTableView*, const TDesC16&) 0x000152e3   Thumb Code    64  APEngine.in(.text)
    ApCommons::ReadText8ValueLC(CCommsDbTableView*, const TDesC16&) 0x00015323   Thumb Code    62  APEngine.in(.text)
    ApCommons::DoGetReadOnlyL(CCommsDbTableView&) 0x00015361   Thumb Code     8  APEngine.in(.text)
    ApCommons::CommitTransaction(CCommsDatabase&) 0x00015369   Thumb Code     8  APEngine.in(.text)
    ApCommons::GetVariantL()                 0x00015371   Thumb Code    40  APEngine.in(.text)
    ApCommons::IsGivenSharedDataSupportL(TUid, unsigned long) 0x00015399   Thumb Code    38  APEngine.in(.text)
    CActiveApDb::ConstructL()                0x000153c5   Thumb Code    52  APEngine.in(.text)
    CActiveApDb::CActiveApDb()               0x000153f9   Thumb Code     6  APEngine.in(.text)
    CActiveApDb::CActiveApDb__sub_object()   0x000153f9   Thumb Code     0  APEngine.in(.text)
    CActiveApDb::NewL(TCommDbDatabaseType)   0x000153ff   Thumb Code    32  APEngine.in(.text)
    CActiveApDb::~CActiveApDb()              0x0001541f   Thumb Code    52  APEngine.in(.text)
    CActiveApDb::~CActiveApDb__sub_object()  0x0001541f   Thumb Code     0  APEngine.in(.text)
    CActiveApDb::~CActiveApDb__deallocating() 0x00015453   Thumb Code    16  APEngine.in(.text)
    CActiveApDb::AddObserverL(MActiveApDbObserver*) 0x00015463   Thumb Code    34  APEngine.in(.text)
    CActiveApDb::RemoveObserver(MActiveApDbObserver*) 0x00015485   Thumb Code    60  APEngine.in(.text)
    CActiveApDb::Database()                  0x000154c1   Thumb Code     4  APEngine.in(.text)
    CActiveApDb::NotifyObserversL(MActiveApDbObserver::TEvent) 0x000154c5   Thumb Code    78  APEngine.in(.text)
    CActiveApDb::HandleDbEventL(int)         0x00015513   Thumb Code    34  APEngine.in(.text)
    CActiveApDbNotifier::CActiveApDbNotifier(CActiveApDb&) 0x00015545   Thumb Code    28  APEngine.in(.text)
    CActiveApDbNotifier::CActiveApDbNotifier__sub_object(CActiveApDb&) 0x00015545   Thumb Code     0  APEngine.in(.text)
    CActiveApDbNotifier::~CActiveApDbNotifier() 0x00015561   Thumb Code    22  APEngine.in(.text)
    CActiveApDbNotifier::~CActiveApDbNotifier__sub_object() 0x00015561   Thumb Code     0  APEngine.in(.text)
    CActiveApDbNotifier::~CActiveApDbNotifier__deallocating() 0x00015577   Thumb Code    16  APEngine.in(.text)
    CActiveApDbNotifier::NotifyChange()      0x00015587   Thumb Code    32  APEngine.in(.text)
    CActiveApDbNotifier::RunL()              0x000155a7   Thumb Code    62  APEngine.in(.text)
    CActiveApDbNotifier::Stop()              0x000155e5   Thumb Code    14  APEngine.in(.text)
    CActiveApDbNotifier::DoCancel()          0x000155f3   Thumb Code     2  APEngine.in(.text)
    CActiveApDbNotifier::Start()             0x000155f5   Thumb Code     2  APEngine.in(.text)
    CApListItemList::CApListItemList()       0x000155fd   Thumb Code    18  APEngine.in(.text)
    CApListItemList::CApListItemList__sub_object() 0x000155fd   Thumb Code     0  APEngine.in(.text)
    CApListItemList::~CApListItemList()      0x0001560f   Thumb Code    54  APEngine.in(.text)
    CApListItemList::~CApListItemList__sub_object() 0x0001560f   Thumb Code     0  APEngine.in(.text)
    CApListItemList::~CApListItemList__deallocating() 0x00015645   Thumb Code    16  APEngine.in(.text)
    CApListItemList::ItemForUid(unsigned long) const 0x00015655   Thumb Code    52  APEngine.in(.text)
    CApProtHandler::IsTableProtectedL(CCommsDatabase*, const TDesC16&) 0x00015691   Thumb Code    94  APEngine.in(.text)
    CApProtHandler::IsTableProtectedL(CCommsDatabase*) 0x000156ef   Thumb Code    22  APEngine.in(.text)
    CApProtHandler::IsRecordProtectedL(CCommsDatabase*, const TDesC16&, unsigned long) 0x00015705   Thumb Code   112  APEngine.in(.text)
    CApProtHandler::IsApProtectedL(CCommsDatabase*, unsigned long) 0x00015775   Thumb Code    26  APEngine.in(.text)
    CApProtHandler::ProtectRecordL(CCommsDatabase*, const TDesC16&, unsigned long) 0x0001578f   Thumb Code   120  APEngine.in(.text)
    CApProtHandler::ProtectItemL(CCommsDatabase*, unsigned long) 0x00015807   Thumb Code    42  APEngine.in(.text)
    CApProtHandler::UnprotectRecordL(CCommsDatabase*, const TDesC16&, unsigned long) 0x00015831   Thumb Code   118  APEngine.in(.text)
    CApProtHandler::UnprotectItemL(CCommsDatabase*, unsigned long) 0x000158a7   Thumb Code    42  APEngine.in(.text)
    CApProtHandler::ProtectTableL(CCommsDatabase*, const TDesC16&) 0x000158d1   Thumb Code    80  APEngine.in(.text)
    CApProtHandler::ProtectTableL(CCommsDatabase*) 0x00015921   Thumb Code    38  APEngine.in(.text)
    CApProtHandler::UnprotectTableL(CCommsDatabase*, const TDesC16&) 0x00015947   Thumb Code    84  APEngine.in(.text)
    CApProtHandler::UnprotectTableL(CCommsDatabase*) 0x0001599b   Thumb Code    38  APEngine.in(.text)
    CApProtHandler::IsPreferencesProtectedL(CCommsDatabase*) 0x000159c1   Thumb Code    76  APEngine.in(.text)
    CApProtHandler::ProtectPreferencesL(CCommsDatabase*) 0x00015a0d   Thumb Code    76  APEngine.in(.text)
    CApProtHandler::UnprotectPreferencesL(CCommsDatabase*) 0x00015a59   Thumb Code   116  APEngine.in(.text)
    CApProtHandler::GetProtectionStateL(CCommsDbTableView&) 0x00015acd   Thumb Code    20  APEngine.in(.text)
    CApProtHandler::DoRemoveProtectedAccessPointsL(CCommsDatabase&) 0x00015ae1   Thumb Code   152  APEngine.in(.text)
    CApProtHandler::RemoveProtectedAccessPointsL(CCommsDatabase*) 0x00015b79   Thumb Code    56  APEngine.in(.text)
    TApListItemNameKey::SetPtr(CApListItemList*) 0x00015bb1   Thumb Code     4  APEngine.in(.text)
    TApListItemNameKey::Compare(int, int) const 0x00015bb5   Thumb Code    52  APEngine.in(.text)
    TApListItemNameKey::At(int) const        0x00015be9   Thumb Code    16  APEngine.in(.text)
    TApListItemNameKey::TApListItemNameKey(int) 0x00015bf9   Thumb Code    24  APEngine.in(.text)
    TApListItemNameKey::TApListItemNameKey__sub_object(int) 0x00015bf9   Thumb Code     0  APEngine.in(.text)
    TApListItemUidKey::SetPtr(CApListItemList*) 0x00015c11   Thumb Code     4  APEngine.in(.text)
    TApListItemUidKey::Compare(int, int) const 0x00015c15   Thumb Code    94  APEngine.in(.text)
    TApListItemUidKey::At(int) const         0x00015c73   Thumb Code    14  APEngine.in(.text)
    TApListItemUidKey::TApListItemUidKey(int) 0x00015c81   Thumb Code    24  APEngine.in(.text)
    TApListItemUidKey::TApListItemUidKey__sub_object(int) 0x00015c81   Thumb Code     0  APEngine.in(.text)
    CApNetworkItem::ConstructL()             0x00015ca1   Thumb Code    14  APEngine.in(.text)
    CApNetworkItem::CApNetworkItem()         0x00015caf   Thumb Code    10  APEngine.in(.text)
    CApNetworkItem::CApNetworkItem__sub_object() 0x00015caf   Thumb Code     0  APEngine.in(.text)
    CApNetworkItem::NewLC()                  0x00015cb9   Thumb Code    28  APEngine.in(.text)
    CApNetworkItem::SetNameL(const TDesC16&) 0x00015cd5   Thumb Code    22  APEngine.in(.text)
    CApNetworkItem::SetUid(unsigned long)    0x00015ceb   Thumb Code     4  APEngine.in(.text)
    CApNetworkItem::ConstructL(unsigned long, const TDesC16&) 0x00015cef   Thumb Code    24  APEngine.in(.text)
    CApNetworkItem::NewLC(CApNetworkItem*)   0x00015d07   Thumb Code    34  APEngine.in(.text)
    CApNetworkItem::~CApNetworkItem()        0x00015d29   Thumb Code    22  APEngine.in(.text)
    CApNetworkItem::~CApNetworkItem__sub_object() 0x00015d29   Thumb Code     0  APEngine.in(.text)
    CApNetworkItem::~CApNetworkItem__deallocating() 0x00015d3f   Thumb Code    16  APEngine.in(.text)
    CApNetworkItem::CopyFromL(const CApNetworkItem&) 0x00015d4f   Thumb Code    28  APEngine.in(.text)
    CApNetworkItem::Name() const             0x00015d6b   Thumb Code     4  APEngine.in(.text)
    CApNetworkItem::Uid() const              0x00015d6f   Thumb Code     4  APEngine.in(.text)
    CApNetworks::DoUpdateL()                 0x00015d79   Thumb Code   280  APEngine.in(.text)
    CApNetworks::ConstructL(CCommsDatabase&) 0x00015e91   Thumb Code    28  APEngine.in(.text)
    CApNetworks::CApNetworks()               0x00015ead   Thumb Code    10  APEngine.in(.text)
    CApNetworks::CApNetworks__sub_object()   0x00015ead   Thumb Code     0  APEngine.in(.text)
    CApNetworks::NewLC(CCommsDatabase&)      0x00015eb7   Thumb Code    32  APEngine.in(.text)
    CApNetworks::~CApNetworks()              0x00015ed7   Thumb Code    38  APEngine.in(.text)
    CApNetworks::~CApNetworks__sub_object()  0x00015ed7   Thumb Code     0  APEngine.in(.text)
    CApNetworks::~CApNetworks__deallocating() 0x00015efd   Thumb Code    16  APEngine.in(.text)
    CApNetworks::Count() const               0x00015f0d   Thumb Code     6  APEngine.in(.text)
    CApNetworks::NameL(unsigned long) const  0x00015f13   Thumb Code    26  APEngine.in(.text)
    CApNetworks::AllListItemDataL(CApNetworkItemList&) 0x00015f2d   Thumb Code    64  APEngine.in(.text)
    CApNetworkItemList::CApNetworkItemList() 0x00015f95   Thumb Code    18  APEngine.in(.text)
    CApNetworkItemList::CApNetworkItemList__sub_object() 0x00015f95   Thumb Code     0  APEngine.in(.text)
    CApNetworkItemList::~CApNetworkItemList() 0x00015fa7   Thumb Code    54  APEngine.in(.text)
    CApNetworkItemList::~CApNetworkItemList__sub_object() 0x00015fa7   Thumb Code     0  APEngine.in(.text)
    CApNetworkItemList::~CApNetworkItemList__deallocating() 0x00015fdd   Thumb Code    16  APEngine.in(.text)
    CApNetworkItemList::ItemForUid(unsigned long) const 0x00015fed   Thumb Code    52  APEngine.in(.text)
    CVpnApItem::WriteUint(TVpnApMember, const unsigned long&) 0x00016029   Thumb Code    72  APEngine.in(.text)
    CVpnApItem::RemoveInvalidCharsLC(const TDesC16&) 0x00016071   Thumb Code    62  APEngine.in(.text)
    CVpnApItem::ReAllocL(HBufC16*&, const TDesC16&) 0x000160af   Thumb Code    26  APEngine.in(.text)
    CVpnApItem::WriteTextL(TVpnApMember, const TDesC16&) 0x000160c9   Thumb Code   122  APEngine.in(.text)
    CVpnApItem::ConstructL()                 0x00016143   Thumb Code   256  APEngine.in(.text)
    CVpnApItem::CVpnApItem()                 0x00016243   Thumb Code     6  APEngine.in(.text)
    CVpnApItem::CVpnApItem__sub_object()     0x00016243   Thumb Code     0  APEngine.in(.text)
    CVpnApItem::NewLC()                      0x00016249   Thumb Code    28  APEngine.in(.text)
    CVpnApItem::~CVpnApItem()                0x00016265   Thumb Code    52  APEngine.in(.text)
    CVpnApItem::~CVpnApItem__sub_object()    0x00016265   Thumb Code     0  APEngine.in(.text)
    CVpnApItem::~CVpnApItem__deallocating()  0x00016299   Thumb Code    16  APEngine.in(.text)
    CVpnApItem::WriteLongTextL(TVpnApMember, const TDesC16&) 0x000162a9   Thumb Code    24  APEngine.in(.text)
    CVpnApItem::CopyFromL(const CVpnApItem&) 0x000162c1   Thumb Code    96  APEngine.in(.text)
    CVpnApItem::operator ==(const CVpnApItem&) const 0x00016321   Thumb Code   142  APEngine.in(.text)
    CVpnApItem::operator !=(const CVpnApItem&) const 0x000163af   Thumb Code    18  APEngine.in(.text)
    CVpnApItem::ReadTextL(TVpnApMember, TDes16&) 0x000163c1   Thumb Code   196  APEngine.in(.text)
    CVpnApItem::ReadConstLongTextL(TVpnApMember) 0x00016485   Thumb Code    22  APEngine.in(.text)
    CVpnApItem::ReadUint(TVpnApMember, unsigned long&) 0x0001649b   Thumb Code    60  APEngine.in(.text)
    CVpnApItem::ReadBool(TVpnApMember, int&) 0x000164d7   Thumb Code     4  APEngine.in(.text)
    CVpnApItem::WriteBool(TVpnApMember, const int&) 0x000164db   Thumb Code     4  APEngine.in(.text)
    CVpnApItem::WapUid() const               0x000164df   Thumb Code     4  APEngine.in(.text)
    CVpnApItem::Name() const                 0x000164e3   Thumb Code     4  APEngine.in(.text)
    CVpnApItem::HasProxy() const             0x000164e7   Thumb Code    44  APEngine.in(.text)
    CVpnApEngine::ConstructL(CCommsDatabase*) 0x0001651d   Thumb Code    26  APEngine.in(.text)
    CVpnApEngine::CVpnApEngine()             0x00016537   Thumb Code    10  APEngine.in(.text)
    CVpnApEngine::CVpnApEngine__sub_object() 0x00016537   Thumb Code     0  APEngine.in(.text)
    CVpnApEngine::NewLC(CCommsDatabase*)     0x00016541   Thumb Code    32  APEngine.in(.text)
    CVpnApEngine::~CVpnApEngine()            0x00016561   Thumb Code    34  APEngine.in(.text)
    CVpnApEngine::~CVpnApEngine__sub_object() 0x00016561   Thumb Code     0  APEngine.in(.text)
    CVpnApEngine::~CVpnApEngine__deallocating() 0x00016583   Thumb Code    16  APEngine.in(.text)
    CVpnApEngine::RemoveVpnProxyDataL(unsigned long) 0x00016593   Thumb Code   134  APEngine.in(.text)
    CVpnApEngine::WriteProxyDataL(int, const CVpnApItem&) 0x00016619   Thumb Code   354  APEngine.in(.text)
    CVpnApEngine::WriteVpnWapBearerDataL(int, CVpnApItem&) 0x0001677b   Thumb Code   452  APEngine.in(.text)
    CVpnApEngine::WriteVpnWapApDataL(int, CVpnApItem&) 0x0001693f   Thumb Code   182  APEngine.in(.text)
    CVpnApEngine::GetLocationIdL()           0x000169f5   Thumb Code    82  APEngine.in(.text)
    CVpnApEngine::WriteVpnIapRecordL(int, CVpnApItem&) 0x00016a47   Thumb Code   722  APEngine.in(.text)
    CVpnApEngine::WriteNetworkDataL(int, CVpnApItem&) 0x00016d19   Thumb Code   168  APEngine.in(.text)
    CVpnApEngine::CreateVirtBearerIfNeededL() 0x00016dc1   Thumb Code   238  APEngine.in(.text)
    CVpnApEngine::WriteVpnDataL(int, CVpnApItem&) 0x00016eaf   Thumb Code   462  APEngine.in(.text)
    CVpnApEngine::DoCreateVpnApL(int, CVpnApItem&) 0x0001707d   Thumb Code   268  APEngine.in(.text)
    CVpnApEngine::CreateVpnApL(CVpnApItem&)  0x00017189   Thumb Code    46  APEngine.in(.text)
    CVpnApEngine::CreateVpnApL(TDesC16&, unsigned long, TDesC16&, TDesC16*, unsigned long) 0x000171b7   Thumb Code   282  APEngine.in(.text)
    CVpnApEngine::RemoveRecordL(const TDesC16&, unsigned long) 0x000172d1   Thumb Code    64  APEngine.in(.text)
    CVpnApEngine::RemoveNetworkDataL(unsigned long) 0x00017311   Thumb Code    26  APEngine.in(.text)
    CVpnApEngine::DoDeleteVpnL(unsigned long) 0x0001732b   Thumb Code   540  APEngine.in(.text)
    CVpnApEngine::DeleteVpnL(unsigned long)  0x00017547   Thumb Code    40  APEngine.in(.text)
    CVpnApEngine::ReadProxyDataL(CVpnApItem&) 0x0001756f   Thumb Code   194  APEngine.in(.text)
    CVpnApEngine::ReadVpnDataL(CVpnApItem&)  0x00017631   Thumb Code   410  APEngine.in(.text)
    CVpnApEngine::ReadNetworkDataL(CVpnApItem&) 0x000177cb   Thumb Code   110  APEngine.in(.text)
    CVpnApEngine::ReadVpnIapRecordL(CVpnApItem&) 0x00017839   Thumb Code   112  APEngine.in(.text)
    CVpnApEngine::ReadVpnWapApDataL(CVpnApItem&) 0x000178a9   Thumb Code   168  APEngine.in(.text)
    CVpnApEngine::ReadVpnWapBearerDataL(unsigned long, CVpnApItem&) 0x00017951   Thumb Code    80  APEngine.in(.text)
    CVpnApEngine::VpnDataL(unsigned long, CVpnApItem&) 0x000179a1   Thumb Code    52  APEngine.in(.text)
    CVpnApEngine::UpdateVpnDataL(CVpnApItem&) 0x000179d5   Thumb Code    42  APEngine.in(.text)
    CVpnApEngine::IsVpnApL(unsigned long)    0x000179ff   Thumb Code   194  APEngine.in(.text)
    CVpnApEngine::Cvt()                      0x00017ac1   Thumb Code     4  APEngine.in(.text)
    _E32Dll_Body                             0x00017add   Thumb Code    34  uc_dll.o(.text)
    __DLL_Export_Table__                     0x00017c24   ARM Code       0  APEngine{000a0000}.exp(ExportTable)
    DLL##ExportTableSize                     0x00017c28   Data           0  APEngine{000a0000}.exp(ExportTable)
    DLL##ExportTable                         0x00017c2c   Data           0  APEngine{000a0000}.exp(ExportTable)
    CCommsDbConnectionPrefTableView::InsertConnectionPreferenceL(const CCommsDbConnectionPrefTableView::TCommDbIapConnectionPref&, int) 0x00017fdc   ARM Code       0  commdb{000a0000}-102.o(StubCode)
    CCommsDatabase::OpenConnectionPrefTableLC() 0x00017fe4   ARM Code       0  commdb{000a0000}-105.o(StubCode)
    CCommsDatabase::OpenConnectionPrefTableViewOnRankLC(TCommDbConnectionDirection, unsigned long) 0x00017fec   ARM Code       0  commdb{000a0000}-107.o(StubCode)
    CCommsDbConnectionPrefTableView::ReadConnectionPreferenceL(CCommsDbConnectionPrefTableView::TCommDbIapConnectionPref&) 0x00017ff4   ARM Code       0  commdb{000a0000}-109.o(StubCode)
    CCommsDbConnectionPrefTableView::UpdateBearerL(const CCommsDbConnectionPrefTableView::TCommDbIapBearer&, int) 0x00017ffc   ARM Code       0  commdb{000a0000}-116.o(StubCode)
    CCommsDbConnectionPrefTableView::TCommDbIapConnectionPref::TCommDbIapConnectionPref() 0x00018004   ARM Code       0  commdb{000a0000}-123.o(StubCode)
    CCommsDatabase::GetGlobalSettingL(const TDesC16&, unsigned long&) 0x0001800c   ARM Code       0  commdb{000a0000}-13.o(StubCode)
    CCommsDbProtectTableView::GetRecordAccess(int&) 0x00018014   ARM Code       0  commdb{000a0000}-132.o(StubCode)
    CCommsDbProtectTableView::GetTableAccess(RDbRowSet::TAccess&) 0x0001801c   ARM Code       0  commdb{000a0000}-133.o(StubCode)
    CCommsDbProtectTableView::ProtectRecord() 0x00018024   ARM Code       0  commdb{000a0000}-134.o(StubCode)
    CCommsDbProtectTableView::ProtectTable() 0x0001802c   ARM Code       0  commdb{000a0000}-135.o(StubCode)
    CCommsDbProtectTableView::UnprotectRecord() 0x00018034   ARM Code       0  commdb{000a0000}-136.o(StubCode)
    CCommsDbProtectTableView::UnprotectTable() 0x0001803c   ARM Code       0  commdb{000a0000}-137.o(StubCode)
    CCommsDbProtectConnectPrefTableView::GetTableAccess(RDbRowSet::TAccess&) 0x00018044   ARM Code       0  commdb{000a0000}-140.o(StubCode)
    CCommsDbProtectConnectPrefTableView::ProtectTable() 0x0001804c   ARM Code       0  commdb{000a0000}-142.o(StubCode)
    CCommsDbProtectConnectPrefTableView::UnprotectTable() 0x00018054   ARM Code       0  commdb{000a0000}-144.o(StubCode)
    CCommsDatabase::NewL()                   0x0001805c   ARM Code       0  commdb{000a0000}-153.o(StubCode)
    CCommsDatabase::NewL(int)                0x00018064   ARM Code       0  commdb{000a0000}-155.o(StubCode)
    CCommsDbTableView::GotoFirstRecord()     0x0001806c   ARM Code       0  commdb{000a0000}-18.o(StubCode)
    CCommsDbTableView::GotoNextRecord()      0x00018074   ARM Code       0  commdb{000a0000}-19.o(StubCode)
    CCommsDatabaseBase::InTransaction()      0x0001807c   ARM Code       0  commdb{000a0000}-21.o(StubCode)
    CCommsDbTableView::InsertRecord(unsigned long&) 0x00018084   ARM Code       0  commdb{000a0000}-22.o(StubCode)
    CCommsDatabaseBase::OpenTableLC(const TDesC16&) 0x0001808c   ARM Code       0  commdb{000a0000}-31.o(StubCode)
    CCommsDatabaseBase::OpenViewMatchingTextLC(const TDesC16&, const TDesC16&, const TDesC16&) 0x00018094   ARM Code       0  commdb{000a0000}-34.o(StubCode)
    CCommsDatabaseBase::OpenViewMatchingUintLC(const TDesC16&, const TDesC16&, unsigned long) 0x0001809c   ARM Code       0  commdb{000a0000}-36.o(StubCode)
    CCommsDbTableView::PutRecordChanges(int, int) 0x000180a4   ARM Code       0  commdb{000a0000}-37.o(StubCode)
    CCommsDbTableView::ReadBoolL(const TDesC16&, int&) 0x000180ac   ARM Code       0  commdb{000a0000}-38.o(StubCode)
    CCommsDatabaseBase::CancelRequestNotification() 0x000180b4   ARM Code       0  commdb{000a0000}-4.o(StubCode)
    CCommsDbTableView::ReadColumnLengthL(const TDesC16&, int&) 0x000180bc   ARM Code       0  commdb{000a0000}-40.o(StubCode)
    CCommsDbTableView::ReadLongTextLC(const TDesC16&) 0x000180c4   ARM Code       0  commdb{000a0000}-42.o(StubCode)
    CCommsDbTableView::ReadTextL(const TDesC16&, TDes8&) 0x000180cc   ARM Code       0  commdb{000a0000}-44.o(StubCode)
    CCommsDbTableView::ReadTextL(const TDesC16&, TDes16&) 0x000180d4   ARM Code       0  commdb{000a0000}-45.o(StubCode)
    CCommsDatabaseBase::CommitTransaction()  0x000180dc   ARM Code       0  commdb{000a0000}-5.o(StubCode)
    CCommsDbTableView::ReadUintL(const TDesC16&, unsigned long&) 0x000180e4   ARM Code       0  commdb{000a0000}-50.o(StubCode)
    CCommsDatabaseBase::RequestNotification(TRequestStatus&) 0x000180ec   ARM Code       0  commdb{000a0000}-52.o(StubCode)
    CCommsDatabaseBase::RollbackTransaction() 0x000180f4   ARM Code       0  commdb{000a0000}-56.o(StubCode)
    CCommsDbTableView::DeleteRecord()        0x000180fc   ARM Code       0  commdb{000a0000}-6.o(StubCode)
    CCommsDatabase::SetGlobalSettingL(const TDesC16&, unsigned long) 0x00018104   ARM Code       0  commdb{000a0000}-61.o(StubCode)
    CCommsDbTableView::UpdateRecord()        0x0001810c   ARM Code       0  commdb{000a0000}-69.o(StubCode)
    CCommsDbTableView::WriteBoolL(const TDesC16&, const int&) 0x00018114   ARM Code       0  commdb{000a0000}-71.o(StubCode)
    CCommsDbTableView::WriteLongTextL(const TDesC16&, const TDesC16&) 0x0001811c   ARM Code       0  commdb{000a0000}-73.o(StubCode)
    CCommsDbTableView::WriteTextL(const TDesC16&, const TDesC8&) 0x00018124   ARM Code       0  commdb{000a0000}-75.o(StubCode)
    CCommsDbTableView::WriteTextL(const TDesC16&, const TDesC16&) 0x0001812c   ARM Code       0  commdb{000a0000}-76.o(StubCode)
    CCommsDbTableView::WriteUintL(const TDesC16&, const unsigned long&) 0x00018134   ARM Code       0  commdb{000a0000}-79.o(StubCode)
    CCommsDatabaseBase::BeginTransaction()   0x0001813c   ARM Code       0  commdb{000a0000}-87.o(StubCode)
    CCommsDbConnectionPrefTableView::DeleteConnectionPreferenceL() 0x00018144   ARM Code       0  commdb{000a0000}-94.o(StubCode)
    CCommsDbConnectionPrefTableView::GotoFirstRecord() 0x0001814c   ARM Code       0  commdb{000a0000}-99.o(StubCode)
    TLex16::Val(long&)                       0x00018154   ARM Code       0  euser{000a0000}-1010.o(StubCode)
    TLex16::Assign(const TDesC16&)           0x0001815c   ARM Code       0  euser{000a0000}-1016.o(StubCode)
    CActive::Cancel()                        0x00018164   ARM Code       0  euser{000a0000}-1088.o(StubCode)
    CActive::RunError(int)                   0x0001816c   ARM Code       0  euser{000a0000}-1089.o(StubCode)
    CActive::SetActive()                     0x00018174   ARM Code       0  euser{000a0000}-1090.o(StubCode)
    CActive::CActive__sub_object(int)        0x0001817c   ARM Code       0  euser{000a0000}-1091.o(StubCode)
    CActive::~CActive__sub_object()          0x00018184   ARM Code       0  euser{000a0000}-1094.o(StubCode)
    HBufC16::Des()                           0x0001818c   ARM Code       0  euser{000a0000}-1116.o(StubCode)
    HBufC16::NewL(int)                       0x00018194   ARM Code       0  euser{000a0000}-1118.o(StubCode)
    HBufC16::NewLC(int)                      0x0001819c   ARM Code       0  euser{000a0000}-1119.o(StubCode)
    HBufC16::operator =(const TDesC16&)      0x000181a4   ARM Code       0  euser{000a0000}-1126.o(StubCode)
    TPtrC16::TPtrC16(const unsigned short*)  0x000181ac   ARM Code       0  euser{000a0000}-1169.o(StubCode)
    TPtrC16::TPtrC16(const unsigned short*, int) 0x000181b4   ARM Code       0  euser{000a0000}-1170.o(StubCode)
    TPtrC16::TPtrC16(const TDesC16&)         0x000181bc   ARM Code       0  euser{000a0000}-1171.o(StubCode)
    RHandleBase::Close()                     0x000181c4   ARM Code       0  euser{000a0000}-120.o(StubCode)
    CBufFlat::NewL(int)                      0x000181cc   ARM Code       0  euser{000a0000}-1253.o(StubCode)
    TBufBase8::TBufBase8(int, int)           0x000181d4   ARM Code       0  euser{000a0000}-1469.o(StubCode)
    CArrayFixBase::At(int) const             0x000181dc   ARM Code       0  euser{000a0000}-1553.o(StubCode)
    TDesC8::AtC(int) const                   0x000181e4   ARM Code       0  euser{000a0000}-1718.o(StubCode)
    TDesC8::Ptr() const                      0x000181ec   ARM Code       0  euser{000a0000}-1719.o(StubCode)
    TDesC8::Compare(const TDesC8&) const     0x000181f4   ARM Code       0  euser{000a0000}-1733.o(StubCode)
    TDesC16::LocateReverse(TChar) const      0x000181fc   ARM Code       0  euser{000a0000}-1803.o(StubCode)
    TDesC16::AtC(int) const                  0x00018204   ARM Code       0  euser{000a0000}-1806.o(StubCode)
    TDesC16::FindF(const TDesC16&) const     0x0001820c   ARM Code       0  euser{000a0000}-1815.o(StubCode)
    TDesC16::AllocL() const                  0x00018214   ARM Code       0  euser{000a0000}-1817.o(StubCode)
    TDesC16::Locate(TChar) const             0x0001821c   ARM Code       0  euser{000a0000}-1818.o(StubCode)
    TDesC16::AllocLC() const                 0x00018224   ARM Code       0  euser{000a0000}-1821.o(StubCode)
    TDesC16::Compare(const TDesC16&) const   0x0001822c   ARM Code       0  euser{000a0000}-1822.o(StubCode)
    TDesC16::CompareC(const TDesC16&) const  0x00018234   ARM Code       0  euser{000a0000}-1824.o(StubCode)
    CleanupStack::PopAndDestroy(int)         0x0001823c   ARM Code       0  euser{000a0000}-202.o(StubCode)
    CleanupStack::PopAndDestroy()            0x00018244   ARM Code       0  euser{000a0000}-203.o(StubCode)
    CleanupStack::Pop(int)                   0x0001824c   ARM Code       0  euser{000a0000}-204.o(StubCode)
    CleanupStack::Pop()                      0x00018254   ARM Code       0  euser{000a0000}-205.o(StubCode)
    User::MarkCleanupStack()                 0x0001825c   ARM Code       0  euser{000a0000}-2060.o(StubCode)
    User::UnMarkCleanupStack(TTrapHandler*)  0x00018264   ARM Code       0  euser{000a0000}-2061.o(StubCode)
    CleanupStack::PushL(TCleanupItem)        0x0001826c   ARM Code       0  euser{000a0000}-207.o(StubCode)
    CleanupStack::PushL(CBase*)              0x00018274   ARM Code       0  euser{000a0000}-208.o(StubCode)
    XLeaveException::GetReason() const       0x0001827c   ARM Code       0  euser{000a0000}-2082.o(StubCode)
    CleanupStack::PushL(void*)               0x00018284   ARM Code       0  euser{000a0000}-209.o(StubCode)
    TDesC16::Mid(int, int) const             0x0001828c   ARM Code       0  euser{000a0000}-2105.o(StubCode)
    TDesC16::Left(int) const                 0x00018294   ARM Code       0  euser{000a0000}-2106.o(StubCode)
    TDesC16::Right(int) const                0x0001829c   ARM Code       0  euser{000a0000}-2107.o(StubCode)
    CBase::Extension_(unsigned, void*&, void*) 0x000182a4   ARM Code       0  euser{000a0000}-2123.o(StubCode)
    CBase::~CBase()                          0x000182ac   ARM Code       0  euser{000a0000}-2125.o(StubCode)
    CActive::Extension_(unsigned, void*&, void*) 0x000182b4   ARM Code       0  euser{000a0000}-2128.o(StubCode)
    TKeyArrayFix::Set(CBufBase*, int)        0x000182bc   ARM Code       0  euser{000a0000}-217.o(StubCode)
    TKeyArrayFix::TKeyArrayFix(int, TKeyCmpText) 0x000182c4   ARM Code       0  euser{000a0000}-218.o(StubCode)
    CArrayFixBase::Sort(TKeyArrayFix&)       0x000182cc   ARM Code       0  euser{000a0000}-244.o(StubCode)
    CArrayFixBase::Reset()                   0x000182d4   ARM Code       0  euser{000a0000}-245.o(StubCode)
    CArrayFixBase::Delete(int)               0x000182dc   ARM Code       0  euser{000a0000}-247.o(StubCode)
    CArrayFixBase::InsertL(int, const void*) 0x000182e4   ARM Code       0  euser{000a0000}-250.o(StubCode)
    CArrayFixBase::CArrayFixBase(CBufBase*(*)(int), int, int) 0x000182ec   ARM Code       0  euser{000a0000}-254.o(StubCode)
    CArrayFixBase::~CArrayFixBase()          0x000182f4   ARM Code       0  euser{000a0000}-257.o(StubCode)
    CArrayFixFlat<int>::CArrayFixFlat(int)   0x000182fc   ARM Code       0  euser{000a0000}-264.o(StubCode)
    CActiveScheduler::Add(CActive*)          0x00018304   ARM Code       0  euser{000a0000}-424.o(StubCode)
    User::LeaveIfError(int)                  0x0001830c   ARM Code       0  euser{000a0000}-593.o(StubCode)
    User::After(TTimeIntervalMicroSeconds32) 0x00018314   ARM Code       0  euser{000a0000}-645.o(StubCode)
    User::Leave(int)                         0x0001831c   ARM Code       0  euser{000a0000}-649.o(StubCode)
    User::Panic(const TDesC16&, int)         0x00018324   ARM Code       0  euser{000a0000}-650.o(StubCode)
    User::AllocL(int)                        0x0001832c   ARM Code       0  euser{000a0000}-651.o(StubCode)
    User::AllocZL(int)                       0x00018334   ARM Code       0  euser{000a0000}-654.o(StubCode)
    User::Invariant()                        0x0001833c   ARM Code       0  euser{000a0000}-669.o(StubCode)
    TDes8::Append(TChar)                     0x00018344   ARM Code       0  euser{000a0000}-758.o(StubCode)
    TDes8::Format(TRefByValue<const TDesC8>, ...) 0x0001834c   ARM Code       0  euser{000a0000}-767.o(StubCode)
    TDes8::SetLength(int)                    0x00018354   ARM Code       0  euser{000a0000}-782.o(StubCode)
    TBufBase16::TBufBase16(const TDesC16&, int) 0x0001835c   ARM Code       0  euser{000a0000}-80.o(StubCode)
    TBufBase16::TBufBase16(int)              0x00018364   ARM Code       0  euser{000a0000}-81.o(StubCode)
    HBufC8::Des()                            0x0001836c   ARM Code       0  euser{000a0000}-891.o(StubCode)
    HBufC8::NewL(int)                        0x00018374   ARM Code       0  euser{000a0000}-893.o(StubCode)
    HBufC8::NewLC(int)                       0x0001837c   ARM Code       0  euser{000a0000}-894.o(StubCode)
    TDes16::Copy(const TDesC16&)             0x00018384   ARM Code       0  euser{000a0000}-953.o(StubCode)
    TDes16::Trim()                           0x0001838c   ARM Code       0  euser{000a0000}-959.o(StubCode)
    TDes16::Append(TChar)                    0x00018394   ARM Code       0  euser{000a0000}-966.o(StubCode)
    TDes16::Append(const TDesC16&)           0x0001839c   ARM Code       0  euser{000a0000}-968.o(StubCode)
    TDes16::Format(TRefByValue<const TDesC16>, ...) 0x000183a4   ARM Code       0  euser{000a0000}-973.o(StubCode)
    TDes16::SetLength(int)                   0x000183ac   ARM Code       0  euser{000a0000}-988.o(StubCode)
    RFs::Connect(int)                        0x000183b4   ARM Code       0  efsrv{000a0000}-68.o(StubCode)
    BaflUtils::NearestLanguageFile(const RFs&, TBuf<(int)256>&) 0x000183bc   ARM Code       0  bafl{000a0000}-276.o(StubCode)
    RResourceFile::AllocReadLC(int) const    0x000183c4   ARM Code       0  bafl{000a0000}-324.o(StubCode)
    RResourceFile::ConfirmSignatureL(int)    0x000183cc   ARM Code       0  bafl{000a0000}-66.o(StubCode)
    RResourceFile::Close()                   0x000183d4   ARM Code       0  bafl{000a0000}-68.o(StubCode)
    RResourceFile::OpenL(RFs&, const TDesC16&) 0x000183dc   ARM Code       0  bafl{000a0000}-69.o(StubCode)
    RResourceFile::RResourceFile()           0x000183e4   ARM Code       0  bafl{000a0000}-71.o(StubCode)
    TInetAddr::TInetAddr()                   0x000183ec   ARM Code       0  insock{000a0000}-13.o(StubCode)
    TInetAddr::Input(const TDesC16&)         0x000183f4   ARM Code       0  insock{000a0000}-3.o(StubCode)
    TInetAddr::Output(TDes16&) const         0x000183fc   ARM Code       0  insock{000a0000}-9.o(StubCode)
    RConnection::Open(RSocketServ&, unsigned) 0x00018404   ARM Code       0  esock{000a0000}-41.o(StubCode)
    RConnection::Close()                     0x0001840c   ARM Code       0  esock{000a0000}-46.o(StubCode)
    RConnection::RConnection()               0x00018414   ARM Code       0  esock{000a0000}-59.o(StubCode)
    RConnection::GetConnectionInfo(unsigned, TDes8&) 0x0001841c   ARM Code       0  esock{000a0000}-6.o(StubCode)
    RConnection::~RConnection()              0x00018424   ARM Code       0  esock{000a0000}-62.o(StubCode)
    RSocketServ::Connect(unsigned)           0x0001842c   ARM Code       0  esock{000a0000}-81.o(StubCode)
    RSocketServ::RSocketServ()               0x00018434   ARM Code       0  esock{000a0000}-82.o(StubCode)
    RConnection::EnumerateConnections(unsigned&) 0x0001843c   ARM Code       0  esock{000a0000}-9.o(StubCode)
    FeatureManager::InitializeLibL()         0x00018444   ARM Code       0  FeatMgr{000a0000}-1.o(StubCode)
    FeatureManager::UnInitializeLib()        0x0001844c   ARM Code       0  FeatMgr{000a0000}-2.o(StubCode)
    FeatureManager::FeatureSupported(int)    0x00018454   ARM Code       0  FeatMgr{000a0000}-3.o(StubCode)
    RVpnServ::Close()                        0x0001845c   ARM Code       0  vpnapi{000a0000}-10.o(StubCode)
    RVpnServ::Connect()                      0x00018464   ARM Code       0  vpnapi{000a0000}-11.o(StubCode)
    RVpnServ::RVpnServ()                     0x0001846c   ARM Code       0  vpnapi{000a0000}-12.o(StubCode)
    RVpnServ::GetPolicyDetails(const TBuf<(int)50>&, TVpnPolicyDetails&) 0x00018474   ARM Code       0  vpnapi{000a0000}-7.o(StubCode)
    RVpnServ::EnumeratePolicies(int&)        0x0001847c   ARM Code       0  vpnapi{000a0000}-8.o(StubCode)
    RVpnServ::GetPolicyInfoList(CArrayFixFlat<TVpnPolicyInfo>*) 0x00018484   ARM Code       0  vpnapi{000a0000}-9.o(StubCode)
    CRepository::NewL(TUid)                  0x0001848c   ARM Code       0  centralrepository{000a0000}-14.o(StubCode)
    CRepository::Get(unsigned long, int&)    0x00018494   ARM Code       0  centralrepository{000a0000}-9.o(StubCode)
    CWEPSecuritySettings::NewL()             0x0001849c   ARM Code       0  WEPSecuritySettingsUI{000a0000}-1.o(StubCode)
    CWEPSecuritySettings::SaveL(unsigned long, CCommsDatabase&) const 0x000184a4   ARM Code       0  WEPSecuritySettingsUI{000a0000}-12.o(StubCode)
    CWEPSecuritySettings::LoadL(unsigned long, CCommsDatabase&) 0x000184ac   ARM Code       0  WEPSecuritySettingsUI{000a0000}-3.o(StubCode)
    CWPASecuritySettings::NewL(TSecurityMode) 0x000184b4   ARM Code       0  WPASecuritySettingsUI{000a0000}-1.o(StubCode)
    CWPASecuritySettings::SaveL(unsigned long, CCommsDatabase&, TTypeOfSaving, unsigned long) const 0x000184bc   ARM Code       0  WPASecuritySettingsUI{000a0000}-12.o(StubCode)
    CWPASecuritySettings::DeleteL(unsigned long) const 0x000184c4   ARM Code       0  WPASecuritySettingsUI{000a0000}-13.o(StubCode)
    CWPASecuritySettings::LoadL(unsigned long, CCommsDatabase&) 0x000184cc   ARM Code       0  WPASecuritySettingsUI{000a0000}-3.o(StubCode)
    __aeabi_idivmod                          0x000184d4   ARM Code       0  drtaeabi{000a0000}-135.o(StubCode)
    __aeabi_memclr4                          0x000184dc   ARM Code       0  drtaeabi{000a0000}-144.o(StubCode)
    __aeabi_unwind_cpp_pr0                   0x000184e4   ARM Code       0  drtaeabi{000a0000}-158.o(StubCode)
    __aeabi_unwind_cpp_pr1                   0x000184ec   ARM Code       0  drtaeabi{000a0000}-159.o(StubCode)
    __cxa_begin_catch                        0x000184f4   ARM Code       0  drtaeabi{000a0000}-180.o(StubCode)
    __cxa_end_catch                          0x000184fc   ARM Code       0  drtaeabi{000a0000}-183.o(StubCode)
    __cxa_end_cleanup                        0x00018504   ARM Code       0  drtaeabi{000a0000}-184.o(StubCode)
    operator delete (void*)                  0x0001850c   ARM Code       0  scppnwdl{000a0000}-3.o(StubCode)
    __ARM_switch8                            0x00018514   ARM Code       0  drtrvct2_2{000a0000}-28.o(StubCode)
    CArrayFixFlat<TVpnPolicyInfo>::~CArrayFixFlat__deallocating() 0x0001851d   Thumb Code    16  APEngine.in(i._ZN13CArrayFixFlatI14TVpnPolicyInfoED0Ev)
    CArrayFixFlat<TVpnPolicyInfo>::~CArrayFixFlat() 0x0001852d   Thumb Code     8  APEngine.in(i._ZN13CArrayFixFlatI14TVpnPolicyInfoED1Ev)
    CArrayFixFlat<TVpnPolicyInfo>::~CArrayFixFlat__sub_object() 0x0001852d   Thumb Code     0  APEngine.in(i._ZN13CArrayFixFlatI14TVpnPolicyInfoED1Ev)
    CArrayFixFlat<TVpnData>::~CArrayFixFlat__deallocating() 0x00018535   Thumb Code    16  APEngine.in(i._ZN13CArrayFixFlatI8TVpnDataED0Ev)
    CArrayFixFlat<TVpnData>::~CArrayFixFlat() 0x00018545   Thumb Code     8  APEngine.in(i._ZN13CArrayFixFlatI8TVpnDataED1Ev)
    CArrayFixFlat<TVpnData>::~CArrayFixFlat__sub_object() 0x00018545   Thumb Code     0  APEngine.in(i._ZN13CArrayFixFlatI8TVpnDataED1Ev)
    CArrayFixFlat<unsigned long[3]>::~CArrayFixFlat__deallocating() 0x0001854d   Thumb Code    16  APEngine.in(i._ZN13CArrayFixFlatIA3_mED0Ev)
    CArrayFixFlat<unsigned long[3]>::~CArrayFixFlat() 0x0001855d   Thumb Code     8  APEngine.in(i._ZN13CArrayFixFlatIA3_mED1Ev)
    CArrayFixFlat<unsigned long[3]>::~CArrayFixFlat__sub_object() 0x0001855d   Thumb Code     0  APEngine.in(i._ZN13CArrayFixFlatIA3_mED1Ev)
    CArrayFixFlat<unsigned long>::~CArrayFixFlat__deallocating() 0x00018565   Thumb Code    16  APEngine.in(i._ZN13CArrayFixFlatImED0Ev)
    CArrayFixFlat<unsigned long>::~CArrayFixFlat() 0x00018575   Thumb Code     8  APEngine.in(i._ZN13CArrayFixFlatImED1Ev)
    CArrayFixFlat<unsigned long>::~CArrayFixFlat__sub_object() 0x00018575   Thumb Code     0  APEngine.in(i._ZN13CArrayFixFlatImED1Ev)
    CArrayPtrFlat<CApListItem>::~CArrayPtrFlat() 0x0001857d   Thumb Code     8  APEngine.in(i._ZN13CArrayPtrFlatI11CApListItemED1Ev)
    CArrayPtrFlat<CApListItem>::~CArrayPtrFlat__sub_object() 0x0001857d   Thumb Code     0  APEngine.in(i._ZN13CArrayPtrFlatI11CApListItemED1Ev)
    CArrayPtrFlat<CApNetworkItem>::~CArrayPtrFlat() 0x00018585   Thumb Code     8  APEngine.in(i._ZN13CArrayPtrFlatI14CApNetworkItemED1Ev)
    CArrayPtrFlat<CApNetworkItem>::~CArrayPtrFlat__sub_object() 0x00018585   Thumb Code     0  APEngine.in(i._ZN13CArrayPtrFlatI14CApNetworkItemED1Ev)
    CArrayPtrFlat<MActiveApDbObserver>::~CArrayPtrFlat__deallocating() 0x0001858d   Thumb Code    16  APEngine.in(i._ZN13CArrayPtrFlatI19MActiveApDbObserverED0Ev)
    CArrayPtrFlat<MActiveApDbObserver>::~CArrayPtrFlat() 0x0001859d   Thumb Code     8  APEngine.in(i._ZN13CArrayPtrFlatI19MActiveApDbObserverED1Ev)
    CArrayPtrFlat<MActiveApDbObserver>::~CArrayPtrFlat__sub_object() 0x0001859d   Thumb Code     0  APEngine.in(i._ZN13CArrayPtrFlatI19MActiveApDbObserverED1Ev)
    CArrayPtrFlat<HBufC16>::~CArrayPtrFlat__deallocating() 0x000185a5   Thumb Code    16  APEngine.in(i._ZN13CArrayPtrFlatI7HBufC16ED0Ev)
    CArrayPtrFlat<HBufC16>::~CArrayPtrFlat() 0x000185b5   Thumb Code     8  APEngine.in(i._ZN13CArrayPtrFlatI7HBufC16ED1Ev)
    CArrayPtrFlat<HBufC16>::~CArrayPtrFlat__sub_object() 0x000185b5   Thumb Code     0  APEngine.in(i._ZN13CArrayPtrFlatI7HBufC16ED1Ev)
    TLex16::TLex16(const TDesC16&)           0x000185bd   Thumb Code    16  APEngine.in(i._ZN6TLex16C1ERK7TDesC16)
    TLex16::TLex16__sub_object(const TDesC16&) 0x000185bd   Thumb Code     0  APEngine.in(i._ZN6TLex16C1ERK7TDesC16)
    TPtr16::TPtr16(const TPtr16&)            0x000185cd   Thumb Code    14  APEngine.in(i._ZN6TPtr16C1ERKS_)
    TPtr16::TPtr16__sub_object(const TPtr16&) 0x000185cd   Thumb Code     0  APEngine.in(i._ZN6TPtr16C1ERKS_)
    CArrayFix<TVpnPolicyInfo>::~CArrayFix()  0x000185db   Thumb Code     8  APEngine.in(i._ZN9CArrayFixI14TVpnPolicyInfoED1Ev)
    CArrayFix<TVpnPolicyInfo>::~CArrayFix__sub_object() 0x000185db   Thumb Code     0  APEngine.in(i._ZN9CArrayFixI14TVpnPolicyInfoED1Ev)
    CArrayFix<TVpnData>::~CArrayFix()        0x000185e3   Thumb Code     8  APEngine.in(i._ZN9CArrayFixI8TVpnDataED1Ev)
    CArrayFix<TVpnData>::~CArrayFix__sub_object() 0x000185e3   Thumb Code     0  APEngine.in(i._ZN9CArrayFixI8TVpnDataED1Ev)
    CArrayFix<unsigned long[3]>::~CArrayFix() 0x000185eb   Thumb Code     8  APEngine.in(i._ZN9CArrayFixIA3_mED1Ev)
    CArrayFix<unsigned long[3]>::~CArrayFix__sub_object() 0x000185eb   Thumb Code     0  APEngine.in(i._ZN9CArrayFixIA3_mED1Ev)
    CArrayFix<CApListItem*>::~CArrayFix()    0x000185f3   Thumb Code     8  APEngine.in(i._ZN9CArrayFixIP11CApListItemED1Ev)
    CArrayFix<CApListItem*>::~CArrayFix__sub_object() 0x000185f3   Thumb Code     0  APEngine.in(i._ZN9CArrayFixIP11CApListItemED1Ev)
    CArrayFix<CApNetworkItem*>::~CArrayFix() 0x000185fb   Thumb Code     8  APEngine.in(i._ZN9CArrayFixIP14CApNetworkItemED1Ev)
    CArrayFix<CApNetworkItem*>::~CArrayFix__sub_object() 0x000185fb   Thumb Code     0  APEngine.in(i._ZN9CArrayFixIP14CApNetworkItemED1Ev)
    CArrayFix<MActiveApDbObserver*>::~CArrayFix() 0x00018603   Thumb Code     8  APEngine.in(i._ZN9CArrayFixIP19MActiveApDbObserverED1Ev)
    CArrayFix<MActiveApDbObserver*>::~CArrayFix__sub_object() 0x00018603   Thumb Code     0  APEngine.in(i._ZN9CArrayFixIP19MActiveApDbObserverED1Ev)
    CArrayFix<HBufC16*>::~CArrayFix()        0x0001860b   Thumb Code     8  APEngine.in(i._ZN9CArrayFixIP7HBufC16ED1Ev)
    CArrayFix<HBufC16*>::~CArrayFix__sub_object() 0x0001860b   Thumb Code     0  APEngine.in(i._ZN9CArrayFixIP7HBufC16ED1Ev)
    CArrayFix<unsigned long>::~CArrayFix()   0x00018613   Thumb Code     8  APEngine.in(i._ZN9CArrayFixImED1Ev)
    CArrayFix<unsigned long>::~CArrayFix__sub_object() 0x00018613   Thumb Code     0  APEngine.in(i._ZN9CArrayFixImED1Ev)
    CArrayPtr<CApListItem>::~CArrayPtr()     0x0001861b   Thumb Code     8  APEngine.in(i._ZN9CArrayPtrI11CApListItemED1Ev)
    CArrayPtr<CApListItem>::~CArrayPtr__sub_object() 0x0001861b   Thumb Code     0  APEngine.in(i._ZN9CArrayPtrI11CApListItemED1Ev)
    CArrayPtr<CApNetworkItem>::~CArrayPtr()  0x00018623   Thumb Code     8  APEngine.in(i._ZN9CArrayPtrI14CApNetworkItemED1Ev)
    CArrayPtr<CApNetworkItem>::~CArrayPtr__sub_object() 0x00018623   Thumb Code     0  APEngine.in(i._ZN9CArrayPtrI14CApNetworkItemED1Ev)
    CArrayPtr<MActiveApDbObserver>::~CArrayPtr() 0x0001862b   Thumb Code     8  APEngine.in(i._ZN9CArrayPtrI19MActiveApDbObserverED1Ev)
    CArrayPtr<MActiveApDbObserver>::~CArrayPtr__sub_object() 0x0001862b   Thumb Code     0  APEngine.in(i._ZN9CArrayPtrI19MActiveApDbObserverED1Ev)
    CArrayPtr<HBufC16>::~CArrayPtr()         0x00018633   Thumb Code     8  APEngine.in(i._ZN9CArrayPtrI7HBufC16ED1Ev)
    CArrayPtr<HBufC16>::~CArrayPtr__sub_object() 0x00018633   Thumb Code     0  APEngine.in(i._ZN9CArrayPtrI7HBufC16ED1Ev)
    TDesC8::operator [](int) const           0x0001863b   Thumb Code     8  APEngine.in(i._ZNK6TDesC8ixEi)
    TDesC16::operator ==(const TDesC16&) const 0x00018643   Thumb Code    18  APEngine.in(i._ZNK7TDesC16eqERKS_)
    operator new(unsigned, void*)            0x00018655   Thumb Code     4  APEngine.in(i._ZnwjPv)
    CleanupClosePushL<RVpnServ>(T1&)         0x00018659   Thumb Code    12  APEngine.in(t._Z17CleanupClosePushLI8RVpnServEvRT_)
    CleanupClose<RResourceFile>::Close(void*) 0x00018669   Thumb Code     8  APEngine.in(t._ZN12CleanupCloseI13RResourceFileE5CloseEPv)
    CleanupClose<RFs>::Close(void*)          0x00018671   Thumb Code     8  APEngine.in(t._ZN12CleanupCloseI3RFsE5CloseEPv)
    CleanupClose<RVpnServ>::Close(void*)     0x00018679   Thumb Code     8  APEngine.in(t._ZN12CleanupCloseI8RVpnServE5CloseEPv)
    CArrayFixFlat<unsigned long>::CArrayFixFlat(int) 0x00018681   Thumb Code    18  APEngine.in(t._ZN13CArrayFixFlatImEC1Ei)
    CArrayFixFlat<unsigned long>::CArrayFixFlat__sub_object(int) 0x00018681   Thumb Code     0  APEngine.in(t._ZN13CArrayFixFlatImEC1Ei)
    CArrayPtrFlat<HBufC16>::CArrayPtrFlat(int) 0x0001869d   Thumb Code    18  APEngine.in(t._ZN13CArrayPtrFlatI7HBufC16EC1Ei)
    CArrayPtrFlat<HBufC16>::CArrayPtrFlat__sub_object(int) 0x0001869d   Thumb Code     0  APEngine.in(t._ZN13CArrayPtrFlatI7HBufC16EC1Ei)
    TBuf<(int)128>::TBuf()                   0x000186b9   Thumb Code    10  APEngine.in(t._ZN4TBufILi128EEC1Ev)
    TBuf<(int)128>::TBuf__sub_object()       0x000186b9   Thumb Code     0  APEngine.in(t._ZN4TBufILi128EEC1Ev)
    CArrayFix<unsigned long[3]>::At(int)     0x000186c3   Thumb Code     8  APEngine.in(t._ZN9CArrayFixIA3_mE2AtEi)
    CArrayFix<CApListItem*>::At(int)         0x000186cb   Thumb Code     8  APEngine.in(t._ZN9CArrayFixIP11CApListItemE2AtEi)
    CArrayFix<CApListItem*>::AppendL(CApListItem*const &) 0x000186d3   Thumb Code    12  APEngine.in(t._ZN9CArrayFixIP11CApListItemE7AppendLERKS1_)
    CArrayFix<HBufC16*>::At(int)             0x000186df   Thumb Code     8  APEngine.in(t._ZN9CArrayFixIP7HBufC16E2AtEi)
    CArrayFix<int>::At(int)                  0x000186e7   Thumb Code     8  APEngine.in(t._ZN9CArrayFixIiE2AtEi)
    CArrayFix<unsigned long>::At(int)        0x000186ef   Thumb Code     8  APEngine.in(t._ZN9CArrayFixImE2AtEi)
    CArrayPtr<CApListItem>::ResetAndDestroy() 0x000186f7   Thumb Code    44  APEngine.in(t._ZN9CArrayPtrI11CApListItemE15ResetAndDestroyEv)
    CArrayPtr<CApNetworkItem>::ResetAndDestroy() 0x00018723   Thumb Code    44  APEngine.in(t._ZN9CArrayPtrI14CApNetworkItemE15ResetAndDestroyEv)
    typeinfo for CVpnApItem                  0x00019804   Data          12  APEngine.in(.constdata__ZTI10CVpnApItem)
    typeinfo for CActiveApDb                 0x00019810   Data          12  APEngine.in(.constdata__ZTI11CActiveApDb)
    typeinfo for CApListItem                 0x0001981c   Data          12  APEngine.in(.constdata__ZTI11CApListItem)
    typeinfo for CApNetworks                 0x00019828   Data          12  APEngine.in(.constdata__ZTI11CApNetworks)
    typeinfo for CApItemExtra                0x00019834   Data          12  APEngine.in(.constdata__ZTI12CApItemExtra)
    typeinfo for CVpnApEngine                0x00019840   Data          12  APEngine.in(.constdata__ZTI12CVpnApEngine)
    typeinfo for CArrayFixFlat<TVpnPolicyInfo> 0x0001984c   Data          12  APEngine.in(.constdata__ZTI13CArrayFixFlatI14TVpnPolicyInfoE)
    typeinfo for CArrayFixFlat<TVpnData>     0x00019858   Data          12  APEngine.in(.constdata__ZTI13CArrayFixFlatI8TVpnDataE)
    typeinfo for CArrayFixFlat<unsigned long[3]> 0x00019864   Data          12  APEngine.in(.constdata__ZTI13CArrayFixFlatIA3_mE)
    typeinfo for CArrayFixFlat<unsigned long> 0x00019870   Data          12  APEngine.in(.constdata__ZTI13CArrayFixFlatImE)
    typeinfo for CArrayPtrFlat<CApListItem>  0x0001987c   Data          12  APEngine.in(.constdata__ZTI13CArrayPtrFlatI11CApListItemE)
    typeinfo for CArrayPtrFlat<CApNetworkItem> 0x00019888   Data          12  APEngine.in(.constdata__ZTI13CArrayPtrFlatI14CApNetworkItemE)
    typeinfo for CArrayPtrFlat<MActiveApDbObserver> 0x00019894   Data          12  APEngine.in(.constdata__ZTI13CArrayPtrFlatI19MActiveApDbObserverE)
    typeinfo for CArrayPtrFlat<HBufC16>      0x000198a0   Data          12  APEngine.in(.constdata__ZTI13CArrayPtrFlatI7HBufC16E)
    typeinfo for CApDataHandler              0x000198ac   Data          12  APEngine.in(.constdata__ZTI14CApDataHandler)
    typeinfo for CApNetworkItem              0x000198b8   Data          12  APEngine.in(.constdata__ZTI14CApNetworkItem)
    typeinfo for CApItemCdmaData             0x000198c4   Data          12  APEngine.in(.constdata__ZTI15CApItemCdmaData)
    typeinfo for CApItemWlanData             0x000198d0   Data          12  APEngine.in(.constdata__ZTI15CApItemWlanData)
    typeinfo for CApListItemList             0x000198dc   Data          12  APEngine.in(.constdata__ZTI15CApListItemList)
    typeinfo for TApListItemUidKey           0x000198e8   Data          12  APEngine.in(.constdata__ZTI17TApListItemUidKey)
    typeinfo for CApAccessPointItem          0x000198f4   Data          12  APEngine.in(.constdata__ZTI18CApAccessPointItem)
    typeinfo for CApNetworkItemList          0x00019900   Data          12  APEngine.in(.constdata__ZTI18CApNetworkItemList)
    typeinfo for TApListItemNameKey          0x0001990c   Data          12  APEngine.in(.constdata__ZTI18TApListItemNameKey)
    typeinfo for CActiveApDbNotifier         0x00019918   Data          12  APEngine.in(.constdata__ZTI19CActiveApDbNotifier)
    typeinfo for CApUtils                    0x00019924   Data          12  APEngine.in(.constdata__ZTI8CApUtils)
    typeinfo for CApSelect                   0x00019930   Data          12  APEngine.in(.constdata__ZTI9CApSelect)
    typeinfo for CArrayFix<TVpnPolicyInfo>   0x0001993c   Data          12  APEngine.in(.constdata__ZTI9CArrayFixI14TVpnPolicyInfoE)
    typeinfo for CArrayFix<TVpnData>         0x00019948   Data          12  APEngine.in(.constdata__ZTI9CArrayFixI8TVpnDataE)
    typeinfo for CArrayFix<unsigned long[3]> 0x00019954   Data          12  APEngine.in(.constdata__ZTI9CArrayFixIA3_mE)
    typeinfo for CArrayFix<CApListItem*>     0x00019960   Data          12  APEngine.in(.constdata__ZTI9CArrayFixIP11CApListItemE)
    typeinfo for CArrayFix<CApNetworkItem*>  0x0001996c   Data          12  APEngine.in(.constdata__ZTI9CArrayFixIP14CApNetworkItemE)
    typeinfo for CArrayFix<MActiveApDbObserver*> 0x00019978   Data          12  APEngine.in(.constdata__ZTI9CArrayFixIP19MActiveApDbObserverE)
    typeinfo for CArrayFix<HBufC16*>         0x00019984   Data          12  APEngine.in(.constdata__ZTI9CArrayFixIP7HBufC16E)
    typeinfo for CArrayFix<unsigned long>    0x00019990   Data          12  APEngine.in(.constdata__ZTI9CArrayFixImE)
    typeinfo for CArrayPtr<CApListItem>      0x0001999c   Data          12  APEngine.in(.constdata__ZTI9CArrayPtrI11CApListItemE)
    typeinfo for CArrayPtr<CApNetworkItem>   0x000199a8   Data          12  APEngine.in(.constdata__ZTI9CArrayPtrI14CApNetworkItemE)
    typeinfo for CArrayPtr<MActiveApDbObserver> 0x000199b4   Data          12  APEngine.in(.constdata__ZTI9CArrayPtrI19MActiveApDbObserverE)
    typeinfo for CArrayPtr<HBufC16>          0x000199c0   Data          12  APEngine.in(.constdata__ZTI9CArrayPtrI7HBufC16E)
    typeinfo name for CVpnApItem             0x000199cc   Data          13  APEngine.in(.constdata__ZTS10CVpnApItem)
    typeinfo name for CActiveApDb            0x000199d9   Data          14  APEngine.in(.constdata__ZTS11CActiveApDb)
    typeinfo name for CApListItem            0x000199e7   Data          14  APEngine.in(.constdata__ZTS11CApListItem)
    typeinfo name for CApNetworks            0x000199f5   Data          14  APEngine.in(.constdata__ZTS11CApNetworks)
    typeinfo name for CApItemExtra           0x00019a03   Data          15  APEngine.in(.constdata__ZTS12CApItemExtra)
    typeinfo name for CVpnApEngine           0x00019a12   Data          15  APEngine.in(.constdata__ZTS12CVpnApEngine)
    typeinfo name for CArrayFixFlat<TVpnPolicyInfo> 0x00019a21   Data          34  APEngine.in(.constdata__ZTS13CArrayFixFlatI14TVpnPolicyInfoE)
    typeinfo name for CArrayFixFlat<TVpnData> 0x00019a43   Data          27  APEngine.in(.constdata__ZTS13CArrayFixFlatI8TVpnDataE)
    typeinfo name for CArrayFixFlat<unsigned long[3]> 0x00019a5e   Data          22  APEngine.in(.constdata__ZTS13CArrayFixFlatIA3_mE)
    typeinfo name for CArrayFixFlat<unsigned long> 0x00019a74   Data          19  APEngine.in(.constdata__ZTS13CArrayFixFlatImE)
    typeinfo name for CArrayPtrFlat<CApListItem> 0x00019a87   Data          31  APEngine.in(.constdata__ZTS13CArrayPtrFlatI11CApListItemE)
    typeinfo name for CArrayPtrFlat<CApNetworkItem> 0x00019aa6   Data          34  APEngine.in(.constdata__ZTS13CArrayPtrFlatI14CApNetworkItemE)
    typeinfo name for CArrayPtrFlat<MActiveApDbObserver> 0x00019ac8   Data          39  APEngine.in(.constdata__ZTS13CArrayPtrFlatI19MActiveApDbObserverE)
    typeinfo name for CArrayPtrFlat<HBufC16> 0x00019aef   Data          26  APEngine.in(.constdata__ZTS13CArrayPtrFlatI7HBufC16E)
    typeinfo name for CApDataHandler         0x00019b09   Data          17  APEngine.in(.constdata__ZTS14CApDataHandler)
    typeinfo name for CApNetworkItem         0x00019b1a   Data          17  APEngine.in(.constdata__ZTS14CApNetworkItem)
    typeinfo name for CApItemCdmaData        0x00019b2b   Data          18  APEngine.in(.constdata__ZTS15CApItemCdmaData)
    typeinfo name for CApItemWlanData        0x00019b3d   Data          18  APEngine.in(.constdata__ZTS15CApItemWlanData)
    typeinfo name for CApListItemList        0x00019b4f   Data          18  APEngine.in(.constdata__ZTS15CApListItemList)
    typeinfo name for TApListItemUidKey      0x00019b61   Data          20  APEngine.in(.constdata__ZTS17TApListItemUidKey)
    typeinfo name for CApAccessPointItem     0x00019b75   Data          21  APEngine.in(.constdata__ZTS18CApAccessPointItem)
    typeinfo name for CApNetworkItemList     0x00019b8a   Data          21  APEngine.in(.constdata__ZTS18CApNetworkItemList)
    typeinfo name for TApListItemNameKey     0x00019b9f   Data          21  APEngine.in(.constdata__ZTS18TApListItemNameKey)
    typeinfo name for CActiveApDbNotifier    0x00019bb4   Data          22  APEngine.in(.constdata__ZTS19CActiveApDbNotifier)
    typeinfo name for CApUtils               0x00019bca   Data          10  APEngine.in(.constdata__ZTS8CApUtils)
    typeinfo name for CApSelect              0x00019bd4   Data          11  APEngine.in(.constdata__ZTS9CApSelect)
    typeinfo name for CArrayFix<TVpnPolicyInfo> 0x00019bdf   Data          29  APEngine.in(.constdata__ZTS9CArrayFixI14TVpnPolicyInfoE)
    typeinfo name for CArrayFix<TVpnData>    0x00019bfc   Data          22  APEngine.in(.constdata__ZTS9CArrayFixI8TVpnDataE)
    typeinfo name for CArrayFix<unsigned long[3]> 0x00019c12   Data          17  APEngine.in(.constdata__ZTS9CArrayFixIA3_mE)
    typeinfo name for CArrayFix<CApListItem*> 0x00019c23   Data          27  APEngine.in(.constdata__ZTS9CArrayFixIP11CApListItemE)
    typeinfo name for CArrayFix<CApNetworkItem*> 0x00019c3e   Data          30  APEngine.in(.constdata__ZTS9CArrayFixIP14CApNetworkItemE)
    typeinfo name for CArrayFix<MActiveApDbObserver*> 0x00019c5c   Data          35  APEngine.in(.constdata__ZTS9CArrayFixIP19MActiveApDbObserverE)
    typeinfo name for CArrayFix<HBufC16*>    0x00019c7f   Data          22  APEngine.in(.constdata__ZTS9CArrayFixIP7HBufC16E)
    typeinfo name for CArrayFix<unsigned long> 0x00019c95   Data          14  APEngine.in(.constdata__ZTS9CArrayFixImE)
    typeinfo name for CArrayPtr<CApListItem> 0x00019ca3   Data          26  APEngine.in(.constdata__ZTS9CArrayPtrI11CApListItemE)
    typeinfo name for CArrayPtr<CApNetworkItem> 0x00019cbd   Data          29  APEngine.in(.constdata__ZTS9CArrayPtrI14CApNetworkItemE)
    typeinfo name for CArrayPtr<MActiveApDbObserver> 0x00019cda   Data          34  APEngine.in(.constdata__ZTS9CArrayPtrI19MActiveApDbObserverE)
    typeinfo name for CArrayPtr<HBufC16>     0x00019cfc   Data          21  APEngine.in(.constdata__ZTS9CArrayPtrI7HBufC16E)
    vtable for CVpnApItem                    0x00019d14   Data          20  APEngine.in(.constdata__ZTV10CVpnApItem)
    vtable for CActiveApDb                   0x00019d28   Data          20  APEngine.in(.constdata__ZTV11CActiveApDb)
    vtable for CApListItem                   0x00019d3c   Data          20  APEngine.in(.constdata__ZTV11CApListItem)
    vtable for CApNetworks                   0x00019d50   Data          20  APEngine.in(.constdata__ZTV11CApNetworks)
    vtable for CApItemExtra                  0x00019d64   Data          20  APEngine.in(.constdata__ZTV12CApItemExtra)
    vtable for CVpnApEngine                  0x00019d78   Data          20  APEngine.in(.constdata__ZTV12CVpnApEngine)
    vtable for CArrayFixFlat<TVpnPolicyInfo> 0x00019d8c   Data          20  APEngine.in(.constdata__ZTV13CArrayFixFlatI14TVpnPolicyInfoE)
    vtable for CArrayFixFlat<TVpnData>       0x00019da0   Data          20  APEngine.in(.constdata__ZTV13CArrayFixFlatI8TVpnDataE)
    vtable for CArrayFixFlat<unsigned long[3]> 0x00019db4   Data          20  APEngine.in(.constdata__ZTV13CArrayFixFlatIA3_mE)
    vtable for CArrayFixFlat<unsigned long>  0x00019dc8   Data          20  APEngine.in(.constdata__ZTV13CArrayFixFlatImE)
    vtable for CArrayPtrFlat<MActiveApDbObserver> 0x00019ddc   Data          20  APEngine.in(.constdata__ZTV13CArrayPtrFlatI19MActiveApDbObserverE)
    vtable for CArrayPtrFlat<HBufC16>        0x00019df0   Data          20  APEngine.in(.constdata__ZTV13CArrayPtrFlatI7HBufC16E)
    vtable for CApDataHandler                0x00019e04   Data          20  APEngine.in(.constdata__ZTV14CApDataHandler)
    vtable for CApNetworkItem                0x00019e18   Data          20  APEngine.in(.constdata__ZTV14CApNetworkItem)
    vtable for CApItemCdmaData               0x00019e2c   Data          20  APEngine.in(.constdata__ZTV15CApItemCdmaData)
    vtable for CApItemWlanData               0x00019e40   Data          20  APEngine.in(.constdata__ZTV15CApItemWlanData)
    vtable for CApListItemList               0x00019e54   Data          20  APEngine.in(.constdata__ZTV15CApListItemList)
    vtable for TApListItemUidKey             0x00019e68   Data          20  APEngine.in(.constdata__ZTV17TApListItemUidKey)
    vtable for CApAccessPointItem            0x00019e7c   Data          20  APEngine.in(.constdata__ZTV18CApAccessPointItem)
    vtable for CApNetworkItemList            0x00019e90   Data          20  APEngine.in(.constdata__ZTV18CApNetworkItemList)
    vtable for TApListItemNameKey            0x00019ea4   Data          20  APEngine.in(.constdata__ZTV18TApListItemNameKey)
    vtable for CActiveApDbNotifier           0x00019eb8   Data          32  APEngine.in(.constdata__ZTV19CActiveApDbNotifier)
    vtable for CApUtils                      0x00019ed8   Data          20  APEngine.in(.constdata__ZTV8CApUtils)
    vtable for CApSelect                     0x00019eec   Data          20  APEngine.in(.constdata__ZTV9CApSelect)
    .ARM.exidx$$Base                         0x00019f00   Number         0  ucppinit_aeabi.o(.ARM.exidx)
    .ARM.exidx$$Limit                        0x0001a7b8   Number         0  APEngine.in(.ARM.exidx)
    Image$$ER_RO$$Limit                      0x0001a7b8   Number         0  anon$$obj.o(linker$$defined$$symbols)

