ARM Linker, RVCT2.2 [Build 616]

================================================================================

Image Symbol Table

    Local Symbols

    Symbol Name                              Value     Ov Type        Size  Object(Section)

    ../../unhosted.s                         0x00000000   Number         0  switch8.o ABSOLUTE
    \EPOC32\BUILD\src\cedar\generic\base\e32\euser\EDLL\ARMV5\urel\uc_dll_.cpp 0x00000000   Number         0  uc_dll_.o ABSOLUTE
    \\EPOC32\\BUILD\\src\\cedar\\generic\\base\\e32\\euser\\EDLL\\ARMV5\\urel\\uc_dll_.cpp 0x00000000   Number         0  uc_dll_.o ABSOLUTE
    \\src\\cedar\\generic\\base\\e32\\compsupp\\RVCT2_2\\ucppinit_aeabi.cpp 0x00000000   Number         0  ucppinit_aeabi.o ABSOLUTE
    \src\cedar\generic\base\e32\compsupp\RVCT2_2\dllexp.cpp 0x00000000   Number         0  dllexp.o ABSOLUTE
    \src\cedar\generic\base\e32\compsupp\RVCT2_2\ucppinit_aeabi.cpp 0x00000000   Number         0  ucppinit_aeabi.o ABSOLUTE
    \src\cedar\generic\base\e32\euser\EPOC\up_dll_tls.cpp 0x00000000   Number         0  up_dll_tls.o ABSOLUTE
    \src\cedar\generic\base\e32\euser\epoc\arm\uc_dll.cpp 0x00000000   Number         0  uc_dll.o ABSOLUTE
    \src\common\generic\app-framework\apparc\apgrfx\apgair.cpp 0x00000000   Number         0  APGAIR.o ABSOLUTE
    \src\common\generic\app-framework\apparc\apgrfx\apgairv2.cpp 0x00000000   Number         0  APGAIRV2.o ABSOLUTE
    \src\common\generic\app-framework\apparc\apgrfx\apgaplstv2.cpp 0x00000000   Number         0  APGAPLSTV2.o ABSOLUTE
    \src\common\generic\app-framework\apparc\apgrfx\apgcli.cpp 0x00000000   Number         0  APGCLI.o ABSOLUTE
    \src\common\generic\app-framework\apparc\apgrfx\apgconstdata.cpp 0x00000000   Number         0  apgconstdata.o ABSOLUTE
    \src\common\generic\app-framework\apparc\apgrfx\apgctl.cpp 0x00000000   Number         0  APGCTL.o ABSOLUTE
    \src\common\generic\app-framework\apparc\apgrfx\apgdoor.cpp 0x00000000   Number         0  APGDOOR.o ABSOLUTE
    \src\common\generic\app-framework\apparc\apgrfx\apgicnfl.cpp 0x00000000   Number         0  APGICNFL.o ABSOLUTE
    \src\common\generic\app-framework\apparc\apgrfx\apgnotif.cpp 0x00000000   Number         0  apgnotif.o ABSOLUTE
    \src\common\generic\app-framework\apparc\apgrfx\apgpriv.cpp 0x00000000   Number         0  APGPRIV.o ABSOLUTE
    \src\common\generic\app-framework\apparc\apgrfx\apgstd.cpp 0x00000000   Number         0  APGSTD.o ABSOLUTE
    \src\common\generic\app-framework\apparc\apgrfx\apgtask.cpp 0x00000000   Number         0  APGTASK.o ABSOLUTE
    \src\common\generic\app-framework\apparc\apgrfx\apgwgnam.cpp 0x00000000   Number         0  APGWGNAM.o ABSOLUTE
    \src\common\generic\app-framework\apparc\apgrfx\apscli.cpp 0x00000000   Number         0  APSCLI.o ABSOLUTE
    \src\common\generic\app-framework\apparc\apgrfx\apsecutils.cpp 0x00000000   Number         0  apsecutils.o ABSOLUTE
    .emb_text                                0x00008000   Section       40  uc_dll_.o(.emb_text)
    .emb_text                                0x00008028   Section       72  ucppinit_aeabi.o(.emb_text)
    skip                                     0x0000803c   ARM Code       0  ucppinit_aeabi.o(.emb_text)
    loop                                     0x0000804c   ARM Code       0  ucppinit_aeabi.o(.emb_text)
    fpinit                                   0x00008064   Data           0  ucppinit_aeabi.o(.emb_text)
    base                                     0x00008068   Data           0  ucppinit_aeabi.o(.emb_text)
    limit                                    0x0000806c   Data           0  ucppinit_aeabi.o(.emb_text)
    .text                                    0x00008cb8   Section     1356  APGCTL.o(.text)
    .text                                    0x00009204   Section     2512  APGDOOR.o(.text)
    .text                                    0x00009bd4   Section     9888  APGICNFL.o(.text)
    TryCompressMaskL(const CFbsBitmap&)      0x0000c1e1   Thumb Code   130  APGICNFL.o(.text)
    .text                                    0x0000c274   Section       16  APGSTD.o(.text)
    .text                                    0x0000c284   Section     1116  APGTASK.o(.text)
    .text                                    0x0000c6e0   Section     1610  APGWGNAM.o(.text)
    .text                                    0x0000cd2c   Section     8872  APGCLI.o(.text)
    .text                                    0x0000efd4   Section      660  APGPRIV.o(.text)
    .text                                    0x0000f268   Section      228  apgnotif.o(.text)
    .text                                    0x0000f34c   Section      500  APGAIR.o(.text)
    .text                                    0x0000f540   Section     5544  APGAIRV2.o(.text)
    .text                                    0x00010ae8   Section      220  APSCLI.o(.text)
    .text                                    0x00010bc4   Section       96  apsecutils.o(.text)
    .text                                    0x00010c24   Section    10588  APGAPLSTV2.o(.text)
    .text                                    0x00013580   Section       24  switch8.o(.text)
    .text                                    0x00013598   Section       40  uc_dll.o(.text)
    .text                                    0x000135c0   Section       44  up_dll_tls.o(.text)
    .text                                    0x000135ec   Section        4  dllexp.o(.text)
    .text.clean                              0x000135f0   Section       38  APGCTL.o(.text.clean)
    .text.clean                              0x00013616   Section       62  APGDOOR.o(.text.clean)
    .text.clean                              0x00013654   Section      136  APGICNFL.o(.text.clean)
    .text.clean                              0x000136dc   Section        8  APGTASK.o(.text.clean)
    .text.clean                              0x000136e4   Section       10  APGWGNAM.o(.text.clean)
    .text.clean                              0x000136ee   Section      126  APGCLI.o(.text.clean)
    .text.clean                              0x0001376c   Section       40  APGPRIV.o(.text.clean)
    .text.clean                              0x00013794   Section       20  apgnotif.o(.text.clean)
    .text.clean                              0x000137a8   Section       24  APGAIR.o(.text.clean)
    .text.clean                              0x000137c0   Section      116  APGAIRV2.o(.text.clean)
    .text.clean                              0x00013834   Section       12  apsecutils.o(.text.clean)
    .text.clean                              0x00013840   Section      242  APGAPLSTV2.o(.text.clean)
    i._ZN12CApaDoorBaseD2Ev                  0x00013932   Section        8  APGDOOR.o(i._ZN12CApaDoorBaseD2Ev)
    i._ZN13CArrayFixFlatI18TApaAppServiceInfoED0Ev 0x0001393a   Section       16  APGCLI.o(i._ZN13CArrayFixFlatI18TApaAppServiceInfoED0Ev)
    i._ZN13CArrayFixFlatI18TApaAppServiceInfoED1Ev 0x0001394a   Section        8  APGCLI.o(i._ZN13CArrayFixFlatI18TApaAppServiceInfoED1Ev)
    i._ZN13CArrayFixFlatI21TDataTypeWithPriorityED0Ev 0x00013952   Section       16  APGAIRV2.o(i._ZN13CArrayFixFlatI21TDataTypeWithPriorityED0Ev)
    i._ZN13CArrayFixFlatI21TDataTypeWithPriorityED1Ev 0x00013962   Section        8  APGAIRV2.o(i._ZN13CArrayFixFlatI21TDataTypeWithPriorityED1Ev)
    i._ZN13CArrayFixFlatI5TSizeED0Ev         0x0001396a   Section       16  APGAIRV2.o(i._ZN13CArrayFixFlatI5TSizeED0Ev)
    i._ZN13CArrayFixFlatI5TSizeED1Ev         0x0001397a   Section        8  APGAIRV2.o(i._ZN13CArrayFixFlatI5TSizeED1Ev)
    i._ZN13CArrayFixFlatIN15CApaAppInfoFile11TIconHeaderEED0Ev 0x00013982   Section       16  APGICNFL.o(i._ZN13CArrayFixFlatIN15CApaAppInfoFile11TIconHeaderEED0Ev)
    i._ZN13CArrayFixFlatIN15CApaAppInfoFile11TIconHeaderEED1Ev 0x00013992   Section        8  APGICNFL.o(i._ZN13CArrayFixFlatIN15CApaAppInfoFile11TIconHeaderEED1Ev)
    i._ZN13CArrayFixFlatIN15CApaAppInfoFile14TCaptionHeaderEED0Ev 0x0001399a   Section       16  APGICNFL.o(i._ZN13CArrayFixFlatIN15CApaAppInfoFile14TCaptionHeaderEED0Ev)
    i._ZN13CArrayFixFlatIN15CApaAppInfoFile14TCaptionHeaderEED1Ev 0x000139aa   Section        8  APGICNFL.o(i._ZN13CArrayFixFlatIN15CApaAppInfoFile14TCaptionHeaderEED1Ev)
    i._ZN13CArrayFixFlatIN15CApaAppInfoFile15TDataTypeHeaderEED0Ev 0x000139b2   Section       16  APGICNFL.o(i._ZN13CArrayFixFlatIN15CApaAppInfoFile15TDataTypeHeaderEED0Ev)
    i._ZN13CArrayFixFlatIN15CApaAppInfoFile15TDataTypeHeaderEED1Ev 0x000139c2   Section        8  APGICNFL.o(i._ZN13CArrayFixFlatIN15CApaAppInfoFile15TDataTypeHeaderEED1Ev)
    i._ZN13CArrayFixFlatIN15CApaAppInfoFile15TViewDataHeaderEED0Ev 0x000139ca   Section       16  APGICNFL.o(i._ZN13CArrayFixFlatIN15CApaAppInfoFile15TViewDataHeaderEED0Ev)
    i._ZN13CArrayFixFlatIN15CApaAppInfoFile15TViewDataHeaderEED1Ev 0x000139da   Section        8  APGICNFL.o(i._ZN13CArrayFixFlatIN15CApaAppInfoFile15TViewDataHeaderEED1Ev)
    i._ZN13CArrayFixFlatIN15CApaAppInfoFile24TFileOwnershipInfoHeaderEED0Ev 0x000139e2   Section       16  APGICNFL.o(i._ZN13CArrayFixFlatIN15CApaAppInfoFile24TFileOwnershipInfoHeaderEED0Ev)
    i._ZN13CArrayFixFlatIN15CApaAppInfoFile24TFileOwnershipInfoHeaderEED1Ev 0x000139f2   Section        8  APGICNFL.o(i._ZN13CArrayFixFlatIN15CApaAppInfoFile24TFileOwnershipInfoHeaderEED1Ev)
    i._ZN13CArrayPtrFlatI14CApaAIFCaptionED0Ev 0x000139fa   Section       16  APGICNFL.o(i._ZN13CArrayPtrFlatI14CApaAIFCaptionED0Ev)
    i._ZN13CArrayPtrFlatI14CApaAIFCaptionED1Ev 0x00013a0a   Section        8  APGICNFL.o(i._ZN13CArrayPtrFlatI14CApaAIFCaptionED1Ev)
    i._ZN13CArrayPtrFlatI15CApaAppViewDataED0Ev 0x00013a12   Section       16  APGAIRV2.o(i._ZN13CArrayPtrFlatI15CApaAppViewDataED0Ev)
    i._ZN13CArrayPtrFlatI15CApaAppViewDataED1Ev 0x00013a22   Section        8  APGAIRV2.o(i._ZN13CArrayPtrFlatI15CApaAppViewDataED1Ev)
    i._ZN13CArrayPtrFlatI16CApaMaskedBitmapED0Ev 0x00013a2a   Section       16  APGICNFL.o(i._ZN13CArrayPtrFlatI16CApaMaskedBitmapED0Ev)
    i._ZN13CArrayPtrFlatI16CApaMaskedBitmapED1Ev 0x00013a3a   Section        8  APGICNFL.o(i._ZN13CArrayPtrFlatI16CApaMaskedBitmapED1Ev)
    i._ZN14RBufReadStreamC1Ev                0x00013a42   Section       14  APGCLI.o(i._ZN14RBufReadStreamC1Ev)
    i._ZN14TRequestStatusaSEi                0x00013a50   Section       36  APGCLI.o(i._ZN14TRequestStatusaSEi)
    i._ZN17RStoreWriteStreamC1Ev             0x00013a74   Section        8  APGICNFL.o(i._ZN17RStoreWriteStreamC1Ev)
    i._ZN17TApaAppCapabilityC1Ev             0x00013a7c   Section       14  APGICNFL.o(i._ZN17TApaAppCapabilityC1Ev)
    i._ZN20TMemoryUnicodeSource17ReadUnicodeValueLEv 0x00013a8a   Section       10  APGICNFL.o(i._ZN20TMemoryUnicodeSource17ReadUnicodeValueLEv)
    i._ZN20TMemoryUnicodeSourceC1EPKt        0x00013a94   Section       12  APGICNFL.o(i._ZN20TMemoryUnicodeSourceC1EPKt)
    i._ZN23CApaAppServiceInfoArrayD2Ev       0x00013aa0   Section        8  APGAPLSTV2.o(i._ZN23CApaAppServiceInfoArrayD2Ev)
    i._ZN24CApaAppCaptionFileReaderD0Ev      0x00013aa8   Section       16  APGICNFL.o(i._ZN24CApaAppCaptionFileReaderD0Ev)
    i._ZN24CApaAppCaptionFileReaderD1Ev      0x00013ab8   Section        8  APGICNFL.o(i._ZN24CApaAppCaptionFileReaderD1Ev)
    i._ZN26CApaResourceFileWriterBaseD0Ev    0x00013ac0   Section       16  APGICNFL.o(i._ZN26CApaResourceFileWriterBaseD0Ev)
    i._ZN26CApaResourceFileWriterBaseD2Ev    0x00013ad0   Section        8  APGICNFL.o(i._ZN26CApaResourceFileWriterBaseD2Ev)
    i._ZN5CBasenwEj                          0x00013ad8   Section        8  APGDOOR.o(i._ZN5CBasenwEj)
    i._ZN5TDes8ixEi                          0x00013ae0   Section        8  APGICNFL.o(i._ZN5TDes8ixEi)
    i._ZN5TPtr83SetERKS_                     0x00013ae8   Section       30  APGCLI.o(i._ZN5TPtr83SetERKS_)
    i._ZN5TSizeC1Ev                          0x00013b06   Section        8  APGDOOR.o(i._ZN5TSizeC1Ev)
    i._ZN6TLex16C1ERK7TDesC16                0x00013b0e   Section       16  APGWGNAM.o(i._ZN6TLex16C1ERK7TDesC16)
    i._ZN7TPtrC163SetERK7TDesC16             0x00013b1e   Section       28  APGICNFL.o(i._ZN7TPtrC163SetERK7TDesC16)
    i._ZN7TPtrC163SetERK7TDesC16.clean       0x00013b3a   Section       12  APGICNFL.o(i._ZN7TPtrC163SetERK7TDesC16.clean)
    i._ZN8CPicture16DetachFromStoreLENS_7TDetachE 0x00013b46   Section        2  APGPRIV.o(i._ZN8CPicture16DetachFromStoreLENS_7TDetachE)
    i._ZN8TIpcArgs3SetEiPK6TDesC8            0x00013b48   Section       20  APGCLI.o(i._ZN8TIpcArgs3SetEiPK6TDesC8)
    i._ZN9CArrayFixI18TApaAppServiceInfoED1Ev 0x00013b5c   Section        8  APGCLI.o(i._ZN9CArrayFixI18TApaAppServiceInfoED1Ev)
    i._ZN9CArrayFixI21TDataTypeWithPriorityED1Ev 0x00013b64   Section        8  APGAIRV2.o(i._ZN9CArrayFixI21TDataTypeWithPriorityED1Ev)
    i._ZN9CArrayFixI5TSizeED1Ev              0x00013b6c   Section        8  APGAIRV2.o(i._ZN9CArrayFixI5TSizeED1Ev)
    i._ZN9CArrayFixIN15CApaAppInfoFile11TIconHeaderEED1Ev 0x00013b74   Section        8  APGICNFL.o(i._ZN9CArrayFixIN15CApaAppInfoFile11TIconHeaderEED1Ev)
    i._ZN9CArrayFixIN15CApaAppInfoFile14TCaptionHeaderEED1Ev 0x00013b7c   Section        8  APGICNFL.o(i._ZN9CArrayFixIN15CApaAppInfoFile14TCaptionHeaderEED1Ev)
    i._ZN9CArrayFixIN15CApaAppInfoFile15TDataTypeHeaderEED1Ev 0x00013b84   Section        8  APGICNFL.o(i._ZN9CArrayFixIN15CApaAppInfoFile15TDataTypeHeaderEED1Ev)
    i._ZN9CArrayFixIN15CApaAppInfoFile15TViewDataHeaderEED1Ev 0x00013b8c   Section        8  APGICNFL.o(i._ZN9CArrayFixIN15CApaAppInfoFile15TViewDataHeaderEED1Ev)
    i._ZN9CArrayFixIN15CApaAppInfoFile24TFileOwnershipInfoHeaderEED1Ev 0x00013b94   Section        8  APGICNFL.o(i._ZN9CArrayFixIN15CApaAppInfoFile24TFileOwnershipInfoHeaderEED1Ev)
    i._ZN9CArrayFixIP14CApaAIFCaptionED1Ev   0x00013b9c   Section        8  APGICNFL.o(i._ZN9CArrayFixIP14CApaAIFCaptionED1Ev)
    i._ZN9CArrayFixIP15CApaAppViewDataED1Ev  0x00013ba4   Section        8  APGAIRV2.o(i._ZN9CArrayFixIP15CApaAppViewDataED1Ev)
    i._ZN9CArrayFixIP16CApaMaskedBitmapED1Ev 0x00013bac   Section        8  APGICNFL.o(i._ZN9CArrayFixIP16CApaMaskedBitmapED1Ev)
    i._ZN9CArrayPtrI14CApaAIFCaptionED1Ev    0x00013bb4   Section        8  APGICNFL.o(i._ZN9CArrayPtrI14CApaAIFCaptionED1Ev)
    i._ZN9CArrayPtrI15CApaAppViewDataED1Ev   0x00013bbc   Section        8  APGAIRV2.o(i._ZN9CArrayPtrI15CApaAppViewDataED1Ev)
    i._ZN9CArrayPtrI16CApaMaskedBitmapED1Ev  0x00013bc4   Section        8  APGICNFL.o(i._ZN9CArrayPtrI16CApaMaskedBitmapED1Ev)
    i._ZN9TDataTypeaSERKS_                   0x00013bcc   Section       26  APGCLI.o(i._ZN9TDataTypeaSERKS_)
    i._ZNK12RSessionBase11SendReceiveEiRK8TIpcArgs 0x00013be6   Section        8  APGCLI.o(i._ZNK12RSessionBase11SendReceiveEiRK8TIpcArgs)
    i._ZNK12RSessionBase11SendReceiveEiRK8TIpcArgsR14TRequestStatus 0x00013bee   Section        8  APGCLI.o(i._ZNK12RSessionBase11SendReceiveEiRK8TIpcArgsR14TRequestStatus)
    i._ZNK13TSwizzleCBase5IsPtrEv            0x00013bf6   Section       10  APGICNFL.o(i._ZNK13TSwizzleCBase5IsPtrEv)
    i._ZNK5TTimeneES_                        0x00013c00   Section       18  APGAPLSTV2.o(i._ZNK5TTimeneES_)
    i._ZNK6TDesC8ixEi                        0x00013c12   Section        8  APGAIRV2.o(i._ZNK6TDesC8ixEi)
    i._ZNK7TDesC16neERKS_                    0x00013c1a   Section       18  APGCLI.o(i._ZNK7TDesC16neERKS_)
    i._ZdlPvS_                               0x00013c2c   Section        2  APGDOOR.o(i._ZdlPvS_)
    i._ZlsR12RWriteStreamRK4TUid             0x00013c2e   Section       14  APGAPLSTV2.o(i._ZlsR12RWriteStreamRK4TUid)
    i._ZnwjPv                                0x00013c3c   Section        4  APGDOOR.o(i._ZnwjPv)
    t._Z17CleanupClosePushLI13RApaLsSessionEvRT_ 0x00013c40   Section       16  APGCTL.o(t._Z17CleanupClosePushLI13RApaLsSessionEvRT_)
    t._Z17CleanupClosePushLI3RFsEvRT_        0x00013c50   Section       16  APGICNFL.o(t._Z17CleanupClosePushLI3RFsEvRT_)
    t._Z17CleanupClosePushLI5RBuf8EvRT_      0x00013c60   Section       16  APGICNFL.o(t._Z17CleanupClosePushLI5RBuf8EvRT_)
    t._Z17CleanupClosePushLI5RFileEvRT_      0x00013c70   Section       16  APGAIRV2.o(t._Z17CleanupClosePushLI5RFileEvRT_)
    t._Z17CleanupClosePushLI6RArrayI9TLanguageEEvRT_ 0x00013c80   Section       16  APGICNFL.o(t._Z17CleanupClosePushLI6RArrayI9TLanguageEEvRT_)
    t._ZN12CleanupCloseI13RApaLsSessionE5CloseEPv 0x00013c90   Section        8  APGCTL.o(t._ZN12CleanupCloseI13RApaLsSessionE5CloseEPv)
    t._ZN12CleanupCloseI13RPointerArrayI16CApaAppIconArrayEE5CloseEPv 0x00013c98   Section        8  APGAIRV2.o(t._ZN12CleanupCloseI13RPointerArrayI16CApaAppIconArrayEE5CloseEPv)
    t._ZN12CleanupCloseI13RPointerArrayI16CApaMaskedBitmapEE5CloseEPv 0x00013ca0   Section        8  APGAIRV2.o(t._ZN12CleanupCloseI13RPointerArrayI16CApaMaskedBitmapEE5CloseEPv)
    t._ZN12CleanupCloseI13RResourceFileE5CloseEPv 0x00013ca8   Section        8  APGICNFL.o(t._ZN12CleanupCloseI13RResourceFileE5CloseEPv)
    t._ZN12CleanupCloseI15RBufWriteStreamE5CloseEPv 0x00013cb0   Section        8  APGCLI.o(t._ZN12CleanupCloseI15RBufWriteStreamE5CloseEPv)
    t._ZN12CleanupCloseI15RFileReadStreamE5CloseEPv 0x00013cb8   Section        8  APGAPLSTV2.o(t._ZN12CleanupCloseI15RFileReadStreamE5CloseEPv)
    t._ZN12CleanupCloseI15RResourceReaderE5CloseEPv 0x00013cc0   Section        8  APGICNFL.o(t._ZN12CleanupCloseI15RResourceReaderE5CloseEPv)
    t._ZN12CleanupCloseI3RFsE5CloseEPv       0x00013cc8   Section        8  APGICNFL.o(t._ZN12CleanupCloseI3RFsE5CloseEPv)
    t._ZN12CleanupCloseI5RBuf8E5CloseEPv     0x00013cd0   Section        8  APGICNFL.o(t._ZN12CleanupCloseI5RBuf8E5CloseEPv)
    t._ZN12CleanupCloseI5RFileE5CloseEPv     0x00013cd8   Section        8  APGICNFL.o(t._ZN12CleanupCloseI5RFileE5CloseEPv)
    t._ZN12CleanupCloseI6RArrayI9TLanguageEE5CloseEPv 0x00013ce0   Section        8  APGICNFL.o(t._ZN12CleanupCloseI6RArrayI9TLanguageEE5CloseEPv)
    t._ZN12CleanupCloseI8RProcessE5CloseEPv  0x00013ce8   Section        8  APGCLI.o(t._ZN12CleanupCloseI8RProcessE5CloseEPv)
    t._ZN12CleanupCloseIN26CApaResourceFileWriterBase11RBufferSinkEE5CloseEPv 0x00013cf0   Section       10  APGICNFL.o(t._ZN12CleanupCloseIN26CApaResourceFileWriterBase11RBufferSinkEE5CloseEPv)
    t._ZN12TAlignedBuf8ILi4EEC1Ei            0x00013cfa   Section       10  APGCLI.o(t._ZN12TAlignedBuf8ILi4EEC1Ei)
    t._ZN12TAlignedBuf8ILi64EEC1Ei           0x00013d04   Section       10  APGICNFL.o(t._ZN12TAlignedBuf8ILi64EEC1Ei)
    t._ZN13CArrayFixFlatI18TApaAppServiceInfoEC1Ei 0x00013d10   Section       28  APGCLI.o(t._ZN13CArrayFixFlatI18TApaAppServiceInfoEC1Ei)
    t._ZN13CArrayFixFlatI21TDataTypeWithPriorityEC1Ei 0x00013d2c   Section       28  APGAIRV2.o(t._ZN13CArrayFixFlatI21TDataTypeWithPriorityEC1Ei)
    t._ZN13CArrayFixFlatI5TSizeEC1Ei         0x00013d48   Section       28  APGAIRV2.o(t._ZN13CArrayFixFlatI5TSizeEC1Ei)
    t._ZN13CArrayPtrFlatI14CApaAIFCaptionEC1Ei 0x00013d64   Section       28  APGICNFL.o(t._ZN13CArrayPtrFlatI14CApaAIFCaptionEC1Ei)
    t._ZN13CArrayPtrFlatI15CApaAppViewDataEC1Ei 0x00013d80   Section       28  APGAPLSTV2.o(t._ZN13CArrayPtrFlatI15CApaAppViewDataEC1Ei)
    t._ZN13CArrayPtrFlatI16CApaMaskedBitmapEC1Ei 0x00013d9c   Section       28  APGICNFL.o(t._ZN13CArrayPtrFlatI16CApaMaskedBitmapEC1Ei)
    t._ZN13TExternalizerI15CApaAIFViewDataE14ExternalizeAsLEPKvR12RWriteStream 0x00013db8   Section       14  APGICNFL.o(t._ZN13TExternalizerI15CApaAIFViewDataE14ExternalizeAsLEPKvR12RWriteStream)
    t._ZN13TExternalizerI16CApaMaskedBitmapE14ExternalizeAsLEPKvR12RWriteStream 0x00013dc6   Section       14  APGICNFL.o(t._ZN13TExternalizerI16CApaMaskedBitmapE14ExternalizeAsLEPKvR12RWriteStream)
    t._ZN13TExternalizerI18TApaAppServiceInfoE14ExternalizeAsLEPKvR12RWriteStream 0x00013dd4   Section       14  APGAPLSTV2.o(t._ZN13TExternalizerI18TApaAppServiceInfoE14ExternalizeAsLEPKvR12RWriteStream)
    t._ZN13TExternalizerI21TDataTypeWithPriorityE14ExternalizeAsLEPKvR12RWriteStream 0x00013de2   Section       12  APGAPLSTV2.o(t._ZN13TExternalizerI21TDataTypeWithPriorityE14ExternalizeAsLEPKvR12RWriteStream)
    t._ZN13TExternalizerI4TUidE14ExternalizeAsLEPKvR12RWriteStream 0x00013dee   Section       14  APGAPLSTV2.o(t._ZN13TExternalizerI4TUidE14ExternalizeAsLEPKvR12RWriteStream)
    t._ZN13TExternalizerI7HBufC16E14ExternalizeAsLEPKvR12RWriteStream 0x00013dfc   Section       14  APGICNFL.o(t._ZN13TExternalizerI7HBufC16E14ExternalizeAsLEPKvR12RWriteStream)
    t._ZN13TExternalizerI9TDataTypeE14ExternalizeAsLEPKvR12RWriteStream 0x00013e0a   Section       14  APGICNFL.o(t._ZN13TExternalizerI9TDataTypeE14ExternalizeAsLEPKvR12RWriteStream)
    t._ZN13TExternalizerIN15CApaAppInfoFile11TIconHeaderEE14ExternalizeAsLEPKvR12RWriteStream 0x00013e18   Section       12  APGICNFL.o(t._ZN13TExternalizerIN15CApaAppInfoFile11TIconHeaderEE14ExternalizeAsLEPKvR12RWriteStream)
    t._ZN13TExternalizerIN15CApaAppInfoFile14TCaptionHeaderEE14ExternalizeAsLEPKvR12RWriteStream 0x00013e24   Section       12  APGICNFL.o(t._ZN13TExternalizerIN15CApaAppInfoFile14TCaptionHeaderEE14ExternalizeAsLEPKvR12RWriteStream)
    t._ZN13TExternalizerIN15CApaAppInfoFile15TDataTypeHeaderEE14ExternalizeAsLEPKvR12RWriteStream 0x00013e30   Section       12  APGICNFL.o(t._ZN13TExternalizerIN15CApaAppInfoFile15TDataTypeHeaderEE14ExternalizeAsLEPKvR12RWriteStream)
    t._ZN13TExternalizerIN15CApaAppInfoFile15TViewDataHeaderEE14ExternalizeAsLEPKvR12RWriteStream 0x00013e3c   Section       12  APGICNFL.o(t._ZN13TExternalizerIN15CApaAppInfoFile15TViewDataHeaderEE14ExternalizeAsLEPKvR12RWriteStream)
    t._ZN13TExternalizerIN15CApaAppInfoFile24TFileOwnershipInfoHeaderEE14ExternalizeAsLEPKvR12RWriteStream 0x00013e48   Section       18  APGICNFL.o(t._ZN13TExternalizerIN15CApaAppInfoFile24TFileOwnershipInfoHeaderEE14ExternalizeAsLEPKvR12RWriteStream)
    t._ZN13TInternalizerI18TApaAppServiceInfoE14InternalizeAsLEPvR11RReadStream 0x00013e5a   Section       12  APGCLI.o(t._ZN13TInternalizerI18TApaAppServiceInfoE14InternalizeAsLEPvR11RReadStream)
    t._ZN13TInternalizerI21TDataTypeWithPriorityE14InternalizeAsLEPvR11RReadStream 0x00013e66   Section       12  APGAPLSTV2.o(t._ZN13TInternalizerI21TDataTypeWithPriorityE14InternalizeAsLEPvR11RReadStream)
    t._ZN13TInternalizerI4TUidE14InternalizeAsLEPvR11RReadStream 0x00013e72   Section       14  APGCLI.o(t._ZN13TInternalizerI4TUidE14InternalizeAsLEPvR11RReadStream)
    t._ZN13TInternalizerI9TDataTypeE14InternalizeAsLEPvR11RReadStream 0x00013e80   Section       12  APGCLI.o(t._ZN13TInternalizerI9TDataTypeE14InternalizeAsLEPvR11RReadStream)
    t._ZN13TInternalizerIN15CApaAppInfoFile11TIconHeaderEE14InternalizeAsLEPvR11RReadStream 0x00013e8c   Section       12  APGICNFL.o(t._ZN13TInternalizerIN15CApaAppInfoFile11TIconHeaderEE14InternalizeAsLEPvR11RReadStream)
    t._ZN13TInternalizerIN15CApaAppInfoFile14TCaptionHeaderEE14InternalizeAsLEPvR11RReadStream 0x00013e98   Section       12  APGICNFL.o(t._ZN13TInternalizerIN15CApaAppInfoFile14TCaptionHeaderEE14InternalizeAsLEPvR11RReadStream)
    t._ZN13TInternalizerIN15CApaAppInfoFile15TDataTypeHeaderEE14InternalizeAsLEPvR11RReadStream 0x00013ea4   Section       12  APGICNFL.o(t._ZN13TInternalizerIN15CApaAppInfoFile15TDataTypeHeaderEE14InternalizeAsLEPvR11RReadStream)
    t._ZN13TInternalizerIN15CApaAppInfoFile15TViewDataHeaderEE14InternalizeAsLEPvR11RReadStream 0x00013eb0   Section       12  APGICNFL.o(t._ZN13TInternalizerIN15CApaAppInfoFile15TViewDataHeaderEE14InternalizeAsLEPvR11RReadStream)
    t._ZN13TInternalizerIN15CApaAppInfoFile24TFileOwnershipInfoHeaderEE14InternalizeAsLEPvR11RReadStream 0x00013ebc   Section       18  APGICNFL.o(t._ZN13TInternalizerIN15CApaAppInfoFile24TFileOwnershipInfoHeaderEE14InternalizeAsLEPvR11RReadStream)
    t._ZN4TBufILi256EEC1ERK7TDesC16          0x00013ece   Section       12  APGICNFL.o(t._ZN4TBufILi256EEC1ERK7TDesC16)
    t._ZN4TBufILi256EEC1Ev                   0x00013eda   Section       12  APGICNFL.o(t._ZN4TBufILi256EEC1Ev)
    t._ZN4TBufILi256EEaSERK7TDesC16          0x00013ee6   Section       12  APGICNFL.o(t._ZN4TBufILi256EEaSERK7TDesC16)
    t._ZN4TBufILi262EEC1ERK7TDesC16          0x00013ef2   Section       12  APGWGNAM.o(t._ZN4TBufILi262EEC1ERK7TDesC16)
    t._ZN5TPckgI11TApaAppInfoEC1ERKS0_       0x00013efe   Section       14  APGCLI.o(t._ZN5TPckgI11TApaAppInfoEC1ERKS0_)
    t._ZN5TPckgI22TDataRecognitionResultEC1ERKS0_ 0x00013f0c   Section       14  APGCLI.o(t._ZN5TPckgI22TDataRecognitionResultEC1ERKS0_)
    t._ZN5TPckgI26SReturnData_AppForDocumentEC1ERKS0_ 0x00013f1a   Section       14  APGCLI.o(t._ZN5TPckgI26SReturnData_AppForDocumentEC1ERKS0_)
    t._ZN5TPckgI4TBufILi256EEEC1ERKS1_       0x00013f28   Section       14  APGCLI.o(t._ZN5TPckgI4TBufILi256EEEC1ERKS1_)
    t._ZN5TPckgI4TUidEC1ERKS0_               0x00013f36   Section       12  APGCLI.o(t._ZN5TPckgI4TUidEC1ERKS0_)
    t._ZN5TPckgI9TThreadIdEC1ERKS0_          0x00013f42   Section       12  APGCLI.o(t._ZN5TPckgI9TThreadIdEC1ERKS0_)
    t._ZN6RArrayIN14CApaIconLoader13TKeyValuePairEEixEi 0x00013f4e   Section        8  APGAIRV2.o(t._ZN6RArrayIN14CApaIconLoader13TKeyValuePairEEixEi)
    t._ZN6TPckgCI9TDataTypeEC1ERKS0_         0x00013f56   Section       12  APGCLI.o(t._ZN6TPckgCI9TDataTypeEC1ERKS0_)
    t._ZN8TIpcArgsC1IPK6TPckgCI9TDataTypeElP5TPckgI4TUidEEET_T0_T1_ 0x00013f62   Section       12  APGCLI.o(t._ZN8TIpcArgsC1IPK6TPckgCI9TDataTypeElP5TPckgI4TUidEEET_T0_T1_)
    t._ZN8TIpcArgsC1IPK7TDesC16P8TPckgBufIjEPK6TDesC8EET_T0_T1_ 0x00013f6e   Section       12  APGCLI.o(t._ZN8TIpcArgsC1IPK7TDesC16P8TPckgBufIjEPK6TDesC8EET_T0_T1_)
    t._ZN8TIpcArgsC1IiiiiEET_T0_T1_T2_       0x00013f7a   Section       14  APGCLI.o(t._ZN8TIpcArgsC1IiiiiEET_T0_T1_T2_)
    t._ZN8TIpcArgsC1IlP8TPckgBufIiEEET_T0_   0x00013f88   Section       10  APGCLI.o(t._ZN8TIpcArgsC1IlP8TPckgBufIiEEET_T0_)
    t._ZN8TIpcArgsC1IlPK6TPckgCI9TDataTypeEiP5TPtr8EET_T0_T1_T2_ 0x00013f92   Section       16  APGCLI.o(t._ZN8TIpcArgsC1IlPK6TPckgCI9TDataTypeEiP5TPtr8EET_T0_T1_T2_)
    t._ZN8TIpcArgsC1IliP5TPtr8EET_T0_T1_     0x00013fa2   Section       12  APGCLI.o(t._ZN8TIpcArgsC1IliP5TPtr8EET_T0_T1_)
    t._ZN8TIpcArgsC1IlliP5TPtr8EET_T0_T1_T2_ 0x00013fae   Section       16  APGCLI.o(t._ZN8TIpcArgsC1IlliP5TPtr8EET_T0_T1_T2_)
    t._ZN8TPckgBufIiEC1Ev                    0x00013fbe   Section       24  APGCLI.o(t._ZN8TPckgBufIiEC1Ev)
    t._ZN8TPckgBufIjEC1Ev                    0x00013fd6   Section       24  APGCLI.o(t._ZN8TPckgBufIjEC1Ev)
    t._ZN9CArrayFixI18TApaAppServiceInfoE7AppendLERKS0_ 0x00013fee   Section       12  APGAIRV2.o(t._ZN9CArrayFixI18TApaAppServiceInfoE7AppendLERKS0_)
    t._ZN9CArrayFixI18TApaAppServiceInfoEixEi 0x00013ffa   Section        8  APGAPLSTV2.o(t._ZN9CArrayFixI18TApaAppServiceInfoEixEi)
    t._ZN9CArrayFixI21TDataTypeWithPriorityE7AppendLERKS0_ 0x00014002   Section       12  APGICNFL.o(t._ZN9CArrayFixI21TDataTypeWithPriorityE7AppendLERKS0_)
    t._ZN9CArrayFixIN15CApaAppInfoFile11TIconHeaderEE7AppendLERKS1_ 0x0001400e   Section       12  APGICNFL.o(t._ZN9CArrayFixIN15CApaAppInfoFile11TIconHeaderEE7AppendLERKS1_)
    t._ZN9CArrayFixIN15CApaAppInfoFile14TCaptionHeaderEE7AppendLERKS1_ 0x0001401a   Section       12  APGICNFL.o(t._ZN9CArrayFixIN15CApaAppInfoFile14TCaptionHeaderEE7AppendLERKS1_)
    t._ZN9CArrayFixIN15CApaAppInfoFile14TCaptionHeaderEEixEi 0x00014026   Section        8  APGICNFL.o(t._ZN9CArrayFixIN15CApaAppInfoFile14TCaptionHeaderEEixEi)
    t._ZN9CArrayFixIN15CApaAppInfoFile15TDataTypeHeaderEE7AppendLERKS1_ 0x0001402e   Section       12  APGICNFL.o(t._ZN9CArrayFixIN15CApaAppInfoFile15TDataTypeHeaderEE7AppendLERKS1_)
    t._ZN9CArrayFixIN15CApaAppInfoFile15TViewDataHeaderEE7AppendLERKS1_ 0x0001403a   Section       12  APGICNFL.o(t._ZN9CArrayFixIN15CApaAppInfoFile15TViewDataHeaderEE7AppendLERKS1_)
    t._ZN9CArrayFixIN15CApaAppInfoFile15TViewDataHeaderEEixEi 0x00014046   Section        8  APGICNFL.o(t._ZN9CArrayFixIN15CApaAppInfoFile15TViewDataHeaderEEixEi)
    t._ZN9CArrayFixIN15CApaAppInfoFile24TFileOwnershipInfoHeaderEE7AppendLERKS1_ 0x0001404e   Section       12  APGICNFL.o(t._ZN9CArrayFixIN15CApaAppInfoFile24TFileOwnershipInfoHeaderEE7AppendLERKS1_)
    t._ZN9CArrayFixIP14CApaAIFCaptionE7AppendLERKS1_ 0x0001405a   Section       12  APGICNFL.o(t._ZN9CArrayFixIP14CApaAIFCaptionE7AppendLERKS1_)
    t._ZN9CArrayFixIP16CApaMaskedBitmapE7AppendLERKS1_ 0x00014066   Section       12  APGICNFL.o(t._ZN9CArrayFixIP16CApaMaskedBitmapE7AppendLERKS1_)
    t._ZN9CArrayFixIP16CApaMaskedBitmapEixEi 0x00014072   Section        8  APGAIRV2.o(t._ZN9CArrayFixIP16CApaMaskedBitmapEixEi)
    t._ZN9CArrayPtrI14CApaAIFCaptionE15ResetAndDestroyEv 0x0001407a   Section       44  APGICNFL.o(t._ZN9CArrayPtrI14CApaAIFCaptionE15ResetAndDestroyEv)
    t._ZN9CArrayPtrI15CApaAppViewDataE15ResetAndDestroyEv 0x000140a6   Section       44  APGAPLSTV2.o(t._ZN9CArrayPtrI15CApaAppViewDataE15ResetAndDestroyEv)
    t._ZN9CArrayPtrI16CApaMaskedBitmapE15ResetAndDestroyEv 0x000140d2   Section       44  APGICNFL.o(t._ZN9CArrayPtrI16CApaMaskedBitmapE15ResetAndDestroyEv)
    t._ZNK13RPointerArrayI32CDataRecognitionResultArrayEntryE5CountEv 0x000140fe   Section        8  APGCLI.o(t._ZNK13RPointerArrayI32CDataRecognitionResultArrayEntryE5CountEv)
    t._ZlsI12TCardinalityER12RWriteStreamS2_RKT_ 0x00014106   Section       20  APGICNFL.o(t._ZlsI12TCardinalityER12RWriteStreamS2_RKT_)
    t._ZlsI13CArrayFixFlatI18TApaAppServiceInfoEER12RWriteStreamS4_RKT_ 0x0001411c   Section       36  APGAPLSTV2.o(t._ZlsI13CArrayFixFlatI18TApaAppServiceInfoEER12RWriteStreamS4_RKT_)
    t._ZlsI15CApaAIFViewDataER12RWriteStreamS2_RKT_ 0x00014140   Section       20  APGICNFL.o(t._ZlsI15CApaAIFViewDataER12RWriteStreamS2_RKT_)
    t._ZlsI16CApaMaskedBitmapER12RWriteStreamS2_RKT_ 0x00014154   Section       20  APGICNFL.o(t._ZlsI16CApaMaskedBitmapER12RWriteStreamS2_RKT_)
    t._ZlsI17CStreamDictionaryER12RWriteStreamS2_RKT_ 0x00014168   Section       20  APGDOOR.o(t._ZlsI17CStreamDictionaryER12RWriteStreamS2_RKT_)
    t._ZlsI18TApaAppServiceInfoER12RWriteStreamS2_RKT_ 0x0001417c   Section       20  APGAPLSTV2.o(t._ZlsI18TApaAppServiceInfoER12RWriteStreamS2_RKT_)
    t._ZlsI7HBufC16ER12RWriteStreamS2_RKT_   0x00014190   Section       20  APGICNFL.o(t._ZlsI7HBufC16ER12RWriteStreamS2_RKT_)
    t._ZlsI7TPtrC16ER12RWriteStreamS2_RKT_   0x000141a4   Section       20  APGAPLSTV2.o(t._ZlsI7TPtrC16ER12RWriteStreamS2_RKT_)
    t._ZlsI8TSwizzleI7HBufC16EER12RWriteStreamS4_RKT_ 0x000141b8   Section       28  APGICNFL.o(t._ZlsI8TSwizzleI7HBufC16EER12RWriteStreamS4_RKT_)
    t._ZlsI9TDataTypeER12RWriteStreamS2_RKT_ 0x000141d4   Section       20  APGICNFL.o(t._ZlsI9TDataTypeER12RWriteStreamS2_RKT_)
    t._ZrsI12TCardinalityER11RReadStreamS2_RT_ 0x000141e8   Section       20  APGICNFL.o(t._ZrsI12TCardinalityER11RReadStreamS2_RT_)
    t._ZrsI13CArrayFixFlatI18TApaAppServiceInfoEER11RReadStreamS4_RT_ 0x000141fc   Section       72  APGCLI.o(t._ZrsI13CArrayFixFlatI18TApaAppServiceInfoEER11RReadStreamS4_RT_)
    t._ZrsI13CArrayFixFlatI18TApaAppServiceInfoEER11RReadStreamS4_RT_.clean 0x00014244   Section       12  APGCLI.o(t._ZrsI13CArrayFixFlatI18TApaAppServiceInfoEER11RReadStreamS4_RT_.clean)
    t._ZrsI16CApaMaskedBitmapER11RReadStreamS2_RT_ 0x00014250   Section       20  APGICNFL.o(t._ZrsI16CApaMaskedBitmapER11RReadStreamS2_RT_)
    t._ZrsI4TBufILi256EEER11RReadStreamS3_RT_ 0x00014264   Section       20  APGICNFL.o(t._ZrsI4TBufILi256EEER11RReadStreamS3_RT_)
    t._ZrsI8TSwizzleI7HBufC16EER11RReadStreamS4_RT_ 0x00014278   Section       20  APGICNFL.o(t._ZrsI8TSwizzleI7HBufC16EER11RReadStreamS4_RT_)
    .extab._ZN17CApaSystemControl10ConstructLERK7TDesC168TUidType 0x0001428c   Data           0  APGCTL.o(.ARM.extab)
    .extab._ZN17CApaSystemControlC1ER3RFs    0x00014298   Data           0  APGCTL.o(.ARM.extab)
    .extab._ZN17CApaSystemControlD1Ev        0x000142a8   Data           0  APGCTL.o(.ARM.extab)
    .extab._ZN21CApaSystemControlList7UpdateLEv 0x000142b8   Data           0  APGCTL.o(.ARM.extab)
    .extab._ZN21CApaSystemControlListD1Ev    0x00014304   Data           0  APGCTL.o(.ARM.extab)
    .extab._ZN8CApaDoor16SetFormatToIconLEv  0x00014314   Data           0  APGDOOR.o(.ARM.extab)
    .extab._ZN8CApaDoor10ConstructLEv        0x00014320   Data           0  APGDOOR.o(.ARM.extab)
    .extab._ZN8CApaDoor5NewLCER3RFsR12CApaDocumentRK5TSize 0x00014330   Data           0  APGDOOR.o(.ARM.extab)
    .extab._ZN8CApaDoor23InternalizeStateStreamLERK12CStreamStoreRK17CStreamDictionary5TSize 0x00014340   Data           0  APGDOOR.o(.ARM.extab)
    .extab._ZN8CApaDoor8RestoreLERK12CStreamStore9TStreamId 0x0001434c   Data           0  APGDOOR.o(.ARM.extab)
    .extab._ZN8CApaDoorC1ER3RFsR11CApaProcess 0x00014374   Data           0  APGDOOR.o(.ARM.extab)
    .extab._ZN8CApaDoorD1Ev                  0x00014384   Data           0  APGDOOR.o(.ARM.extab)
    .extab._ZNK8CApaDoor13GlassDoorSizeEv    0x00014394   Data           0  APGDOOR.o(.ARM.extab)
    .extab._ZN5CBasenwEj                     0x000143bc   Data           0  APGDOOR.o(.ARM.extab)
    .extab._ZN16CApaMaskedBitmapD1Ev         0x000143cc   Data           0  APGICNFL.o(.ARM.extab)
    .extab._ZNK26CApaResourceFileWriterBase23DoGenerateFileContentsLER5RBuf84TUidS2_ 0x000143dc   Data           0  APGICNFL.o(.ARM.extab)
    .extab._ZN34CApaRegistrationResourceFileWriterC1E4TUidj 0x000143ec   Data           0  APGICNFL.o(.ARM.extab)
    .extab._ZN34CApaRegistrationResourceFileWriterD1Ev 0x000143fc   Data           0  APGICNFL.o(.ARM.extab)
    .extab._ZN21CApaAppInfoFileReader12InternalizeLER11RReadStream 0x0001440c   Data           0  APGICNFL.o(.ARM.extab)
    .extab._ZN15CApaAppInfoFileD1Ev          0x0001445c   Data           0  APGICNFL.o(.ARM.extab)
    .extab._ZN15CApaAppInfoFileC1ER3RFs      0x0001446c   Data           0  APGICNFL.o(.ARM.extab)
    .extab._ZN21CApaAppInfoFileReader10ConstructLERK7TDesC164TUid 0x0001447c   Data           0  APGICNFL.o(.ARM.extab)
    .extab._ZNK15CApaAIFViewData8CaptionLE9TLanguage 0x00014488   Data           0  APGICNFL.o(.ARM.extab)
    .extab._ZN15CApaAIFViewDataD1Ev          0x00014494   Data           0  APGICNFL.o(.ARM.extab)
    .extab._ZN21CApaAppInfoFileWriter13SetCapabilityERK6TDesC8 0x000144a4   Data           0  APGICNFL.o(.ARM.extab)
    .extab._ZN21CApaAppInfoFileWriterD1Ev    0x000144b4   Data           0  APGICNFL.o(.ARM.extab)
    .extab._ZN24CApaAppCaptionFileReaderC1ER3RFsRK7TDesC16 0x000144c4   Data           0  APGICNFL.o(.ARM.extab)
    .extab._ZN24CApaAppCaptionFileReader12GetCaptionsLER4TBufILi256EES2_ 0x000144d4   Data           0  APGICNFL.o(.ARM.extab)
    .extab._ZN7TPtrC163SetERK7TDesC16        0x000144e4   Data           0  APGICNFL.o(.ARM.extab)
    .extab._ZN12TApaTaskList9FindByPosEi     0x000144f4   Data           0  APGTASK.o(.ARM.extab)
    .extab._ZN19CApaWindowGroupName18ConstructFromWgIdLEi 0x0001451c   Data           0  APGWGNAM.o(.ARM.extab)
    .extab._ZN19CApaWindowGroupName3NewERK10RWsSessionP7HBufC16 0x00014528   Data           0  APGWGNAM.o(.ARM.extab)
    .extab._ZN27CDataRecognitionResultArrayC1Ev 0x00014538   Data           0  APGCLI.o(.ARM.extab)
    .extab._ZN27CDataRecognitionResultArrayD1Ev 0x00014548   Data           0  APGCLI.o(.ARM.extab)
    .extab._ZN13RApaLsSession10DoStartAppERK15CApaCommandLineP9TThreadIdP14TRequestStatus 0x00014558   Data           0  APGCLI.o(.ARM.extab)
    .extab._ZN13RApaLsSession35StartApplicationPassingDocumentNameERK7TDesC16S2_PK6TDesC8S2_R9TThreadId11TApaCommandP14TRequestStatus 0x00014580   Data           0  APGCLI.o(.ARM.extab)
    .extab._ZN13RApaLsSession13StartDocumentERK7TDesC16R9TThreadIdNS_11TLaunchTypeE 0x000145a8   Data           0  APGCLI.o(.ARM.extab)
    .extab._ZN13RApaLsSession33StartApplicationPassingFileHandleERK7TDesC16S2_PK6TDesC8RK5RFileR9TThreadIdP14TRequestStatus 0x000145b4   Data           0  APGCLI.o(.ARM.extab)
    .extab._ZN13RApaLsSession13StartDocumentER5RFileR9TThreadIdP14TRequestStatus 0x000145dc   Data           0  APGCLI.o(.ARM.extab)
    .extab._ZN13RApaLsSession13StartDocumentERK7TDesC16RK9TDataTypeR9TThreadIdNS_11TLaunchTypeE 0x000145e8   Data           0  APGCLI.o(.ARM.extab)
    .extab._ZN13RApaLsSession13StartDocumentER5RFileRK9TDataTypeR9TThreadIdP14TRequestStatus 0x000145f4   Data           0  APGCLI.o(.ARM.extab)
    .extab._ZN13RApaLsSession13StartDocumentERK7TDesC164TUidR9TThreadIdNS_11TLaunchTypeE 0x00014600   Data           0  APGCLI.o(.ARM.extab)
    .extab._ZN13RApaLsSession13StartDocumentER5RFile4TUidR9TThreadIdP14TRequestStatus 0x0001460c   Data           0  APGCLI.o(.ARM.extab)
    .extab._ZN13RApaLsSession14CreateDocumentERK7TDesC164TUidR9TThreadIdNS_11TLaunchTypeE 0x00014618   Data           0  APGCLI.o(.ARM.extab)
    .extab._ZNK13RApaLsSession22GetSupportedDataTypesLER13CArrayFixFlatI9TDataTypeE 0x00014624   Data           0  APGCLI.o(.ARM.extab)
    .extab._ZNK13RApaLsSession15GetAppIconSizesE4TUidR13CArrayFixFlatI5TSizeE 0x0001463c   Data           0  APGCLI.o(.ARM.extab)
    .extab._ZNK13RApaLsSession11GetAppViewsER13CArrayFixFlatI15TApaAppViewInfoE4TUid 0x00014664   Data           0  APGCLI.o(.ARM.extab)
    .extab._ZNK13RApaLsSession16GetAppOwnedFilesER12CDesC16Array4TUid 0x0001468c   Data           0  APGCLI.o(.ARM.extab)
    .extab._ZN21CAsyncFileRecognitionC1ER27CDataRecognitionResultArrayR14TRequestStatusR22CApaLsSessionExtension 0x000146b4   Data           0  APGCLI.o(.ARM.extab)
    .extab._ZN13RApaLsSession17ForceRegistrationERK13RPointerArrayI7TDesC16E 0x000146c4   Data           0  APGCLI.o(.ARM.extab)
    .extab._ZN21CAsyncFileRecognitionD1Ev    0x000146ec   Data           0  APGCLI.o(.ARM.extab)
    .extab._ZN22CApaLsSessionExtension15FilesRecognizedERK7TDesC16iR27CDataRecognitionResultArrayR14TRequestStatusRKS5_ 0x000146fc   Data           0  APGCLI.o(.ARM.extab)
    .extab._ZN22CApaLsSessionExtensionD1Ev   0x00014724   Data           0  APGCLI.o(.ARM.extab)
    .extab._ZrsI13CArrayFixFlatI18TApaAppServiceInfoEER11RReadStreamS4_RT_ 0x00014734   Data           0  APGCLI.o(.ARM.extab)
    .extab._ZN15CApaIconPicture10ConstructLEv 0x0001474c   Data           0  APGPRIV.o(.ARM.extab)
    .extab._ZN15CApaIconPictureC1ERK5TSize4TUid 0x0001475c   Data           0  APGPRIV.o(.ARM.extab)
    .extab._ZN15CApaIconPicture14SetScaleFactorEii 0x0001476c   Data           0  APGPRIV.o(.ARM.extab)
    .extab._ZN15CApaIconPictureD1Ev          0x0001479c   Data           0  APGPRIV.o(.ARM.extab)
    .extab._ZN19CApaAppListNotifierD1Ev      0x000147ac   Data           0  apgnotif.o(.ARM.extab)
    .extab._ZN19CApaAppListNotifierC1ER23MApaAppListServObserverN7CActive9TPriorityE 0x000147bc   Data           0  apgnotif.o(.ARM.extab)
    .extab._ZN17CApaAppInfoReaderD2Ev        0x000147cc   Data           0  APGAIR.o(.ARM.extab)
    .extab._ZN17CApaAppInfoReaderC2ER3RFs4TUid 0x000147dc   Data           0  APGAIR.o(.ARM.extab)
    .extab._ZN14CApaIconLoaderC1ER3RFs       0x000147ec   Data           0  APGAIRV2.o(.ARM.extab)
    .extab._ZN14CApaIconLoaderD1Ev           0x000147fc   Data           0  APGAIRV2.o(.ARM.extab)
    .extab._ZN16CApaAppIconArray10LoadIconsLEv 0x0001480c   Data           0  APGAIRV2.o(.ARM.extab)
    .extab._ZN16CApaAppIconArrayD1Ev         0x00014834   Data           0  APGAIRV2.o(.ARM.extab)
    .extab._ZNK16CApaAppIconArray10IconBySizeERK5TSize 0x00014844   Data           0  APGAIRV2.o(.ARM.extab)
    .extab._ZNK16CApaAppIconArray10IconSizesLEv 0x0001486c   Data           0  APGAIRV2.o(.ARM.extab)
    .extab._ZNK16CApaAppIconArray5CountEv    0x00014894   Data           0  APGAIRV2.o(.ARM.extab)
    .extab._ZNK16CApaAppIconArrayixEi        0x000148bc   Data           0  APGAIRV2.o(.ARM.extab)
    .extab._ZN19CApaAppInfoReaderV2D1Ev      0x000148e4   Data           0  APGAIRV2.o(.ARM.extab)
    .extab._ZN19CApaAppInfoReaderV220ReadLocalisableInfoLEPK13CResourceFilejRi 0x000148f4   Data           0  APGAIRV2.o(.ARM.extab)
    .extab._ZN19CApaAppInfoReaderV231ReadNonLocalisableOptionalInfoLER15RResourceReaderPK13CResourceFilePS2_ 0x0001492c   Data           0  APGAIRV2.o(.ARM.extab)
    .extab._ZN19CApaAppInfoReaderV223ReadNonLocalisableInfoLER15RResourceReaderRP13CResourceFileRj 0x00014954   Data           0  APGAIRV2.o(.ARM.extab)
    .extab._ZN19CApaAppInfoReaderV218ReadMandatoryInfoLERP13CResourceFileR15RResourceReader 0x00014960   Data           0  APGAIRV2.o(.ARM.extab)
    .extab._ZN19CApaAppInfoReaderV24ReadEv   0x0001496c   Data           0  APGAIRV2.o(.ARM.extab)
    .extab._ZN17CApaSecurityUtils16CheckAppSecurityERK7TPtrC16RiS3_ 0x00014a3c   Data           0  apsecutils.o(.ARM.extab)
    .extab._ZN18TApaAppServiceInfo12InternalizeLER11RReadStream 0x00014a4c   Data           0  APGAPLSTV2.o(.ARM.extab)
    .extab._ZN11CApaAppData27StoreApplicationInformationEv 0x00014a64   Data           0  APGAPLSTV2.o(.ARM.extab)
    .extab._ZN11CApaAppDataC1ER3RFs          0x00014aac   Data           0  APGAPLSTV2.o(.ARM.extab)
    .extab._ZN11CApaAppDataD1Ev              0x00014ac4   Data           0  APGAPLSTV2.o(.ARM.extab)
    .extab._ZNK11CApaAppData8AppEntryEv      0x00014ad4   Data           0  APGAPLSTV2.o(.ARM.extab)
    .extab._ZN11CApaAppData6UpdateEv         0x00014ae0   Data           0  APGAPLSTV2.o(.ARM.extab)
    .extab._ZN11CApaAppData12InternalizeLER11RReadStream 0x00014aec   Data           0  APGAPLSTV2.o(.ARM.extab)
    .extab._ZN15CApaAppViewDataD1Ev          0x00014b34   Data           0  APGAPLSTV2.o(.ARM.extab)
    .extab._ZN11CApaAppList21CApaLangChangeMonitorC1ERS_ 0x00014b44   Data           0  APGAPLSTV2.o(.ARM.extab)
    .extab._ZN11CApaAppListC1ER3RFsP16CApaAppRegFinderii 0x00014b54   Data           0  APGAPLSTV2.o(.ARM.extab)
    .extab._ZN11CApaAppList4NewLER3RFsP16CApaAppRegFinderii 0x00014b64   Data           0  APGAPLSTV2.o(.ARM.extab)
    .extab._ZN11CApaAppList6PurgeLEv         0x00014b74   Data           0  APGAPLSTV2.o(.ARM.extab)
    .extab._ZN11CApaAppList18CApaIdleIconLoaderC1EP11CApaAppDataR3RFsRS_ 0x00014b9c   Data           0  APGAPLSTV2.o(.ARM.extab)
    .extab._ZN11CApaAppList17CApaAppListStorerC1EP11CApaAppDataR3RFsRS_ 0x00014bac   Data           0  APGAPLSTV2.o(.ARM.extab)
    .extab._ZN11CApaAppList24InitiateStoringOfAppListEv 0x00014bbc   Data           0  APGAPLSTV2.o(.ARM.extab)
    .extab._ZN11CApaAppList14UpdateNextAppLERK12TApaAppEntryRi 0x00014be4   Data           0  APGAPLSTV2.o(.ARM.extab)
    .extab._ZN11CApaAppList11IdleUpdateLEv   0x00014c0c   Data           0  APGAPLSTV2.o(.ARM.extab)
    .extab._ZN11CApaAppList16StartIdleUpdateLEv 0x00014c54   Data           0  APGAPLSTV2.o(.ARM.extab)
    .extab._ZN11CApaAppList12RestartScanLEv  0x00014c7c   Data           0  APGAPLSTV2.o(.ARM.extab)
    .extab._ZN11CApaAppList8RestoreLEv       0x00014ca4   Data           0  APGAPLSTV2.o(.ARM.extab)
    .extab._ZN11CApaAppList32DeleteAppsListBackUpAndTempFilesEv 0x00014ccc   Data           0  APGAPLSTV2.o(.ARM.extab)
    .extab._ZN11CApaAppList9InitListLEP19MApaAppListObserver 0x00014cd8   Data           0  APGAPLSTV2.o(.ARM.extab)
    .extab._ZN11CApaAppListD1Ev              0x00014d00   Data           0  APGAPLSTV2.o(.ARM.extab)
    .extab._ZNK11CApaAppList17AppDataByFileNameERK7TDesC16 0x00014d10   Data           0  APGAPLSTV2.o(.ARM.extab)
    .extab._ZN11CApaAppList18CApaIdleIconLoaderD1Ev 0x00014d1c   Data           0  APGAPLSTV2.o(.ARM.extab)
    .extab._ZN11CApaAppList17CApaAppListStorerD1Ev 0x00014d2c   Data           0  APGAPLSTV2.o(.ARM.extab)
    .extab._ZN30CApaAppServiceInfoArrayWrapper4NewLEP9CArrayFixI18TApaAppServiceInfoE 0x00014d3c   Data           0  APGAPLSTV2.o(.ARM.extab)
    .extab._ZN30CApaAppServiceInfoArrayWrapperD1Ev 0x00014d4c   Data           0  APGAPLSTV2.o(.ARM.extab)
    .extab._ZN11CApaAppList21CApaLangChangeMonitorD1Ev 0x00014d5c   Data           0  APGAPLSTV2.o(.ARM.extab)
    .constdata$1                             0x00014d6c   Data           0  APGCTL.o(.constdata)
    KExecutableImageUid                      0x00014d6c   Data           4  APGCTL.o(.constdata)
    .constdata                               0x00014d6c   Section        8  APGCTL.o(.constdata)
    KUidApp16                                0x00014d70   Data           4  APGCTL.o(.constdata)
    .constdata$1                             0x00014d74   Data           0  APGDOOR.o(.constdata)
    KUidPictureTypeDoor16                    0x00014d74   Data           4  APGDOOR.o(.constdata)
    .constdata                               0x00014d74   Section       16  APGDOOR.o(.constdata)
    KUidSecurityStream16                     0x00014d78   Data           4  APGDOOR.o(.constdata)
    KUidApaDoorDocStream16                   0x00014d7c   Data           4  APGDOOR.o(.constdata)
    KUidApaDoorStateStream                   0x00014d80   Data           4  APGDOOR.o(.constdata)
    .constdata$1                             0x00014d84   Data           0  APGICNFL.o(.constdata)
    KDirectFileStoreLayoutUid                0x00014d84   Data           4  APGICNFL.o(.constdata)
    .constdata                               0x00014d84   Section       84  APGICNFL.o(.constdata)
    KUidAppRegistrationFile                  0x00014d88   Data           4  APGICNFL.o(.constdata)
    KCBitwiseBitmapUid                       0x00014d8c   Data           4  APGICNFL.o(.constdata)
    KUidInterimFormatFileForJavaMIDletInstaller 0x00014d90   Data           4  APGICNFL.o(.constdata)
    KUidAppInfoFile16                        0x00014d94   Data           4  APGICNFL.o(.constdata)
    KNullDesC                                0x00014d98   Data           8  APGICNFL.o(.constdata)
    KAppInfoFileExtension                    0x00014da0   Data          16  APGICNFL.o(.constdata)
    KApaCaptionFileSuffix                    0x00014db0   Data          24  APGICNFL.o(.constdata)
    KAppResourceFileExtension                0x00014dc8   Data          16  APGICNFL.o(.constdata)
    .constdata$1                             0x00014dd8   Data           0  APGSTD.o(.constdata)
    KApGrfxPanic@_Z5Panic9TApgPanic_0        0x00014dd8   Data          20  APGSTD.o(.constdata)
    .constdata                               0x00014dd8   Section       20  APGSTD.o(.constdata)
    .constdata$1                             0x00014dec   Data           0  APGTASK.o(.constdata)
    KUidApaMessageSwitchOpenFile16           0x00014dec   Data           4  APGTASK.o(.constdata)
    .constdata                               0x00014dec   Section        8  APGTASK.o(.constdata)
    KUidApaMessageSwitchCreateFile16         0x00014df0   Data           4  APGTASK.o(.constdata)
    .constdata$1                             0x00014df4   Data           0  APGWGNAM.o(.constdata)
    KSearchAnyFile                           0x00014df4   Data           8  APGWGNAM.o(.constdata)
    .constdata                               0x00014df4   Section       56  APGWGNAM.o(.constdata)
    KDefaultWindowGroupName                  0x00014dfc   Data          32  APGWGNAM.o(.constdata)
    KFormatStatus                            0x00014e1c   Data          16  APGWGNAM.o(.constdata)
    .constdata$1                             0x00014e2c   Data           0  APGCLI.o(.constdata)
    KOpenServiceUid                          0x00014e2c   Data           4  APGCLI.o(.constdata)
    .constdata                               0x00014e2c   Section      252  APGCLI.o(.constdata)
    KNullDesC                                0x00014e30   Data           8  APGCLI.o(.constdata)
    KAllDataTypes                            0x00014e38   Data           8  APGCLI.o(.constdata)
    KBackslash@_ZNK13RApaLsSession15RecognizeFilesLERK7TDesC16RK6TDesC8R27CDataRecognitionResultArray_0 0x00014e40   Data           8  APGCLI.o(.constdata)
    KBackslash@_ZN22CApaLsSessionExtension15RecognizeFilesLERK7TDesC16RK6TDesC8R27CDataRecognitionResultArrayR14TRequestStatus_0 0x00014e48   Data           8  APGCLI.o(.constdata)
    KAppListServerName                       0x00014e50   Data          36  APGCLI.o(.constdata)
    KLitPathForNonNativeResourceAndIconFiles 0x00014e74   Data         104  APGCLI.o(.constdata)
    KLitFormatForLocalisableResourceFile     0x00014edc   Data          32  APGCLI.o(.constdata)
    KLitSysBin@_ZNK13RApaLsSession9IsProgramERK7TDesC16Ri_0 0x00014efc   Data          24  APGCLI.o(.constdata)
    KCCMain@_ZN13RApaLsSession12GetThreadIdLER9TThreadIdRK8RProcess_0 0x00014f14   Data          20  APGCLI.o(.constdata)
    .constdata$1                             0x00014f28   Data           0  APGAIRV2.o(.constdata)
    KUidApp16                                0x00014f28   Data           4  APGAIRV2.o(.constdata)
    .constdata                               0x00014f28   Section      304  APGAIRV2.o(.constdata)
    KOpenServiceUid                          0x00014f2c   Data           4  APGAIRV2.o(.constdata)
    KDynamicLibraryUid                       0x00014f30   Data           4  APGAIRV2.o(.constdata)
    KExecutableImageUid                      0x00014f34   Data           4  APGAIRV2.o(.constdata)
    KNullDesC                                0x00014f38   Data           8  APGAIRV2.o(.constdata)
    KLitPathForUntrustedRegistrationResourceFiles 0x00014f40   Data          72  APGAIRV2.o(.constdata)
    KAppResourceFileExtension                0x00014f88   Data          16  APGAIRV2.o(.constdata)
    KLitPathForNonNativeResourceAndIconFiles 0x00014f98   Data         104  APGAIRV2.o(.constdata)
    KAppBinaryPathAndExtension               0x00015000   Data          32  APGAIRV2.o(.constdata)
    KV1AppPathAndExtension                   0x00015020   Data          40  APGAIRV2.o(.constdata)
    KFileExtensionMBM@_ZN19CApaAppInfoReaderV29FileIsMbmERK7TDesC16_0 0x00015048   Data          16  APGAIRV2.o(.constdata)
    .constdata$1                             0x00015058   Data           0  APSCLI.o(.constdata)
    KServerUid3                              0x00015058   Data           4  APSCLI.o(.constdata)
    .constdata                               0x00015058   Section       32  APSCLI.o(.constdata)
    KNullDesC                                0x0001505c   Data           8  APSCLI.o(.constdata)
    KNameApaImage                            0x00015064   Data          20  APSCLI.o(.constdata)
    .constdata$7                             0x00015078   Data           0  apgconstdata.o(.constdata)
    .constdata                               0x00015078   Section        4  apgconstdata.o(.constdata)
    .constdata$1                             0x0001507c   Data           0  APGAPLSTV2.o(.constdata)
    KNullDesC                                0x0001507c   Data           8  APGAPLSTV2.o(.constdata)
    .constdata                               0x0001507c   Section      528  APGAPLSTV2.o(.constdata)
    KNullDesC8                               0x00015084   Data           8  APGAPLSTV2.o(.constdata)
    KDefaultAppIconMbm                       0x0001508c   Data          80  APGAPLSTV2.o(.constdata)
    KAppResourceFileExtension                0x000150dc   Data          16  APGAPLSTV2.o(.constdata)
    KLitPathForNonNativeResourceAndIconFiles 0x000150ec   Data         104  APGAPLSTV2.o(.constdata)
    KTemp@_ZN11CApaAppList32DeleteAppsListBackUpAndTempFilesEv_0 0x00015154   Data          32  APGAPLSTV2.o(.constdata)
    KAppsListCacheFileName@_ZN11CApaAppList21GetAppsListCachePathLEv_0 0x00015174   Data          96  APGAPLSTV2.o(.constdata)
    KAppsListCacheBackUpFileName@_ZN11CApaAppList21GetAppsListCachePathLEv_1 0x000151d4   Data         112  APGAPLSTV2.o(.constdata)
    KAppsListCachePath@_ZN11CApaAppList21GetAppsListCachePathLEv_2 0x00015244   Data          72  APGAPLSTV2.o(.constdata)
    .constdata__ZTI11CApaAppData             0x0001528c   Section       12  APGAPLSTV2.o(.constdata__ZTI11CApaAppData)
    .constdata__ZTI11CApaAppList             0x00015298   Section       12  APGAPLSTV2.o(.constdata__ZTI11CApaAppList)
    .constdata__ZTI11RHandleBase             0x000152a4   Section        8  APGCLI.o(.constdata__ZTI11RHandleBase)
    .constdata__ZTI12CApaAppEntry            0x000152ac   Section       12  APGAPLSTV2.o(.constdata__ZTI12CApaAppEntry)
    .constdata__ZTI12MArrayFiller            0x000152b8   Section        8  APGCLI.o(.constdata__ZTI12MArrayFiller)
    .constdata__ZTI12RSessionBase            0x000152c0   Section       12  APGCLI.o(.constdata__ZTI12RSessionBase)
    .constdata__ZTI13CArrayFixFlatI18TApaAppServiceInfoE 0x000152cc   Section       12  APGCLI.o(.constdata__ZTI13CArrayFixFlatI18TApaAppServiceInfoE)
    .constdata__ZTI13CArrayFixFlatI21TDataTypeWithPriorityE 0x000152d8   Section       12  APGAIRV2.o(.constdata__ZTI13CArrayFixFlatI21TDataTypeWithPriorityE)
    .constdata__ZTI13CArrayFixFlatI5TSizeE   0x000152e4   Section       12  APGAIRV2.o(.constdata__ZTI13CArrayFixFlatI5TSizeE)
    .constdata__ZTI13CArrayFixFlatIN15CApaAppInfoFile11TIconHeaderEE 0x000152f0   Section       12  APGICNFL.o(.constdata__ZTI13CArrayFixFlatIN15CApaAppInfoFile11TIconHeaderEE)
    .constdata__ZTI13CArrayFixFlatIN15CApaAppInfoFile14TCaptionHeaderEE 0x000152fc   Section       12  APGICNFL.o(.constdata__ZTI13CArrayFixFlatIN15CApaAppInfoFile14TCaptionHeaderEE)
    .constdata__ZTI13CArrayFixFlatIN15CApaAppInfoFile15TDataTypeHeaderEE 0x00015308   Section       12  APGICNFL.o(.constdata__ZTI13CArrayFixFlatIN15CApaAppInfoFile15TDataTypeHeaderEE)
    .constdata__ZTI13CArrayFixFlatIN15CApaAppInfoFile15TViewDataHeaderEE 0x00015314   Section       12  APGICNFL.o(.constdata__ZTI13CArrayFixFlatIN15CApaAppInfoFile15TViewDataHeaderEE)
    .constdata__ZTI13CArrayFixFlatIN15CApaAppInfoFile24TFileOwnershipInfoHeaderEE 0x00015320   Section       12  APGICNFL.o(.constdata__ZTI13CArrayFixFlatIN15CApaAppInfoFile24TFileOwnershipInfoHeaderEE)
    .constdata__ZTI13CArrayPtrFlatI14CApaAIFCaptionE 0x0001532c   Section       12  APGICNFL.o(.constdata__ZTI13CArrayPtrFlatI14CApaAIFCaptionE)
    .constdata__ZTI13CArrayPtrFlatI15CApaAppViewDataE 0x00015338   Section       12  APGAIRV2.o(.constdata__ZTI13CArrayPtrFlatI15CApaAppViewDataE)
    .constdata__ZTI13CArrayPtrFlatI16CApaMaskedBitmapE 0x00015344   Section       12  APGICNFL.o(.constdata__ZTI13CArrayPtrFlatI16CApaMaskedBitmapE)
    .constdata__ZTI13RApaLsSession           0x00015350   Section       24  APGCLI.o(.constdata__ZTI13RApaLsSession)
    .constdata__ZTI14CApaAIFCaption          0x00015368   Section       12  APGICNFL.o(.constdata__ZTI14CApaAIFCaption)
    .constdata__ZTI14CApaIconLoader          0x00015374   Section       12  APGAIRV2.o(.constdata__ZTI14CApaIconLoader)
    .constdata__ZTI14MUnicodeSource          0x00015380   Section        8  APGICNFL.o(.constdata__ZTI14MUnicodeSource)
    .constdata__ZTI15CApaAIFViewData         0x00015388   Section       12  APGICNFL.o(.constdata__ZTI15CApaAIFViewData)
    .constdata__ZTI15CApaAppInfoFile         0x00015394   Section       12  APGICNFL.o(.constdata__ZTI15CApaAppInfoFile)
    .constdata__ZTI15CApaAppViewData         0x000153a0   Section       12  APGAPLSTV2.o(.constdata__ZTI15CApaAppViewData)
    .constdata__ZTI15CApaIconPicture         0x000153ac   Section       12  APGPRIV.o(.constdata__ZTI15CApaIconPicture)
    .constdata__ZTI15MPictureFactory         0x000153b8   Section        8  APGDOOR.o(.constdata__ZTI15MPictureFactory)
    .constdata__ZTI16CApaAppIconArray        0x000153c0   Section       12  APGAIRV2.o(.constdata__ZTI16CApaAppIconArray)
    .constdata__ZTI16CApaMaskedBitmap        0x000153cc   Section       12  APGICNFL.o(.constdata__ZTI16CApaMaskedBitmap)
    .constdata__ZTI16TDesCArrayFiller        0x000153d8   Section       12  APGCLI.o(.constdata__ZTI16TDesCArrayFiller)
    .constdata__ZTI16TSizeArrayFiller        0x000153e4   Section       12  APGCLI.o(.constdata__ZTI16TSizeArrayFiller)
    .constdata__ZTI17CApaAppInfoReader       0x000153f0   Section       12  APGAIR.o(.constdata__ZTI17CApaAppInfoReader)
    .constdata__ZTI17CApaSystemControl       0x000153fc   Section       12  APGCTL.o(.constdata__ZTI17CApaSystemControl)
    .constdata__ZTI18TApaPictureFactory      0x00015408   Section       12  APGDOOR.o(.constdata__ZTI18TApaPictureFactory)
    .constdata__ZTI19CApaAppInfoReaderV2     0x00015414   Section       12  APGAIRV2.o(.constdata__ZTI19CApaAppInfoReaderV2)
    .constdata__ZTI19CApaAppListNotifier     0x00015420   Section       12  apgnotif.o(.constdata__ZTI19CApaAppListNotifier)
    .constdata__ZTI19CApaWindowGroupName     0x0001542c   Section       12  APGWGNAM.o(.constdata__ZTI19CApaWindowGroupName)
    .constdata__ZTI20TMemoryUnicodeSource    0x00015438   Section       12  APGICNFL.o(.constdata__ZTI20TMemoryUnicodeSource)
    .constdata__ZTI20TViewDataArrayFiller    0x00015444   Section       12  APGCLI.o(.constdata__ZTI20TViewDataArrayFiller)
    .constdata__ZTI21CApaAppInfoFileReader   0x00015450   Section       12  APGICNFL.o(.constdata__ZTI21CApaAppInfoFileReader)
    .constdata__ZTI21CApaAppInfoFileWriter   0x0001545c   Section       12  APGICNFL.o(.constdata__ZTI21CApaAppInfoFileWriter)
    .constdata__ZTI21CApaSystemControlList   0x00015468   Section       12  APGCTL.o(.constdata__ZTI21CApaSystemControlList)
    .constdata__ZTI21CAsyncFileRecognition   0x00015474   Section       12  APGCLI.o(.constdata__ZTI21CAsyncFileRecognition)
    .constdata__ZTI22CApaLsSessionExtension  0x00015480   Section       12  APGCLI.o(.constdata__ZTI22CApaLsSessionExtension)
    .constdata__ZTI23MApaAppListServObserver 0x0001548c   Section        8  apgnotif.o(.constdata__ZTI23MApaAppListServObserver)
    .constdata__ZTI24CApaAppCaptionFileReader 0x00015494   Section       12  APGICNFL.o(.constdata__ZTI24CApaAppCaptionFileReader)
    .constdata__ZTI26CApaResourceFileWriterBase 0x000154a0   Section       12  APGICNFL.o(.constdata__ZTI26CApaResourceFileWriterBase)
    .constdata__ZTI27CDataRecognitionResultArray 0x000154ac   Section       12  APGCLI.o(.constdata__ZTI27CDataRecognitionResultArray)
    .constdata__ZTI30CApaAppServiceInfoArrayWrapper 0x000154b8   Section       12  APGAPLSTV2.o(.constdata__ZTI30CApaAppServiceInfoArrayWrapper)
    .constdata__ZTI32CDataRecognitionResultArrayEntry 0x000154c4   Section       12  APGCLI.o(.constdata__ZTI32CDataRecognitionResultArrayEntry)
    .constdata__ZTI33CApaLocalisableResourceFileWriter 0x000154d0   Section       12  APGICNFL.o(.constdata__ZTI33CApaLocalisableResourceFileWriter)
    .constdata__ZTI34CApaRegistrationResourceFileWriter 0x000154dc   Section       12  APGICNFL.o(.constdata__ZTI34CApaRegistrationResourceFileWriter)
    .constdata__ZTI7HBufBuf                  0x000154e8   Section       12  APGDOOR.o(.constdata__ZTI7HBufBuf)
    .constdata__ZTI8CApaDoor                 0x000154f4   Section       12  APGDOOR.o(.constdata__ZTI8CApaDoor)
    .constdata__ZTI9CArrayFixI18TApaAppServiceInfoE 0x00015500   Section       12  APGCLI.o(.constdata__ZTI9CArrayFixI18TApaAppServiceInfoE)
    .constdata__ZTI9CArrayFixI21TDataTypeWithPriorityE 0x0001550c   Section       12  APGAIRV2.o(.constdata__ZTI9CArrayFixI21TDataTypeWithPriorityE)
    .constdata__ZTI9CArrayFixI5TSizeE        0x00015518   Section       12  APGAIRV2.o(.constdata__ZTI9CArrayFixI5TSizeE)
    .constdata__ZTI9CArrayFixIN15CApaAppInfoFile11TIconHeaderEE 0x00015524   Section       12  APGICNFL.o(.constdata__ZTI9CArrayFixIN15CApaAppInfoFile11TIconHeaderEE)
    .constdata__ZTI9CArrayFixIN15CApaAppInfoFile14TCaptionHeaderEE 0x00015530   Section       12  APGICNFL.o(.constdata__ZTI9CArrayFixIN15CApaAppInfoFile14TCaptionHeaderEE)
    .constdata__ZTI9CArrayFixIN15CApaAppInfoFile15TDataTypeHeaderEE 0x0001553c   Section       12  APGICNFL.o(.constdata__ZTI9CArrayFixIN15CApaAppInfoFile15TDataTypeHeaderEE)
    .constdata__ZTI9CArrayFixIN15CApaAppInfoFile15TViewDataHeaderEE 0x00015548   Section       12  APGICNFL.o(.constdata__ZTI9CArrayFixIN15CApaAppInfoFile15TViewDataHeaderEE)
    .constdata__ZTI9CArrayFixIN15CApaAppInfoFile24TFileOwnershipInfoHeaderEE 0x00015554   Section       12  APGICNFL.o(.constdata__ZTI9CArrayFixIN15CApaAppInfoFile24TFileOwnershipInfoHeaderEE)
    .constdata__ZTI9CArrayFixIP14CApaAIFCaptionE 0x00015560   Section       12  APGICNFL.o(.constdata__ZTI9CArrayFixIP14CApaAIFCaptionE)
    .constdata__ZTI9CArrayFixIP15CApaAppViewDataE 0x0001556c   Section       12  APGAIRV2.o(.constdata__ZTI9CArrayFixIP15CApaAppViewDataE)
    .constdata__ZTI9CArrayFixIP16CApaMaskedBitmapE 0x00015578   Section       12  APGICNFL.o(.constdata__ZTI9CArrayFixIP16CApaMaskedBitmapE)
    .constdata__ZTI9CArrayPtrI14CApaAIFCaptionE 0x00015584   Section       12  APGICNFL.o(.constdata__ZTI9CArrayPtrI14CApaAIFCaptionE)
    .constdata__ZTI9CArrayPtrI15CApaAppViewDataE 0x00015590   Section       12  APGAIRV2.o(.constdata__ZTI9CArrayPtrI15CApaAppViewDataE)
    .constdata__ZTI9CArrayPtrI16CApaMaskedBitmapE 0x0001559c   Section       12  APGICNFL.o(.constdata__ZTI9CArrayPtrI16CApaMaskedBitmapE)
    .constdata__ZTIN11CApaAppList17CApaAppListStorerE 0x000155a8   Section       12  APGAPLSTV2.o(.constdata__ZTIN11CApaAppList17CApaAppListStorerE)
    .constdata__ZTIN11CApaAppList18CApaIdleIconLoaderE 0x000155b4   Section       12  APGAPLSTV2.o(.constdata__ZTIN11CApaAppList18CApaIdleIconLoaderE)
    .constdata__ZTIN11CApaAppList21CApaLangChangeMonitorE 0x000155c0   Section       12  APGAPLSTV2.o(.constdata__ZTIN11CApaAppList21CApaLangChangeMonitorE)
    .constdata__ZTIN26CApaResourceFileWriterBase11RBufferSinkE 0x000155cc   Section       12  APGICNFL.o(.constdata__ZTIN26CApaResourceFileWriterBase11RBufferSinkE)
    .constdata__ZTIN26CApaResourceFileWriterBase9MDataSinkE 0x000155d8   Section        8  APGICNFL.o(.constdata__ZTIN26CApaResourceFileWriterBase9MDataSinkE)
    .constdata__ZTS11CApaAppData             0x000155e0   Section       14  APGAPLSTV2.o(.constdata__ZTS11CApaAppData)
    .constdata__ZTS11CApaAppList             0x000155ee   Section       14  APGAPLSTV2.o(.constdata__ZTS11CApaAppList)
    .constdata__ZTS11RHandleBase             0x000155fc   Section       14  APGCLI.o(.constdata__ZTS11RHandleBase)
    .constdata__ZTS12CApaAppEntry            0x0001560a   Section       15  APGAPLSTV2.o(.constdata__ZTS12CApaAppEntry)
    .constdata__ZTS12MArrayFiller            0x00015619   Section       15  APGCLI.o(.constdata__ZTS12MArrayFiller)
    .constdata__ZTS12RSessionBase            0x00015628   Section       15  APGCLI.o(.constdata__ZTS12RSessionBase)
    .constdata__ZTS13CArrayFixFlatI18TApaAppServiceInfoE 0x00015637   Section       38  APGCLI.o(.constdata__ZTS13CArrayFixFlatI18TApaAppServiceInfoE)
    .constdata__ZTS13CArrayFixFlatI21TDataTypeWithPriorityE 0x0001565d   Section       41  APGAIRV2.o(.constdata__ZTS13CArrayFixFlatI21TDataTypeWithPriorityE)
    .constdata__ZTS13CArrayFixFlatI5TSizeE   0x00015686   Section       24  APGAIRV2.o(.constdata__ZTS13CArrayFixFlatI5TSizeE)
    .constdata__ZTS13CArrayFixFlatIN15CApaAppInfoFile11TIconHeaderEE 0x0001569e   Section       50  APGICNFL.o(.constdata__ZTS13CArrayFixFlatIN15CApaAppInfoFile11TIconHeaderEE)
    .constdata__ZTS13CArrayFixFlatIN15CApaAppInfoFile14TCaptionHeaderEE 0x000156d0   Section       53  APGICNFL.o(.constdata__ZTS13CArrayFixFlatIN15CApaAppInfoFile14TCaptionHeaderEE)
    .constdata__ZTS13CArrayFixFlatIN15CApaAppInfoFile15TDataTypeHeaderEE 0x00015705   Section       54  APGICNFL.o(.constdata__ZTS13CArrayFixFlatIN15CApaAppInfoFile15TDataTypeHeaderEE)
    .constdata__ZTS13CArrayFixFlatIN15CApaAppInfoFile15TViewDataHeaderEE 0x0001573b   Section       54  APGICNFL.o(.constdata__ZTS13CArrayFixFlatIN15CApaAppInfoFile15TViewDataHeaderEE)
    .constdata__ZTS13CArrayFixFlatIN15CApaAppInfoFile24TFileOwnershipInfoHeaderEE 0x00015771   Section       63  APGICNFL.o(.constdata__ZTS13CArrayFixFlatIN15CApaAppInfoFile24TFileOwnershipInfoHeaderEE)
    .constdata__ZTS13CArrayPtrFlatI14CApaAIFCaptionE 0x000157b0   Section       34  APGICNFL.o(.constdata__ZTS13CArrayPtrFlatI14CApaAIFCaptionE)
    .constdata__ZTS13CArrayPtrFlatI15CApaAppViewDataE 0x000157d2   Section       35  APGAIRV2.o(.constdata__ZTS13CArrayPtrFlatI15CApaAppViewDataE)
    .constdata__ZTS13CArrayPtrFlatI16CApaMaskedBitmapE 0x000157f5   Section       36  APGICNFL.o(.constdata__ZTS13CArrayPtrFlatI16CApaMaskedBitmapE)
    .constdata__ZTS13RApaLsSession           0x00015819   Section       16  APGCLI.o(.constdata__ZTS13RApaLsSession)
    .constdata__ZTS14CApaAIFCaption          0x00015829   Section       17  APGICNFL.o(.constdata__ZTS14CApaAIFCaption)
    .constdata__ZTS14CApaIconLoader          0x0001583a   Section       17  APGAIRV2.o(.constdata__ZTS14CApaIconLoader)
    .constdata__ZTS14MUnicodeSource          0x0001584b   Section       17  APGICNFL.o(.constdata__ZTS14MUnicodeSource)
    .constdata__ZTS15CApaAIFViewData         0x0001585c   Section       18  APGICNFL.o(.constdata__ZTS15CApaAIFViewData)
    .constdata__ZTS15CApaAppInfoFile         0x0001586e   Section       18  APGICNFL.o(.constdata__ZTS15CApaAppInfoFile)
    .constdata__ZTS15CApaAppViewData         0x00015880   Section       18  APGAPLSTV2.o(.constdata__ZTS15CApaAppViewData)
    .constdata__ZTS15CApaIconPicture         0x00015892   Section       18  APGPRIV.o(.constdata__ZTS15CApaIconPicture)
    .constdata__ZTS15MPictureFactory         0x000158a4   Section       18  APGDOOR.o(.constdata__ZTS15MPictureFactory)
    .constdata__ZTS16CApaAppIconArray        0x000158b6   Section       19  APGAIRV2.o(.constdata__ZTS16CApaAppIconArray)
    .constdata__ZTS16CApaMaskedBitmap        0x000158c9   Section       19  APGICNFL.o(.constdata__ZTS16CApaMaskedBitmap)
    .constdata__ZTS16TDesCArrayFiller        0x000158dc   Section       19  APGCLI.o(.constdata__ZTS16TDesCArrayFiller)
    .constdata__ZTS16TSizeArrayFiller        0x000158ef   Section       19  APGCLI.o(.constdata__ZTS16TSizeArrayFiller)
    .constdata__ZTS17CApaAppInfoReader       0x00015902   Section       20  APGAIR.o(.constdata__ZTS17CApaAppInfoReader)
    .constdata__ZTS17CApaSystemControl       0x00015916   Section       20  APGCTL.o(.constdata__ZTS17CApaSystemControl)
    .constdata__ZTS18TApaPictureFactory      0x0001592a   Section       21  APGDOOR.o(.constdata__ZTS18TApaPictureFactory)
    .constdata__ZTS19CApaAppInfoReaderV2     0x0001593f   Section       22  APGAIRV2.o(.constdata__ZTS19CApaAppInfoReaderV2)
    .constdata__ZTS19CApaAppListNotifier     0x00015955   Section       22  apgnotif.o(.constdata__ZTS19CApaAppListNotifier)
    .constdata__ZTS19CApaWindowGroupName     0x0001596b   Section       22  APGWGNAM.o(.constdata__ZTS19CApaWindowGroupName)
    .constdata__ZTS20TMemoryUnicodeSource    0x00015981   Section       23  APGICNFL.o(.constdata__ZTS20TMemoryUnicodeSource)
    .constdata__ZTS20TViewDataArrayFiller    0x00015998   Section       23  APGCLI.o(.constdata__ZTS20TViewDataArrayFiller)
    .constdata__ZTS21CApaAppInfoFileReader   0x000159af   Section       24  APGICNFL.o(.constdata__ZTS21CApaAppInfoFileReader)
    .constdata__ZTS21CApaAppInfoFileWriter   0x000159c7   Section       24  APGICNFL.o(.constdata__ZTS21CApaAppInfoFileWriter)
    .constdata__ZTS21CApaSystemControlList   0x000159df   Section       24  APGCTL.o(.constdata__ZTS21CApaSystemControlList)
    .constdata__ZTS21CAsyncFileRecognition   0x000159f7   Section       24  APGCLI.o(.constdata__ZTS21CAsyncFileRecognition)
    .constdata__ZTS22CApaLsSessionExtension  0x00015a0f   Section       25  APGCLI.o(.constdata__ZTS22CApaLsSessionExtension)
    .constdata__ZTS23MApaAppListServObserver 0x00015a28   Section       26  apgnotif.o(.constdata__ZTS23MApaAppListServObserver)
    .constdata__ZTS24CApaAppCaptionFileReader 0x00015a42   Section       27  APGICNFL.o(.constdata__ZTS24CApaAppCaptionFileReader)
    .constdata__ZTS26CApaResourceFileWriterBase 0x00015a5d   Section       29  APGICNFL.o(.constdata__ZTS26CApaResourceFileWriterBase)
    .constdata__ZTS27CDataRecognitionResultArray 0x00015a7a   Section       30  APGCLI.o(.constdata__ZTS27CDataRecognitionResultArray)
    .constdata__ZTS30CApaAppServiceInfoArrayWrapper 0x00015a98   Section       33  APGAPLSTV2.o(.constdata__ZTS30CApaAppServiceInfoArrayWrapper)
    .constdata__ZTS32CDataRecognitionResultArrayEntry 0x00015ab9   Section       35  APGCLI.o(.constdata__ZTS32CDataRecognitionResultArrayEntry)
    .constdata__ZTS33CApaLocalisableResourceFileWriter 0x00015adc   Section       36  APGICNFL.o(.constdata__ZTS33CApaLocalisableResourceFileWriter)
    .constdata__ZTS34CApaRegistrationResourceFileWriter 0x00015b00   Section       37  APGICNFL.o(.constdata__ZTS34CApaRegistrationResourceFileWriter)
    .constdata__ZTS7HBufBuf                  0x00015b25   Section        9  APGDOOR.o(.constdata__ZTS7HBufBuf)
    .constdata__ZTS8CApaDoor                 0x00015b2e   Section       10  APGDOOR.o(.constdata__ZTS8CApaDoor)
    .constdata__ZTS9CArrayFixI18TApaAppServiceInfoE 0x00015b38   Section       33  APGCLI.o(.constdata__ZTS9CArrayFixI18TApaAppServiceInfoE)
    .constdata__ZTS9CArrayFixI21TDataTypeWithPriorityE 0x00015b59   Section       36  APGAIRV2.o(.constdata__ZTS9CArrayFixI21TDataTypeWithPriorityE)
    .constdata__ZTS9CArrayFixI5TSizeE        0x00015b7d   Section       19  APGAIRV2.o(.constdata__ZTS9CArrayFixI5TSizeE)
    .constdata__ZTS9CArrayFixIN15CApaAppInfoFile11TIconHeaderEE 0x00015b90   Section       45  APGICNFL.o(.constdata__ZTS9CArrayFixIN15CApaAppInfoFile11TIconHeaderEE)
    .constdata__ZTS9CArrayFixIN15CApaAppInfoFile14TCaptionHeaderEE 0x00015bbd   Section       48  APGICNFL.o(.constdata__ZTS9CArrayFixIN15CApaAppInfoFile14TCaptionHeaderEE)
    .constdata__ZTS9CArrayFixIN15CApaAppInfoFile15TDataTypeHeaderEE 0x00015bed   Section       49  APGICNFL.o(.constdata__ZTS9CArrayFixIN15CApaAppInfoFile15TDataTypeHeaderEE)
    .constdata__ZTS9CArrayFixIN15CApaAppInfoFile15TViewDataHeaderEE 0x00015c1e   Section       49  APGICNFL.o(.constdata__ZTS9CArrayFixIN15CApaAppInfoFile15TViewDataHeaderEE)
    .constdata__ZTS9CArrayFixIN15CApaAppInfoFile24TFileOwnershipInfoHeaderEE 0x00015c4f   Section       58  APGICNFL.o(.constdata__ZTS9CArrayFixIN15CApaAppInfoFile24TFileOwnershipInfoHeaderEE)
    .constdata__ZTS9CArrayFixIP14CApaAIFCaptionE 0x00015c89   Section       30  APGICNFL.o(.constdata__ZTS9CArrayFixIP14CApaAIFCaptionE)
    .constdata__ZTS9CArrayFixIP15CApaAppViewDataE 0x00015ca7   Section       31  APGAIRV2.o(.constdata__ZTS9CArrayFixIP15CApaAppViewDataE)
    .constdata__ZTS9CArrayFixIP16CApaMaskedBitmapE 0x00015cc6   Section       32  APGICNFL.o(.constdata__ZTS9CArrayFixIP16CApaMaskedBitmapE)
    .constdata__ZTS9CArrayPtrI14CApaAIFCaptionE 0x00015ce6   Section       29  APGICNFL.o(.constdata__ZTS9CArrayPtrI14CApaAIFCaptionE)
    .constdata__ZTS9CArrayPtrI15CApaAppViewDataE 0x00015d03   Section       30  APGAIRV2.o(.constdata__ZTS9CArrayPtrI15CApaAppViewDataE)
    .constdata__ZTS9CArrayPtrI16CApaMaskedBitmapE 0x00015d21   Section       31  APGICNFL.o(.constdata__ZTS9CArrayPtrI16CApaMaskedBitmapE)
    .constdata__ZTSN11CApaAppList17CApaAppListStorerE 0x00015d40   Section       35  APGAPLSTV2.o(.constdata__ZTSN11CApaAppList17CApaAppListStorerE)
    .constdata__ZTSN11CApaAppList18CApaIdleIconLoaderE 0x00015d63   Section       36  APGAPLSTV2.o(.constdata__ZTSN11CApaAppList18CApaIdleIconLoaderE)
    .constdata__ZTSN11CApaAppList21CApaLangChangeMonitorE 0x00015d87   Section       39  APGAPLSTV2.o(.constdata__ZTSN11CApaAppList21CApaLangChangeMonitorE)
    .constdata__ZTSN26CApaResourceFileWriterBase11RBufferSinkE 0x00015dae   Section       44  APGICNFL.o(.constdata__ZTSN26CApaResourceFileWriterBase11RBufferSinkE)
    .constdata__ZTSN26CApaResourceFileWriterBase9MDataSinkE 0x00015dda   Section       41  APGICNFL.o(.constdata__ZTSN26CApaResourceFileWriterBase9MDataSinkE)
    .constdata__ZTV11CApaAppData             0x00015e04   Section       20  APGAPLSTV2.o(.constdata__ZTV11CApaAppData)
    .constdata__ZTV11CApaAppList             0x00015e18   Section       20  APGAPLSTV2.o(.constdata__ZTV11CApaAppList)
    .constdata__ZTV12CApaAppEntry            0x00015e2c   Section       20  APGAPLSTV2.o(.constdata__ZTV12CApaAppEntry)
    .constdata__ZTV13CArrayFixFlatI18TApaAppServiceInfoE 0x00015e40   Section       20  APGCLI.o(.constdata__ZTV13CArrayFixFlatI18TApaAppServiceInfoE)
    .constdata__ZTV13CArrayFixFlatI21TDataTypeWithPriorityE 0x00015e54   Section       20  APGAIRV2.o(.constdata__ZTV13CArrayFixFlatI21TDataTypeWithPriorityE)
    .constdata__ZTV13CArrayFixFlatI5TSizeE   0x00015e68   Section       20  APGAIRV2.o(.constdata__ZTV13CArrayFixFlatI5TSizeE)
    .constdata__ZTV13CArrayFixFlatIN15CApaAppInfoFile11TIconHeaderEE 0x00015e7c   Section       20  APGICNFL.o(.constdata__ZTV13CArrayFixFlatIN15CApaAppInfoFile11TIconHeaderEE)
    .constdata__ZTV13CArrayFixFlatIN15CApaAppInfoFile14TCaptionHeaderEE 0x00015e90   Section       20  APGICNFL.o(.constdata__ZTV13CArrayFixFlatIN15CApaAppInfoFile14TCaptionHeaderEE)
    .constdata__ZTV13CArrayFixFlatIN15CApaAppInfoFile15TDataTypeHeaderEE 0x00015ea4   Section       20  APGICNFL.o(.constdata__ZTV13CArrayFixFlatIN15CApaAppInfoFile15TDataTypeHeaderEE)
    .constdata__ZTV13CArrayFixFlatIN15CApaAppInfoFile15TViewDataHeaderEE 0x00015eb8   Section       20  APGICNFL.o(.constdata__ZTV13CArrayFixFlatIN15CApaAppInfoFile15TViewDataHeaderEE)
    .constdata__ZTV13CArrayFixFlatIN15CApaAppInfoFile24TFileOwnershipInfoHeaderEE 0x00015ecc   Section       20  APGICNFL.o(.constdata__ZTV13CArrayFixFlatIN15CApaAppInfoFile24TFileOwnershipInfoHeaderEE)
    .constdata__ZTV13CArrayPtrFlatI14CApaAIFCaptionE 0x00015ee0   Section       20  APGICNFL.o(.constdata__ZTV13CArrayPtrFlatI14CApaAIFCaptionE)
    .constdata__ZTV13CArrayPtrFlatI15CApaAppViewDataE 0x00015ef4   Section       20  APGAIRV2.o(.constdata__ZTV13CArrayPtrFlatI15CApaAppViewDataE)
    .constdata__ZTV13CArrayPtrFlatI16CApaMaskedBitmapE 0x00015f08   Section       20  APGICNFL.o(.constdata__ZTV13CArrayPtrFlatI16CApaMaskedBitmapE)
    .constdata__ZTV13RApaLsSession           0x00015f1c   Section       16  APGCLI.o(.constdata__ZTV13RApaLsSession)
    .constdata__ZTV14CApaAIFCaption          0x00015f2c   Section       20  APGICNFL.o(.constdata__ZTV14CApaAIFCaption)
    .constdata__ZTV14CApaIconLoader          0x00015f40   Section       20  APGAIRV2.o(.constdata__ZTV14CApaIconLoader)
    .constdata__ZTV15CApaAIFViewData         0x00015f54   Section       20  APGICNFL.o(.constdata__ZTV15CApaAIFViewData)
    .constdata__ZTV15CApaAppInfoFile         0x00015f68   Section       20  APGICNFL.o(.constdata__ZTV15CApaAppInfoFile)
    .constdata__ZTV15CApaAppViewData         0x00015f7c   Section       20  APGAPLSTV2.o(.constdata__ZTV15CApaAppViewData)
    .constdata__ZTV15CApaIconPicture         0x00015f90   Section       72  APGPRIV.o(.constdata__ZTV15CApaIconPicture)
    .constdata__ZTV16CApaAppIconArray        0x00015fd8   Section       20  APGAIRV2.o(.constdata__ZTV16CApaAppIconArray)
    .constdata__ZTV16CApaMaskedBitmap        0x00015fec   Section       20  APGICNFL.o(.constdata__ZTV16CApaMaskedBitmap)
    .constdata__ZTV16TDesCArrayFiller        0x00016000   Section       12  APGCLI.o(.constdata__ZTV16TDesCArrayFiller)
    .constdata__ZTV16TSizeArrayFiller        0x0001600c   Section       12  APGCLI.o(.constdata__ZTV16TSizeArrayFiller)
    .constdata__ZTV17CApaAppInfoReader       0x00016018   Section       28  APGAIR.o(.constdata__ZTV17CApaAppInfoReader)
    .constdata__ZTV17CApaSystemControl       0x00016034   Section       20  APGCTL.o(.constdata__ZTV17CApaSystemControl)
    .constdata__ZTV18TApaPictureFactory      0x00016048   Section       12  APGDOOR.o(.constdata__ZTV18TApaPictureFactory)
    .constdata__ZTV19CApaAppInfoReaderV2     0x00016054   Section       28  APGAIRV2.o(.constdata__ZTV19CApaAppInfoReaderV2)
    .constdata__ZTV19CApaAppListNotifier     0x00016070   Section       32  apgnotif.o(.constdata__ZTV19CApaAppListNotifier)
    .constdata__ZTV19CApaWindowGroupName     0x00016090   Section       20  APGWGNAM.o(.constdata__ZTV19CApaWindowGroupName)
    .constdata__ZTV20TMemoryUnicodeSource    0x000160a4   Section       12  APGICNFL.o(.constdata__ZTV20TMemoryUnicodeSource)
    .constdata__ZTV20TViewDataArrayFiller    0x000160b0   Section       12  APGCLI.o(.constdata__ZTV20TViewDataArrayFiller)
    .constdata__ZTV21CApaAppInfoFileReader   0x000160bc   Section       20  APGICNFL.o(.constdata__ZTV21CApaAppInfoFileReader)
    .constdata__ZTV21CApaAppInfoFileWriter   0x000160d0   Section       20  APGICNFL.o(.constdata__ZTV21CApaAppInfoFileWriter)
    .constdata__ZTV21CApaSystemControlList   0x000160e4   Section       20  APGCTL.o(.constdata__ZTV21CApaSystemControlList)
    .constdata__ZTV21CAsyncFileRecognition   0x000160f8   Section       32  APGCLI.o(.constdata__ZTV21CAsyncFileRecognition)
    .constdata__ZTV22CApaLsSessionExtension  0x00016118   Section       20  APGCLI.o(.constdata__ZTV22CApaLsSessionExtension)
    .constdata__ZTV23MApaAppListServObserver 0x0001612c   Section       20  apgnotif.o(.constdata__ZTV23MApaAppListServObserver)
    .constdata__ZTV24CApaAppCaptionFileReader 0x00016140   Section       20  APGICNFL.o(.constdata__ZTV24CApaAppCaptionFileReader)
    .constdata__ZTV26CApaResourceFileWriterBase 0x00016154   Section       28  APGICNFL.o(.constdata__ZTV26CApaResourceFileWriterBase)
    .constdata__ZTV27CDataRecognitionResultArray 0x00016170   Section       20  APGCLI.o(.constdata__ZTV27CDataRecognitionResultArray)
    .constdata__ZTV30CApaAppServiceInfoArrayWrapper 0x00016184   Section       32  APGAPLSTV2.o(.constdata__ZTV30CApaAppServiceInfoArrayWrapper)
    .constdata__ZTV32CDataRecognitionResultArrayEntry 0x000161a4   Section       20  APGCLI.o(.constdata__ZTV32CDataRecognitionResultArrayEntry)
    .constdata__ZTV33CApaLocalisableResourceFileWriter 0x000161b8   Section       28  APGICNFL.o(.constdata__ZTV33CApaLocalisableResourceFileWriter)
    .constdata__ZTV34CApaRegistrationResourceFileWriter 0x000161d4   Section       28  APGICNFL.o(.constdata__ZTV34CApaRegistrationResourceFileWriter)
    .constdata__ZTV7HBufBuf                  0x000161f0   Section       52  APGDOOR.o(.constdata__ZTV7HBufBuf)
    .constdata__ZTV8CApaDoor                 0x00016224   Section       84  APGDOOR.o(.constdata__ZTV8CApaDoor)
    .constdata__ZTVN11CApaAppList17CApaAppListStorerE 0x00016278   Section       32  APGAPLSTV2.o(.constdata__ZTVN11CApaAppList17CApaAppListStorerE)
    .constdata__ZTVN11CApaAppList18CApaIdleIconLoaderE 0x00016298   Section       32  APGAPLSTV2.o(.constdata__ZTVN11CApaAppList18CApaIdleIconLoaderE)
    .constdata__ZTVN11CApaAppList21CApaLangChangeMonitorE 0x000162b8   Section       32  APGAPLSTV2.o(.constdata__ZTVN11CApaAppList21CApaLangChangeMonitorE)
    .constdata__ZTVN26CApaResourceFileWriterBase11RBufferSinkE 0x000162d8   Section       12  APGICNFL.o(.constdata__ZTVN26CApaResourceFileWriterBase11RBufferSinkE)
    .constdata__ZTVN26CApaResourceFileWriterBase9MDataSinkE 0x000162e4   Section       12  APGICNFL.o(.constdata__ZTVN26CApaResourceFileWriterBase9MDataSinkE)
    .ARM.exidx                               0x000162f0   Section        8  ucppinit_aeabi.o(.ARM.exidx)

    Global Symbols

    Symbol Name                              Value     Ov Type        Size  Object(Section)

    BuildAttributes$$THUMB_ISAv2$ARM_ISAv5$M$PE$A:L22$X:L11$S22$IEEE1$IW$USESV6$~STKCKD$USESV7$~SHL$OSPACE$ROPI$IEEEJ$EBA8$UX$FPIC$INDIRECT$REQ8$PRES8$EABIv2 0x00000000   Number         0  anon$$obj.o ABSOLUTE
    apfile{000a0000}[10003a3b].dll           0x00000000   Data           0  anon$$obj.o ABSOLUTE
    apgrfx{000a0000}[10003a3c].dll           0x00000000   Data           0  anon$$obj.o ABSOLUTE
    apmime{000a0000}[10003a1a].dll           0x00000000   Data           0  anon$$obj.o ABSOLUTE
    apparc{000a0000}[10003a3d].dll           0x00000000   Data           0  anon$$obj.o ABSOLUTE
    apserv{000a0000}[10003a3e].dll           0x00000000   Data           0  anon$$obj.o ABSOLUTE
    bafl{000a0000}[10003a0f].dll             0x00000000   Data           0  anon$$obj.o ABSOLUTE
    bitgdi{000a0000}[10003b18].dll           0x00000000   Data           0  anon$$obj.o ABSOLUTE
    drtaeabi{000a0000}.dll                   0x00000000   Data           0  anon$$obj.o ABSOLUTE
    drtrvct2_2{000a0000}.dll                 0x00000000   Data           0  anon$$obj.o ABSOLUTE
    efsrv{000a0000}[100039e4].dll            0x00000000   Data           0  anon$$obj.o ABSOLUTE
    estor{000a0000}[10003b0d].dll            0x00000000   Data           0  anon$$obj.o ABSOLUTE
    euser{000a0000}[100039e5].dll            0x00000000   Data           0  anon$$obj.o ABSOLUTE
    fbscli{000a0000}[10003a15].dll           0x00000000   Data           0  anon$$obj.o ABSOLUTE
    gdi{000a0000}[10003b15].dll              0x00000000   Data           0  anon$$obj.o ABSOLUTE
    scppnwdl{000a0000}.dll                   0x00000000   Data           0  anon$$obj.o ABSOLUTE
    ws32{000a0000}[10003b21].dll             0x00000000   Data           0  anon$$obj.o ABSOLUTE
    SHT$$INIT_ARRAY$$Base                     - Undefined Weak Reference
    SHT$$INIT_ARRAY$$Limit                    - Undefined Weak Reference
    ExternalizeL(TSize, RWriteStream&)        - Undefined Reference
    _Z12ExternalizeL5TSizeR12RWriteStream@estor{000a0000}[10003b0d].dll  - Undefined Reference
    ExternalizeL(const TDesC8&, RWriteStream&)  - Undefined Reference
    _Z12ExternalizeLRK6TDesC8R12RWriteStream@estor{000a0000}[10003b0d].dll  - Undefined Reference
    ExternalizeL(const TDesC16&, RWriteStream&)  - Undefined Reference
    _Z12ExternalizeLRK7TDesC16R12RWriteStream@estor{000a0000}[10003b0d].dll  - Undefined Reference
    InternalizeL(TDes8&, RReadStream&)        - Undefined Reference
    _Z12InternalizeLR5TDes8R11RReadStream@estor{000a0000}[10003b0d].dll  - Undefined Reference
    InternalizeL(TSize&, RReadStream&)        - Undefined Reference
    _Z12InternalizeLR5TSizeR11RReadStream@estor{000a0000}[10003b0d].dll  - Undefined Reference
    InternalizeL(TDes16&, RReadStream&)       - Undefined Reference
    _Z12InternalizeLR6TDes16R11RReadStream@estor{000a0000}[10003b0d].dll  - Undefined Reference
    DoExternalizeAllL(const CArrayFixBase&, RWriteStream&, TExternalizer<void>)  - Undefined Reference
    _Z17DoExternalizeAllLRK13CArrayFixBaseR12RWriteStream13TExternalizerIvE@estor{000a0000}[10003b0d].dll  - Undefined Reference
    DoInternalizeAllL(CArrayFixBase&, RReadStream&, TInternalizer<void>)  - Undefined Reference
    _Z17DoInternalizeAllLR13CArrayFixBaseR11RReadStream13TInternalizerIvE@estor{000a0000}[10003b0d].dll  - Undefined Reference
    ApaServThreadStart(void*)                 - Undefined Reference
    _Z18ApaServThreadStartPv@apserv{000a0000}[10003a3e].dll  - Undefined Reference
    ArrayExternalizeCountL(int, RWriteStream&)  - Undefined Reference
    _Z22ArrayExternalizeCountLiR12RWriteStream@estor{000a0000}[10003b0d].dll  - Undefined Reference
    ArrayInternalizeCountL(RReadStream&)      - Undefined Reference
    _Z22ArrayInternalizeCountLR11RReadStream@estor{000a0000}[10003b0d].dll  - Undefined Reference
    NameApaServServerThread()                 - Undefined Reference
    _Z23NameApaServServerThreadv@apserv{000a0000}[10003a3e].dll  - Undefined Reference
    CFbsBitmap::InternalizeL(RReadStream&)    - Undefined Reference
    _ZN10CFbsBitmap12InternalizeLER11RReadStream@fbscli{000a0000}[10003a15].dll  - Undefined Reference
    CFbsBitmap::SetRomBitmapL(CBitwiseBitmap*, int&)  - Undefined Reference
    _ZN10CFbsBitmap13SetRomBitmapLEP14CBitwiseBitmapRi@fbscli{000a0000}[10003a15].dll  - Undefined Reference
    CFbsBitmap::SetSizeInTwips(const TSize&)  - Undefined Reference
    _ZN10CFbsBitmap14SetSizeInTwipsERK5TSize@fbscli{000a0000}[10003a15].dll  - Undefined Reference
    CFbsBitmap::Load(RFile&, long, int)       - Undefined Reference
    _ZN10CFbsBitmap4LoadER5RFileli@fbscli{000a0000}[10003a15].dll  - Undefined Reference
    CFbsBitmap::Load(const TDesC16&, long, int)  - Undefined Reference
    _ZN10CFbsBitmap4LoadERK7TDesC16li@fbscli{000a0000}[10003a15].dll  - Undefined Reference
    CFbsBitmap::Load(const TDesC16&, long, int, unsigned)  - Undefined Reference
    _ZN10CFbsBitmap4LoadERK7TDesC16lij@fbscli{000a0000}[10003a15].dll  - Undefined Reference
    CFbsBitmap::Create(const TSize&, TDisplayMode)  - Undefined Reference
    _ZN10CFbsBitmap6CreateERK5TSize12TDisplayMode@fbscli{000a0000}[10003a15].dll  - Undefined Reference
    CFbsBitmap::Duplicate(int)                - Undefined Reference
    _ZN10CFbsBitmap9DuplicateEi@fbscli{000a0000}[10003a15].dll  - Undefined Reference
    CFbsBitmap::CFbsBitmap()                  - Undefined Reference
    _ZN10CFbsBitmapC1Ev@fbscli{000a0000}[10003a15].dll  - Undefined Reference
    CFbsBitmap::~CFbsBitmap()                 - Undefined Reference
    _ZN10CFbsBitmapD1Ev@fbscli{000a0000}[10003a15].dll  - Undefined Reference
    CFbsDevice::CreateContext(CFbsBitGc*&)    - Undefined Reference
    _ZN10CFbsDevice13CreateContextERP9CFbsBitGc@bitgdi{000a0000}[10003b18].dll  - Undefined Reference
    CFileStore::OpenL(RFs&, const TDesC16&, unsigned)  - Undefined Reference
    _ZN10CFileStore5OpenLER3RFsRK7TDesC16j@estor{000a0000}[10003b0d].dll  - Undefined Reference
    CFileStore::FromLC(RFile&)                - Undefined Reference
    _ZN10CFileStore6FromLCER5RFile@estor{000a0000}[10003b0d].dll  - Undefined Reference
    CFileStore::ReplaceL(RFs&, const TDesC16&, unsigned, CFileStore*(*)(RFile&))  - Undefined Reference
    _ZN10CFileStore8ReplaceLER3RFsRK7TDesC16jPFPS_R5RFileE@estor{000a0000}[10003b0d].dll  - Undefined Reference
    CFileStore::SetTypeL(const TUidType&)     - Undefined Reference
    _ZN10CFileStore8SetTypeLERK8TUidType@estor{000a0000}[10003b0d].dll  - Undefined Reference
    MStreamBuf::DoReadL(TDes8&, int, TRequestStatus&)  - Undefined Reference
    _ZN10MStreamBuf7DoReadLER5TDes8iR14TRequestStatus@estor{000a0000}[10003b0d].dll  - Undefined Reference
    MStreamBuf::DoWriteL(const TDesC8&, int, TRequestStatus&)  - Undefined Reference
    _ZN10MStreamBuf8DoWriteLERK6TDesC8iR14TRequestStatus@estor{000a0000}[10003b0d].dll  - Undefined Reference
    RArrayBase::Close()                       - Undefined Reference
    _ZN10RArrayBase5CloseEv@euser{000a0000}[100039e5].dll  - Undefined Reference
    RArrayBase::Reset()                       - Undefined Reference
    _ZN10RArrayBase5ResetEv@euser{000a0000}[100039e5].dll  - Undefined Reference
    RArrayBase::Append(const void*)           - Undefined Reference
    _ZN10RArrayBase6AppendEPKv@euser{000a0000}[100039e5].dll  - Undefined Reference
    RArrayBase::RArrayBase(int)               - Undefined Reference
    _ZN10RArrayBaseC1Ei@euser{000a0000}[100039e5].dll  - Undefined Reference
    RWsSession::WindowGroupList(int, CArrayFixFlat<int>*)  - Undefined Reference
    _ZN10RWsSession15WindowGroupListEiP13CArrayFixFlatIiE@ws32{000a0000}[10003b21].dll  - Undefined Reference
    RWsSession::SendEventToWindowGroup(int, const TWsEvent&)  - Undefined Reference
    _ZN10RWsSession22SendEventToWindowGroupEiRK8TWsEvent@ws32{000a0000}[10003b21].dll  - Undefined Reference
    RWsSession::SendMessageToWindowGroup(int, TUid, const TDesC8&)  - Undefined Reference
    _ZN10RWsSession24SendMessageToWindowGroupEi4TUidRK6TDesC8@ws32{000a0000}[10003b21].dll  - Undefined Reference
    RWsSession::FindWindowGroupIdentifier(int, const TDesC16&, int)  - Undefined Reference
    _ZN10RWsSession25FindWindowGroupIdentifierEiRK7TDesC16i@ws32{000a0000}[10003b21].dll  - Undefined Reference
    RWsSession::GetWindowGroupClientThreadId(int, TThreadId&)  - Undefined Reference
    _ZN10RWsSession28GetWindowGroupClientThreadIdEiR9TThreadId@ws32{000a0000}[10003b21].dll  - Undefined Reference
    RWsSession::SetWindowGroupOrdinalPosition(int, int)  - Undefined Reference
    _ZN10RWsSession29SetWindowGroupOrdinalPositionEii@ws32{000a0000}[10003b21].dll  - Undefined Reference
    RWsSession::GetWindowGroupNameFromIdentifier(int, TDes16&)  - Undefined Reference
    _ZN10RWsSession32GetWindowGroupNameFromIdentifierEiR6TDes16@ws32{000a0000}[10003b21].dll  - Undefined Reference
    TBufBase16::TBufBase16(const TDesC16&, int)  - Undefined Reference
    _ZN10TBufBase16C1ERK7TDesC16i@euser{000a0000}[100039e5].dll  - Undefined Reference
    TBufBase16::TBufBase16(int)               - Undefined Reference
    _ZN10TBufBase16C1Ei@euser{000a0000}[100039e5].dll  - Undefined Reference
    TDriveUnit::TDriveUnit(const TDesC16&)    - Undefined Reference
    _ZN10TDriveUnitC1ERK7TDesC16@efsrv{000a0000}[100039e4].dll  - Undefined Reference
    TParseBase::AddDir(const TDesC16&)        - Undefined Reference
    _ZN10TParseBase6AddDirERK7TDesC16@efsrv{000a0000}[100039e4].dll  - Undefined Reference
    TParsePtrC::TParsePtrC(const TDesC16&)    - Undefined Reference
    _ZN10TParsePtrCC1ERK7TDesC16@efsrv{000a0000}[100039e4].dll  - Undefined Reference
    TStreamBuf::DoReadL(void*, int)           - Undefined Reference
    _ZN10TStreamBuf7DoReadLEPvi@estor{000a0000}[10003b0d].dll  - Undefined Reference
    TStreamBuf::DoReadL(MStreamInput&, TStreamTransfer)  - Undefined Reference
    _ZN10TStreamBuf7DoReadLER12MStreamInput15TStreamTransfer@estor{000a0000}[10003b0d].dll  - Undefined Reference
    TStreamBuf::DoWriteL(MStreamOutput&, TStreamTransfer)  - Undefined Reference
    _ZN10TStreamBuf8DoWriteLER13MStreamOutput15TStreamTransfer@estor{000a0000}[10003b0d].dll  - Undefined Reference
    CApaProcess::AddNewDocumentL(TApaApplicationFactory)  - Undefined Reference
    _ZN11CApaProcess15AddNewDocumentLE22TApaApplicationFactory@apparc{000a0000}[10003a3d].dll  - Undefined Reference
    CApaProcess::DestroyDocument(CApaDocument*)  - Undefined Reference
    _ZN11CApaProcess15DestroyDocumentEP12CApaDocument@apparc{000a0000}[10003a3d].dll  - Undefined Reference
    CApaProcess::WriteRootStreamL(CPersistentStore&, CStreamDictionary&, const CApaApplication&)  - Undefined Reference
    _ZN11CApaProcess16WriteRootStreamLER16CPersistentStoreR17CStreamDictionaryRK15CApaApplication@apparc{000a0000}[10003a3d].dll  - Undefined Reference
    CApaProcess::ReadAppIdentifierL(const CStreamStore&, const CStreamDictionary&)  - Undefined Reference
    _ZN11CApaProcess18ReadAppIdentifierLERK12CStreamStoreRK17CStreamDictionary@apparc{000a0000}[10003a3d].dll  - Undefined Reference
    RHandleBase::Close()                      - Undefined Reference
    _ZN11RHandleBase5CloseEv@euser{000a0000}[100039e5].dll  - Undefined Reference
    RReadStream::ReadInt16L()                 - Undefined Reference
    _ZN11RReadStream10ReadInt16LEv@estor{000a0000}[10003b0d].dll  - Undefined Reference
    RReadStream::ReadInt32L()                 - Undefined Reference
    _ZN11RReadStream10ReadInt32LEv@estor{000a0000}[10003b0d].dll  - Undefined Reference
    RReadStream::ReadUint8L()                 - Undefined Reference
    _ZN11RReadStream10ReadUint8LEv@estor{000a0000}[10003b0d].dll  - Undefined Reference
    RReadStream::ReadUint32L()                - Undefined Reference
    _ZN11RReadStream11ReadUint32LEv@estor{000a0000}[10003b0d].dll  - Undefined Reference
    RReadStream::ReadL(TDes8&, int)           - Undefined Reference
    _ZN11RReadStream5ReadLER5TDes8i@estor{000a0000}[10003b0d].dll  - Undefined Reference
    RReadStream::ReadL(TDes16&, int)          - Undefined Reference
    _ZN11RReadStream5ReadLER6TDes16i@estor{000a0000}[10003b0d].dll  - Undefined Reference
    RReadStream::Release()                    - Undefined Reference
    _ZN11RReadStream7ReleaseEv@estor{000a0000}[10003b0d].dll  - Undefined Reference
    TApaAppInfo::TApaAppInfo()                - Undefined Reference
    _ZN11TApaAppInfoC1Ev@apparc{000a0000}[10003a3d].dll  - Undefined Reference
    TCheckedUid::TCheckedUid(const TUidType&)  - Undefined Reference
    _ZN11TCheckedUidC1ERK8TUidType@euser{000a0000}[100039e5].dll  - Undefined Reference
    CApaDoorBase::NativePixelSize(TSize&)     - Undefined Reference
    _ZN12CApaDoorBase15NativePixelSizeER5TSize@apparc{000a0000}[10003a3d].dll  - Undefined Reference
    CApaDoorBase::CApaDoorBase_Reserved1()    - Undefined Reference
    _ZN12CApaDoorBase22CApaDoorBase_Reserved1Ev@apparc{000a0000}[10003a3d].dll  - Undefined Reference
    CApaDoorBase::CApaDoorBase_Reserved2()    - Undefined Reference
    _ZN12CApaDoorBase22CApaDoorBase_Reserved2Ev@apparc{000a0000}[10003a3d].dll  - Undefined Reference
    CApaDoorBase::InternalizeBaseStreamL(const CStreamStore&, const CStreamDictionary&)  - Undefined Reference
    _ZN12CApaDoorBase22InternalizeBaseStreamLERK12CStreamStoreRK17CStreamDictionary@apparc{000a0000}[10003a3d].dll  - Undefined Reference
    CApaDoorBase::CApaDoorBase__sub_object()  - Undefined Reference
    _ZN12CApaDoorBaseC2Ev@apparc{000a0000}[10003a3d].dll  - Undefined Reference
    CDesC16Array::Reset()                     - Undefined Reference
    _ZN12CDesC16Array5ResetEv@bafl{000a0000}[10003a0f].dll  - Undefined Reference
    CDesC16Array::AppendL(const TDesC16&)     - Undefined Reference
    _ZN12CDesC16Array7AppendLERK7TDesC16@bafl{000a0000}[10003a0f].dll  - Undefined Reference
    CleanupStack::PopAndDestroy(int)          - Undefined Reference
    _ZN12CleanupStack13PopAndDestroyEi@euser{000a0000}[100039e5].dll  - Undefined Reference
    CleanupStack::PopAndDestroy()             - Undefined Reference
    _ZN12CleanupStack13PopAndDestroyEv@euser{000a0000}[100039e5].dll  - Undefined Reference
    CleanupStack::Pop(int)                    - Undefined Reference
    _ZN12CleanupStack3PopEi@euser{000a0000}[100039e5].dll  - Undefined Reference
    CleanupStack::Pop()                       - Undefined Reference
    _ZN12CleanupStack3PopEv@euser{000a0000}[100039e5].dll  - Undefined Reference
    CleanupStack::PushL(TCleanupItem)         - Undefined Reference
    _ZN12CleanupStack5PushLE12TCleanupItem@euser{000a0000}[100039e5].dll  - Undefined Reference
    CleanupStack::PushL(CBase*)               - Undefined Reference
    _ZN12CleanupStack5PushLEP5CBase@euser{000a0000}[100039e5].dll  - Undefined Reference
    CleanupStack::PushL(void*)                - Undefined Reference
    _ZN12CleanupStack5PushLEPv@euser{000a0000}[100039e5].dll  - Undefined Reference
    RSessionBase::CreateSession(const TDesC16&, const TVersion&, int)  - Undefined Reference
    _ZN12RSessionBase13CreateSessionERK7TDesC16RK8TVersioni@euser{000a0000}[100039e5].dll  - Undefined Reference
    RSessionBase::DoShare(int)                - Undefined Reference
    _ZN12RSessionBase7DoShareEi@euser{000a0000}[100039e5].dll  - Undefined Reference
    RWindowGroup::SetName(const TDesC16&)     - Undefined Reference
    _ZN12RWindowGroup7SetNameERK7TDesC16@ws32{000a0000}[10003b21].dll  - Undefined Reference
    RWriteStream::WriteInt16L(int)            - Undefined Reference
    _ZN12RWriteStream11WriteInt16LEi@estor{000a0000}[10003b0d].dll  - Undefined Reference
    RWriteStream::WriteInt32L(long)           - Undefined Reference
    _ZN12RWriteStream11WriteInt32LEl@estor{000a0000}[10003b0d].dll  - Undefined Reference
    RWriteStream::WriteUint32L(unsigned long)  - Undefined Reference
    _ZN12RWriteStream12WriteUint32LEm@estor{000a0000}[10003b0d].dll  - Undefined Reference
    RWriteStream::Close()                     - Undefined Reference
    _ZN12RWriteStream5CloseEv@estor{000a0000}[10003b0d].dll  - Undefined Reference
    RWriteStream::PushL()                     - Undefined Reference
    _ZN12RWriteStream5PushLEv@estor{000a0000}[10003b0d].dll  - Undefined Reference
    RWriteStream::WriteL(RReadStream&, int)   - Undefined Reference
    _ZN12RWriteStream6WriteLER11RReadStreami@estor{000a0000}[10003b0d].dll  - Undefined Reference
    RWriteStream::WriteL(const TDesC16&)      - Undefined Reference
    _ZN12RWriteStream6WriteLERK7TDesC16@estor{000a0000}[10003b0d].dll  - Undefined Reference
    RWriteStream::CommitL()                   - Undefined Reference
    _ZN12RWriteStream7CommitLEv@estor{000a0000}[10003b0d].dll  - Undefined Reference
    RWriteStream::Release()                   - Undefined Reference
    _ZN12RWriteStream7ReleaseEv@estor{000a0000}[10003b0d].dll  - Undefined Reference
    TApaAppEntry::TApaAppEntry(const TUidType&, const TBuf<(int)256>&)  - Undefined Reference
    _ZN12TApaAppEntryC1ERK8TUidTypeRK4TBufILi256EE@apparc{000a0000}[10003a3d].dll  - Undefined Reference
    TApaAppEntry::TApaAppEntry()              - Undefined Reference
    _ZN12TApaAppEntryC1Ev@apparc{000a0000}[10003a3d].dll  - Undefined Reference
    TCardinality::InternalizeL(RReadStream&)  - Undefined Reference
    _ZN12TCardinality12InternalizeLER11RReadStream@estor{000a0000}[10003b0d].dll  - Undefined Reference
    CArrayFixBase::AtR(const CBase*, int)     - Undefined Reference
    _ZN13CArrayFixBase3AtREPK5CBasei@euser{000a0000}[100039e5].dll  - Undefined Reference
    CArrayFixBase::Reset()                    - Undefined Reference
    _ZN13CArrayFixBase5ResetEv@euser{000a0000}[100039e5].dll  - Undefined Reference
    CArrayFixBase::CountR(const CBase*)       - Undefined Reference
    _ZN13CArrayFixBase6CountREPK5CBase@euser{000a0000}[100039e5].dll  - Undefined Reference
    CArrayFixBase::Delete(int)                - Undefined Reference
    _ZN13CArrayFixBase6DeleteEi@euser{000a0000}[100039e5].dll  - Undefined Reference
    CArrayFixBase::InsertL(int, const void*)  - Undefined Reference
    _ZN13CArrayFixBase7InsertLEiPKv@euser{000a0000}[100039e5].dll  - Undefined Reference
    CArrayFixBase::ResizeL(int, const void*)  - Undefined Reference
    _ZN13CArrayFixBase7ResizeLEiPKv@euser{000a0000}[100039e5].dll  - Undefined Reference
    CArrayFixBase::CArrayFixBase(CBufBase*(*)(int), int, int)  - Undefined Reference
    _ZN13CArrayFixBaseC1EPFP8CBufBaseiEii@euser{000a0000}[100039e5].dll  - Undefined Reference
    CArrayFixBase::~CArrayFixBase()           - Undefined Reference
    _ZN13CArrayFixBaseD1Ev@euser{000a0000}[100039e5].dll  - Undefined Reference
    CArrayFixFlat<TUid>::CArrayFixFlat(int)   - Undefined Reference
    _ZN13CArrayFixFlatI4TUidEC1Ei@euser{000a0000}[100039e5].dll  - Undefined Reference
    CArrayFixFlat<int>::CArrayFixFlat(int)    - Undefined Reference
    _ZN13CArrayFixFlatIiEC1Ei@euser{000a0000}[100039e5].dll  - Undefined Reference
    CResourceFile::ConfirmSignatureL()        - Undefined Reference
    _ZN13CResourceFile17ConfirmSignatureLEv@bafl{000a0000}[10003a0f].dll  - Undefined Reference
    CResourceFile::NewL(RFs&, const TDesC16&, unsigned, int)  - Undefined Reference
    _ZN13CResourceFile4NewLER3RFsRK7TDesC16ji@bafl{000a0000}[10003a0f].dll  - Undefined Reference
    RResourceFile::Close()                    - Undefined Reference
    _ZN13RResourceFile5CloseEv@bafl{000a0000}[10003a0f].dll  - Undefined Reference
    RResourceFile::OpenL(RFs&, const TDesC16&, unsigned, int)  - Undefined Reference
    _ZN13RResourceFile5OpenLER3RFsRK7TDesC16ji@bafl{000a0000}[10003a0f].dll  - Undefined Reference
    RResourceFile::RResourceFile()            - Undefined Reference
    _ZN13RResourceFileC1Ev@bafl{000a0000}[10003a0f].dll  - Undefined Reference
    TSwizzleCBase::InternalizeL(RReadStream&)  - Undefined Reference
    _ZN13TSwizzleCBase12InternalizeLER11RReadStream@estor{000a0000}[10003b0d].dll  - Undefined Reference
    TSwizzleCBase::IsIdRep(const void*)       - Undefined Reference
    _ZN13TSwizzleCBase7IsIdRepEPKv@estor{000a0000}[10003b0d].dll  - Undefined Reference
    TSwizzleCBase::IsPtrRep(const void*)      - Undefined Reference
    _ZN13TSwizzleCBase8IsPtrRepEPKv@estor{000a0000}[10003b0d].dll  - Undefined Reference
    CEmbeddedStore::FromL(RReadStream&)       - Undefined Reference
    _ZN14CEmbeddedStore5FromLER11RReadStream@estor{000a0000}[10003b0d].dll  - Undefined Reference
    CEmbeddedStore::NewLC(RWriteStream&)      - Undefined Reference
    _ZN14CEmbeddedStore5NewLCER12RWriteStream@estor{000a0000}[10003b0d].dll  - Undefined Reference
    CEmbeddedStore::Detach()                  - Undefined Reference
    _ZN14CEmbeddedStore6DetachEv@estor{000a0000}[10003b0d].dll  - Undefined Reference
    RBufReadStream::Open(const CBufBase&, int)  - Undefined Reference
    _ZN14RBufReadStream4OpenERK8CBufBasei@estor{000a0000}[10003b0d].dll  - Undefined Reference
    RBufReadStream::RBufReadStream(const CBufBase&, int)  - Undefined Reference
    _ZN14RBufReadStreamC1ERK8CBufBasei@estor{000a0000}[10003b0d].dll  - Undefined Reference
    CApaCommandLine::SetCommandL(TApaCommand)  - Undefined Reference
    _ZN15CApaCommandLine11SetCommandLE11TApaCommand@apparc{000a0000}[10003a3d].dll  - Undefined Reference
    CApaCommandLine::SetOpaqueDataL(const TDesC8&)  - Undefined Reference
    _ZN15CApaCommandLine14SetOpaqueDataLERK6TDesC8@apparc{000a0000}[10003a3d].dll  - Undefined Reference
    CApaCommandLine::SetDocumentNameL(const TDesC16&)  - Undefined Reference
    _ZN15CApaCommandLine16SetDocumentNameLERK7TDesC16@apparc{000a0000}[10003a3d].dll  - Undefined Reference
    CApaCommandLine::SetFileByHandleL(const RFile&)  - Undefined Reference
    _ZN15CApaCommandLine16SetFileByHandleLERK5RFile@apparc{000a0000}[10003a3d].dll  - Undefined Reference
    CApaCommandLine::SetExecutableNameL(const TDesC16&)  - Undefined Reference
    _ZN15CApaCommandLine18SetExecutableNameLERK7TDesC16@apparc{000a0000}[10003a3d].dll  - Undefined Reference
    CApaCommandLine::NewLC()                  - Undefined Reference
    _ZN15CApaCommandLine5NewLCEv@apparc{000a0000}[10003a3d].dll  - Undefined Reference
    CDesC16ArraySeg::CDesC16ArraySeg(int)     - Undefined Reference
    _ZN15CDesC16ArraySegC1Ei@bafl{000a0000}[10003a0f].dll  - Undefined Reference
    RBufWriteStream::Open(CBufBase&, int)     - Undefined Reference
    _ZN15RBufWriteStream4OpenER8CBufBasei@estor{000a0000}[10003b0d].dll  - Undefined Reference
    RBufWriteStream::RBufWriteStream(CBufBase&, int)  - Undefined Reference
    _ZN15RBufWriteStreamC1ER8CBufBasei@estor{000a0000}[10003b0d].dll  - Undefined Reference
    RChangeNotifier::Create()                 - Undefined Reference
    _ZN15RChangeNotifier6CreateEv@euser{000a0000}[100039e5].dll  - Undefined Reference
    RFileReadStream::Open(RFs&, const TDesC16&, unsigned)  - Undefined Reference
    _ZN15RFileReadStream4OpenER3RFsRK7TDesC16j@estor{000a0000}[10003b0d].dll  - Undefined Reference
    RResourceReader::ReadHBufCL()             - Undefined Reference
    _ZN15RResourceReader10ReadHBufCLEv@bafl{000a0000}[10003a0f].dll  - Undefined Reference
    RResourceReader::ReadInt16L()             - Undefined Reference
    _ZN15RResourceReader10ReadInt16LEv@bafl{000a0000}[10003a0f].dll  - Undefined Reference
    RResourceReader::ReadInt32L()             - Undefined Reference
    _ZN15RResourceReader10ReadInt32LEv@bafl{000a0000}[10003a0f].dll  - Undefined Reference
    RResourceReader::ReadTPtrCL()             - Undefined Reference
    _ZN15RResourceReader10ReadTPtrCLEv@bafl{000a0000}[10003a0f].dll  - Undefined Reference
    RResourceReader::ReadUint8L()             - Undefined Reference
    _ZN15RResourceReader10ReadUint8LEv@bafl{000a0000}[10003a0f].dll  - Undefined Reference
    RResourceReader::ReadTPtrC8L()            - Undefined Reference
    _ZN15RResourceReader11ReadTPtrC8LEv@bafl{000a0000}[10003a0f].dll  - Undefined Reference
    RResourceReader::ReadUint32L()            - Undefined Reference
    _ZN15RResourceReader11ReadUint32LEv@bafl{000a0000}[10003a0f].dll  - Undefined Reference
    RResourceReader::Close()                  - Undefined Reference
    _ZN15RResourceReader5CloseEv@bafl{000a0000}[10003a0f].dll  - Undefined Reference
    RResourceReader::OpenL(const CResourceFile*, int)  - Undefined Reference
    _ZN15RResourceReader5OpenLEPK13CResourceFilei@bafl{000a0000}[10003a0f].dll  - Undefined Reference
    RResourceReader::OpenLC(const CResourceFile*, int)  - Undefined Reference
    _ZN15RResourceReader6OpenLCEPK13CResourceFilei@bafl{000a0000}[10003a0f].dll  - Undefined Reference
    RResourceReader::ReadInt8L()              - Undefined Reference
    _ZN15RResourceReader9ReadInt8LEv@bafl{000a0000}[10003a0f].dll  - Undefined Reference
    RResourceReader::RResourceReader()        - Undefined Reference
    _ZN15RResourceReaderC1Ev@bafl{000a0000}[10003a0f].dll  - Undefined Reference
    RResourceReader::~RResourceReader()       - Undefined Reference
    _ZN15RResourceReaderD1Ev@bafl{000a0000}[10003a0f].dll  - Undefined Reference
    TApaAppViewInfo::InternalizeL(RReadStream&)  - Undefined Reference
    _ZN15TApaAppViewInfo12InternalizeLER11RReadStream@apparc{000a0000}[10003a3d].dll  - Undefined Reference
    TApaAppViewInfo::TApaAppViewInfo()        - Undefined Reference
    _ZN15TApaAppViewInfoC1Ev@apparc{000a0000}[10003a3d].dll  - Undefined Reference
    TResourceReader::ReadTPtrC8()             - Undefined Reference
    _ZN15TResourceReader10ReadTPtrC8Ev@bafl{000a0000}[10003a0f].dll  - Undefined Reference
    TResourceReader::ReadTPtrC16()            - Undefined Reference
    _ZN15TResourceReader11ReadTPtrC16Ev@bafl{000a0000}[10003a0f].dll  - Undefined Reference
    TResourceReader::ReadInt8()               - Undefined Reference
    _ZN15TResourceReader8ReadInt8Ev@bafl{000a0000}[10003a0f].dll  - Undefined Reference
    TResourceReader::ReadInt16()              - Undefined Reference
    _ZN15TResourceReader9ReadInt16Ev@bafl{000a0000}[10003a0f].dll  - Undefined Reference
    TResourceReader::ReadInt32()              - Undefined Reference
    _ZN15TResourceReader9ReadInt32Ev@bafl{000a0000}[10003a0f].dll  - Undefined Reference
    TResourceReader::SetBuffer(const TDesC8*)  - Undefined Reference
    _ZN15TResourceReader9SetBufferEPK6TDesC8@bafl{000a0000}[10003a0f].dll  - Undefined Reference
    TStreamExchange::Host()                   - Undefined Reference
    _ZN15TStreamExchange4HostEv@estor{000a0000}[10003b0d].dll  - Undefined Reference
    CActiveScheduler::Add(CActive*)           - Undefined Reference
    _ZN16CActiveScheduler3AddEP7CActive@euser{000a0000}[100039e5].dll  - Undefined Reference
    CApaAppRegFinder::FindAllAppsL()          - Undefined Reference
    _ZN16CApaAppRegFinder12FindAllAppsLEv@apfile{000a0000}[10003a3b].dll  - Undefined Reference
    CApaAppRegFinder::FindAllRemovableMediaAppsL()  - Undefined Reference
    _ZN16CApaAppRegFinder26FindAllRemovableMediaAppsLEv@apfile{000a0000}[10003a3b].dll  - Undefined Reference
    CApaAppRegFinder::NextL(TApaAppEntry&, const RPointerArray<HBufC16>&)  - Undefined Reference
    _ZN16CApaAppRegFinder5NextLER12TApaAppEntryRK13RPointerArrayI7HBufC16E@apfile{000a0000}[10003a3b].dll  - Undefined Reference
    CDirectFileStore::DoNewL(RFile&)          - Undefined Reference
    _ZN16CDirectFileStore6DoNewLER5RFile@estor{000a0000}[10003b0d].dll  - Undefined Reference
    CFbsBitmapDevice::NewL(CFbsBitmap*)       - Undefined Reference
    _ZN16CFbsBitmapDevice4NewLEP10CFbsBitmap@bitgdi{000a0000}[10003b18].dll  - Undefined Reference
    RFileWriteStream::Temp(RFs&, const TDesC16&, TBuf<(int)256>&, unsigned)  - Undefined Reference
    _ZN16RFileWriteStream4TempER3RFsRK7TDesC16R4TBufILi256EEj@estor{000a0000}[10003b0d].dll  - Undefined Reference
    RStoreReadStream::OpenL(const CStreamStore&, TStreamId)  - Undefined Reference
    _ZN16RStoreReadStream5OpenLERK12CStreamStore9TStreamId@estor{000a0000}[10003b0d].dll  - Undefined Reference
    RStoreReadStream::OpenLC(const CStreamStore&, TStreamId)  - Undefined Reference
    _ZN16RStoreReadStream6OpenLCERK12CStreamStore9TStreamId@estor{000a0000}[10003b0d].dll  - Undefined Reference
    CStreamDictionary::InternalizeL(RReadStream&)  - Undefined Reference
    _ZN17CStreamDictionary12InternalizeLER11RReadStream@estor{000a0000}[10003b0d].dll  - Undefined Reference
    CStreamDictionary::NewLC()                - Undefined Reference
    _ZN17CStreamDictionary5NewLCEv@estor{000a0000}[10003b0d].dll  - Undefined Reference
    CStreamDictionary::AssignL(TUid, TStreamId)  - Undefined Reference
    _ZN17CStreamDictionary7AssignLE4TUid9TStreamId@estor{000a0000}[10003b0d].dll  - Undefined Reference
    RPointerArrayBase::Close()                - Undefined Reference
    _ZN17RPointerArrayBase5CloseEv@euser{000a0000}[100039e5].dll  - Undefined Reference
    RPointerArrayBase::Reset()                - Undefined Reference
    _ZN17RPointerArrayBase5ResetEv@euser{000a0000}[100039e5].dll  - Undefined Reference
    RPointerArrayBase::Append(const void*)    - Undefined Reference
    _ZN17RPointerArrayBase6AppendEPKv@euser{000a0000}[100039e5].dll  - Undefined Reference
    RPointerArrayBase::InsertIsq(const void*, int(*)(const void*, const void*), int)  - Undefined Reference
    _ZN17RPointerArrayBase9InsertIsqEPKvPFiS1_S1_Ei@euser{000a0000}[100039e5].dll  - Undefined Reference
    RPointerArrayBase::RPointerArrayBase(int)  - Undefined Reference
    _ZN17RPointerArrayBaseC1Ei@euser{000a0000}[100039e5].dll  - Undefined Reference
    RPointerArrayBase::RPointerArrayBase()    - Undefined Reference
    _ZN17RPointerArrayBaseC1Ev@euser{000a0000}[100039e5].dll  - Undefined Reference
    RStoreWriteStream::CreateL(CStreamStore&)  - Undefined Reference
    _ZN17RStoreWriteStream7CreateLER12CStreamStore@estor{000a0000}[10003b0d].dll  - Undefined Reference
    RStoreWriteStream::CreateLC(CStreamStore&)  - Undefined Reference
    _ZN17RStoreWriteStream8CreateLCER12CStreamStore@estor{000a0000}[10003b0d].dll  - Undefined Reference
    TApaAppCapability::InternalizeL(RReadStream&)  - Undefined Reference
    _ZN17TApaAppCapability12InternalizeLER11RReadStream@apparc{000a0000}[10003a3d].dll  - Undefined Reference
    TApaAppCapability::CopyCapability(TDes8&, const TDesC8&)  - Undefined Reference
    _ZN17TApaAppCapability14CopyCapabilityER5TDes8RK6TDesC8@apparc{000a0000}[10003a3d].dll  - Undefined Reference
    TApaDocCleanupItem::DoCleanup(void*)      - Undefined Reference
    _ZN18TApaDocCleanupItem9DoCleanupEPv@apparc{000a0000}[10003a3d].dll  - Undefined Reference
    TUnicodeCompressor::CompressedSizeL(MUnicodeSource&, int)  - Undefined Reference
    _ZN18TUnicodeCompressor15CompressedSizeLER14MUnicodeSourcei@estor{000a0000}[10003b0d].dll  - Undefined Reference
    TUnicodeCompressor::FlushL(unsigned char*, int, int&)  - Undefined Reference
    _ZN18TUnicodeCompressor6FlushLEPhiRi@estor{000a0000}[10003b0d].dll  - Undefined Reference
    TUnicodeCompressor::CompressL(unsigned char*, MUnicodeSource&, int, int, int*, int*)  - Undefined Reference
    _ZN18TUnicodeCompressor9CompressLEPhR14MUnicodeSourceiiPiS3_@estor{000a0000}[10003b0d].dll  - Undefined Reference
    TUnicodeCompressor::TUnicodeCompressor()  - Undefined Reference
    _ZN18TUnicodeCompressorC1Ev@estor{000a0000}[10003b0d].dll  - Undefined Reference
    TDataTypeWithPriority::InternalizeL(RReadStream&)  - Undefined Reference
    _ZN21TDataTypeWithPriority12InternalizeLER11RReadStream@apmime{000a0000}[10003a1a].dll  - Undefined Reference
    TDataTypeWithPriority::TDataTypeWithPriority(const TDataType&, long)  - Undefined Reference
    _ZN21TDataTypeWithPriorityC1ERK9TDataTypel@apmime{000a0000}[10003a1a].dll  - Undefined Reference
    TDataTypeWithPriority::TDataTypeWithPriority()  - Undefined Reference
    _ZN21TDataTypeWithPriorityC1Ev@apmime{000a0000}[10003a1a].dll  - Undefined Reference
    TApaApplicationFactory::TApaApplicationFactory(TUid)  - Undefined Reference
    _ZN22TApaApplicationFactoryC1E4TUid@apparc{000a0000}[10003a3d].dll  - Undefined Reference
    CApaAppServiceInfoArray::CApaAppServiceInfoArray_Reserved1()  - Undefined Reference
    _ZN23CApaAppServiceInfoArray33CApaAppServiceInfoArray_Reserved1Ev@apparc{000a0000}[10003a3d].dll  - Undefined Reference
    CApaAppServiceInfoArray::CApaAppServiceInfoArray_Reserved2()  - Undefined Reference
    _ZN23CApaAppServiceInfoArray33CApaAppServiceInfoArray_Reserved2Ev@apparc{000a0000}[10003a3d].dll  - Undefined Reference
    TApaEmbeddabilityFilter::AddEmbeddability(TApaAppCapability::TEmbeddability)  - Undefined Reference
    _ZN23TApaEmbeddabilityFilter16AddEmbeddabilityEN17TApaAppCapability14TEmbeddabilityE@apparc{000a0000}[10003a3d].dll  - Undefined Reference
    TApaEmbeddabilityFilter::TApaEmbeddabilityFilter()  - Undefined Reference
    _ZN23TApaEmbeddabilityFilterC1Ev@apparc{000a0000}[10003a3d].dll  - Undefined Reference
    RFs::GetSystemDriveChar()                 - Undefined Reference
    _ZN3RFs18GetSystemDriveCharEv@efsrv{000a0000}[100039e4].dll  - Undefined Reference
    RFs::MkDir(const TDesC16&)                - Undefined Reference
    _ZN3RFs5MkDirERK7TDesC16@efsrv{000a0000}[100039e4].dll  - Undefined Reference
    RFs::Delete(const TDesC16&)               - Undefined Reference
    _ZN3RFs6DeleteERK7TDesC16@efsrv{000a0000}[100039e4].dll  - Undefined Reference
    RFs::Rename(const TDesC16&, const TDesC16&)  - Undefined Reference
    _ZN3RFs6RenameERK7TDesC16S2_@efsrv{000a0000}[100039e4].dll  - Undefined Reference
    RFs::Connect(int)                         - Undefined Reference
    _ZN3RFs7ConnectEi@efsrv{000a0000}[100039e4].dll  - Undefined Reference
    RFs::Replace(const TDesC16&, const TDesC16&)  - Undefined Reference
    _ZN3RFs7ReplaceERK7TDesC16S2_@efsrv{000a0000}[100039e4].dll  - Undefined Reference
    RFs::MkDirAll(const TDesC16&)             - Undefined Reference
    _ZN3RFs8MkDirAllERK7TDesC16@efsrv{000a0000}[100039e4].dll  - Undefined Reference
    User::LeaveIfError(int)                   - Undefined Reference
    _ZN4User12LeaveIfErrorEi@euser{000a0000}[100039e5].dll  - Undefined Reference
    User::LeaveNoMemory()                     - Undefined Reference
    _ZN4User13LeaveNoMemoryEv@euser{000a0000}[100039e5].dll  - Undefined Reference
    User::WaitForRequest(TRequestStatus&)     - Undefined Reference
    _ZN4User14WaitForRequestER14TRequestStatus@euser{000a0000}[100039e5].dll  - Undefined Reference
    User::RequestComplete(TRequestStatus*&, int)  - Undefined Reference
    _ZN4User15RequestCompleteERP14TRequestStatusi@euser{000a0000}[100039e5].dll  - Undefined Reference
    User::MarkCleanupStack()                  - Undefined Reference
    _ZN4User16MarkCleanupStackEv@euser{000a0000}[100039e5].dll  - Undefined Reference
    User::UnMarkCleanupStack(TTrapHandler*)   - Undefined Reference
    _ZN4User18UnMarkCleanupStackEP12TTrapHandler@euser{000a0000}[100039e5].dll  - Undefined Reference
    User::Leave(int)                          - Undefined Reference
    _ZN4User5LeaveEi@euser{000a0000}[100039e5].dll  - Undefined Reference
    User::Panic(const TDesC16&, int)          - Undefined Reference
    _ZN4User5PanicERK7TDesC16i@euser{000a0000}[100039e5].dll  - Undefined Reference
    User::AllocL(int)                         - Undefined Reference
    _ZN4User6AllocLEi@euser{000a0000}[100039e5].dll  - Undefined Reference
    User::AllocZ(int)                         - Undefined Reference
    _ZN4User6AllocZEi@euser{000a0000}[100039e5].dll  - Undefined Reference
    User::AllocZL(int)                        - Undefined Reference
    _ZN4User7AllocZLEi@euser{000a0000}[100039e5].dll  - Undefined Reference
    User::Language()                          - Undefined Reference
    _ZN4User8LanguageEv@euser{000a0000}[100039e5].dll  - Undefined Reference
    User::Invariant()                         - Undefined Reference
    _ZN4User9InvariantEv@euser{000a0000}[100039e5].dll  - Undefined Reference
    CBase::Extension_(unsigned, void*&, void*)  - Undefined Reference
    _ZN5CBase10Extension_EjRPvS0_@euser{000a0000}[100039e5].dll  - Undefined Reference
    CBase::~CBase()                           - Undefined Reference
    _ZN5CBaseD1Ev@euser{000a0000}[100039e5].dll  - Undefined Reference
    RBuf8::Swap(RBuf8&)                       - Undefined Reference
    _ZN5RBuf84SwapERS_@euser{000a0000}[100039e5].dll  - Undefined Reference
    RBuf8::Close()                            - Undefined Reference
    _ZN5RBuf85CloseEv@euser{000a0000}[100039e5].dll  - Undefined Reference
    RBuf8::CreateL(int)                       - Undefined Reference
    _ZN5RBuf87CreateLEi@euser{000a0000}[100039e5].dll  - Undefined Reference
    RBuf8::ReAllocL(int)                      - Undefined Reference
    _ZN5RBuf88ReAllocLEi@euser{000a0000}[100039e5].dll  - Undefined Reference
    RBuf8::RBuf8()                            - Undefined Reference
    _ZN5RBuf8C1Ev@euser{000a0000}[100039e5].dll  - Undefined Reference
    RFile::AdoptFromServer(int, int)          - Undefined Reference
    _ZN5RFile15AdoptFromServerEii@efsrv{000a0000}[100039e4].dll  - Undefined Reference
    RFile::Open(RFs&, const TDesC16&, unsigned)  - Undefined Reference
    _ZN5RFile4OpenER3RFsRK7TDesC16j@efsrv{000a0000}[100039e4].dll  - Undefined Reference
    RFile::Close()                            - Undefined Reference
    _ZN5RFile5CloseEv@efsrv{000a0000}[100039e4].dll  - Undefined Reference
    RFile::Duplicate(const RFile&, TOwnerType)  - Undefined Reference
    _ZN5RFile9DuplicateERKS_10TOwnerType@efsrv{000a0000}[100039e4].dll  - Undefined Reference
    TDes8::Copy(const TDesC8&)                - Undefined Reference
    _ZN5TDes84CopyERK6TDesC8@euser{000a0000}[100039e5].dll  - Undefined Reference
    TDes8::FillZ(int)                         - Undefined Reference
    _ZN5TDes85FillZEi@euser{000a0000}[100039e5].dll  - Undefined Reference
    TDes8::Append(TChar)                      - Undefined Reference
    _ZN5TDes86AppendE5TChar@euser{000a0000}[100039e5].dll  - Undefined Reference
    TDes8::Append(const TDesC8&)              - Undefined Reference
    _ZN5TDes86AppendERK6TDesC8@euser{000a0000}[100039e5].dll  - Undefined Reference
    TDes8::Insert(int, const TDesC8&)         - Undefined Reference
    _ZN5TDes86InsertEiRK6TDesC8@euser{000a0000}[100039e5].dll  - Undefined Reference
    TDes8::SetLength(int)                     - Undefined Reference
    _ZN5TDes89SetLengthEi@euser{000a0000}[100039e5].dll  - Undefined Reference
    TPtr8::TPtr8(unsigned char*, int, int)    - Undefined Reference
    _ZN5TPtr8C1EPhii@euser{000a0000}[100039e5].dll  - Undefined Reference
    TRect::TRect(const TSize&)                - Undefined Reference
    _ZN5TRectC1ERK5TSize@euser{000a0000}[100039e5].dll  - Undefined Reference
    TRect::TRect(const TPoint&, const TSize&)  - Undefined Reference
    _ZN5TRectC1ERK6TPointRK5TSize@euser{000a0000}[100039e5].dll  - Undefined Reference
    TTime::UniversalTime()                    - Undefined Reference
    _ZN5TTime13UniversalTimeEv@euser{000a0000}[100039e5].dll  - Undefined Reference
    HBufC8::Des()                             - Undefined Reference
    _ZN6HBufC83DesEv@euser{000a0000}[100039e5].dll  - Undefined Reference
    HBufC8::New(int)                          - Undefined Reference
    _ZN6HBufC83NewEi@euser{000a0000}[100039e5].dll  - Undefined Reference
    HBufC8::NewL(RReadStream&, int)           - Undefined Reference
    _ZN6HBufC84NewLER11RReadStreami@estor{000a0000}[10003b0d].dll  - Undefined Reference
    HBufC8::NewL(int)                         - Undefined Reference
    _ZN6HBufC84NewLEi@euser{000a0000}[100039e5].dll  - Undefined Reference
    HBufC8::NewLC(int)                        - Undefined Reference
    _ZN6HBufC85NewLCEi@euser{000a0000}[100039e5].dll  - Undefined Reference
    RBuf16::Close()                           - Undefined Reference
    _ZN6RBuf165CloseEv@euser{000a0000}[100039e5].dll  - Undefined Reference
    RBuf16::CreateL(int)                      - Undefined Reference
    _ZN6RBuf167CreateLEi@euser{000a0000}[100039e5].dll  - Undefined Reference
    RBuf16::RBuf16()                          - Undefined Reference
    _ZN6RBuf16C1Ev@euser{000a0000}[100039e5].dll  - Undefined Reference
    RTimer::CreateLocal()                     - Undefined Reference
    _ZN6RTimer11CreateLocalEv@euser{000a0000}[100039e5].dll  - Undefined Reference
    RTimer::After(TRequestStatus&, TTimeIntervalMicroSeconds32)  - Undefined Reference
    _ZN6RTimer5AfterER14TRequestStatus27TTimeIntervalMicroSeconds32@euser{000a0000}[100039e5].dll  - Undefined Reference
    RTimer::Cancel()                          - Undefined Reference
    _ZN6RTimer6CancelEv@euser{000a0000}[100039e5].dll  - Undefined Reference
    TDes16::Num(unsigned long long, TRadix)   - Undefined Reference
    _ZN6TDes163NumEy6TRadix@euser{000a0000}[100039e5].dll  - Undefined Reference
    TDes16::Copy(const TDesC16&)              - Undefined Reference
    _ZN6TDes164CopyERK7TDesC16@euser{000a0000}[100039e5].dll  - Undefined Reference
    TDes16::Zero()                            - Undefined Reference
    _ZN6TDes164ZeroEv@euser{000a0000}[100039e5].dll  - Undefined Reference
    TDes16::Append(TChar)                     - Undefined Reference
    _ZN6TDes166AppendE5TChar@euser{000a0000}[100039e5].dll  - Undefined Reference
    TDes16::Append(const TDesC16&)            - Undefined Reference
    _ZN6TDes166AppendERK7TDesC16@euser{000a0000}[100039e5].dll  - Undefined Reference
    TDes16::Format(TRefByValue<const TDesC16>, ...)  - Undefined Reference
    _ZN6TDes166FormatE11TRefByValueIK7TDesC16Ez@euser{000a0000}[100039e5].dll  - Undefined Reference
    TDes16::Replace(int, int, const TDesC16&)  - Undefined Reference
    _ZN6TDes167ReplaceEiiRK7TDesC16@euser{000a0000}[100039e5].dll  - Undefined Reference
    TDes16::SetLength(int)                    - Undefined Reference
    _ZN6TDes169SetLengthEi@euser{000a0000}[100039e5].dll  - Undefined Reference
    TEntry::TEntry()                          - Undefined Reference
    _ZN6TEntryC1Ev@efsrv{000a0000}[100039e4].dll  - Undefined Reference
    TLex16::Val(unsigned long&, TRadix)       - Undefined Reference
    _ZN6TLex163ValERm6TRadix@euser{000a0000}[100039e5].dll  - Undefined Reference
    TLex16::Assign(const TDesC16&)            - Undefined Reference
    _ZN6TLex166AssignERK7TDesC16@euser{000a0000}[100039e5].dll  - Undefined Reference
    TParse::Set(const TDesC16&, const TDesC16*, const TDesC16*)  - Undefined Reference
    _ZN6TParse3SetERK7TDesC16PS1_S3_@efsrv{000a0000}[100039e4].dll  - Undefined Reference
    TParse::SetNoWild(const TDesC16&, const TDesC16*, const TDesC16*)  - Undefined Reference
    _ZN6TParse9SetNoWildERK7TDesC16PS1_S3_@efsrv{000a0000}[100039e4].dll  - Undefined Reference
    TParse::TParse()                          - Undefined Reference
    _ZN6TParseC1Ev@efsrv{000a0000}[100039e4].dll  - Undefined Reference
    TPtrC8::TPtrC8(const unsigned char*, int)  - Undefined Reference
    _ZN6TPtrC8C1EPKhi@euser{000a0000}[100039e5].dll  - Undefined Reference
    TPtrC8::TPtrC8(const TDesC8&)             - Undefined Reference
    _ZN6TPtrC8C1ERK6TDesC8@euser{000a0000}[100039e5].dll  - Undefined Reference
    CActive::Extension_(unsigned, void*&, void*)  - Undefined Reference
    _ZN7CActive10Extension_EjRPvS0_@euser{000a0000}[100039e5].dll  - Undefined Reference
    CActive::Cancel()                         - Undefined Reference
    _ZN7CActive6CancelEv@euser{000a0000}[100039e5].dll  - Undefined Reference
    CActive::RunError(int)                    - Undefined Reference
    _ZN7CActive8RunErrorEi@euser{000a0000}[100039e5].dll  - Undefined Reference
    CActive::SetActive()                      - Undefined Reference
    _ZN7CActive9SetActiveEv@euser{000a0000}[100039e5].dll  - Undefined Reference
    CActive::CActive__sub_object(int)         - Undefined Reference
    _ZN7CActiveC2Ei@euser{000a0000}[100039e5].dll  - Undefined Reference
    CActive::~CActive__sub_object()           - Undefined Reference
    _ZN7CActiveD2Ev@euser{000a0000}[100039e5].dll  - Undefined Reference
    CBufSeg::NewL(int)                        - Undefined Reference
    _ZN7CBufSeg4NewLEi@euser{000a0000}[100039e5].dll  - Undefined Reference
    HBufC16::Des()                            - Undefined Reference
    _ZN7HBufC163DesEv@euser{000a0000}[100039e5].dll  - Undefined Reference
    HBufC16::New(int)                         - Undefined Reference
    _ZN7HBufC163NewEi@euser{000a0000}[100039e5].dll  - Undefined Reference
    HBufC16::NewL(RReadStream&, int)          - Undefined Reference
    _ZN7HBufC164NewLER11RReadStreami@estor{000a0000}[10003b0d].dll  - Undefined Reference
    HBufC16::NewL(int)                        - Undefined Reference
    _ZN7HBufC164NewLEi@euser{000a0000}[100039e5].dll  - Undefined Reference
    HBufC16::NewLC(int)                       - Undefined Reference
    _ZN7HBufC165NewLCEi@euser{000a0000}[100039e5].dll  - Undefined Reference
    HBufC16::NewMax(int)                      - Undefined Reference
    _ZN7HBufC166NewMaxEi@euser{000a0000}[100039e5].dll  - Undefined Reference
    HBufC16::ReAllocL(int)                    - Undefined Reference
    _ZN7HBufC168ReAllocLEi@euser{000a0000}[100039e5].dll  - Undefined Reference
    HBufC16::operator =(const TDesC16&)       - Undefined Reference
    _ZN7HBufC16aSERK7TDesC16@euser{000a0000}[100039e5].dll  - Undefined Reference
    RThread::Kill(int)                        - Undefined Reference
    _ZN7RThread4KillEi@euser{000a0000}[100039e5].dll  - Undefined Reference
    RThread::Open(TThreadId, TOwnerType)      - Undefined Reference
    _ZN7RThread4OpenE9TThreadId10TOwnerType@euser{000a0000}[100039e5].dll  - Undefined Reference
    RThread::Open(const TDesC16&, TOwnerType)  - Undefined Reference
    _ZN7RThread4OpenERK7TDesC1610TOwnerType@euser{000a0000}[100039e5].dll  - Undefined Reference
    RThread::Create(const TDesC16&, int(*)(void*), int, int, int, void*, TOwnerType)  - Undefined Reference
    _ZN7RThread6CreateERK7TDesC16PFiPvEiiiS3_10TOwnerType@euser{000a0000}[100039e5].dll  - Undefined Reference
    TBufBuf::UnderflowL(int)                  - Undefined Reference
    _ZN7TBufBuf10UnderflowLEi@estor{000a0000}[10003b0d].dll  - Undefined Reference
    TBufBuf::Set(CBufBase&, int, int)         - Undefined Reference
    _ZN7TBufBuf3SetER8CBufBaseii@estor{000a0000}[10003b0d].dll  - Undefined Reference
    TBufBuf::DoSeekL(int, TStreamLocation, int)  - Undefined Reference
    _ZN7TBufBuf7DoSeekLEi15TStreamLocationi@estor{000a0000}[10003b0d].dll  - Undefined Reference
    TBufBuf::DoSynchL()                       - Undefined Reference
    _ZN7TBufBuf8DoSynchLEv@estor{000a0000}[10003b0d].dll  - Undefined Reference
    TBufBuf::DoWriteL(const void*, int)       - Undefined Reference
    _ZN7TBufBuf8DoWriteLEPKvi@estor{000a0000}[10003b0d].dll  - Undefined Reference
    TBufBuf::OverflowL()                      - Undefined Reference
    _ZN7TBufBuf9OverflowLEv@estor{000a0000}[10003b0d].dll  - Undefined Reference
    TBufBuf::TBufBuf()                        - Undefined Reference
    _ZN7TBufBufC1Ev@estor{000a0000}[10003b0d].dll  - Undefined Reference
    TPtrC16::TPtrC16(const TDesC16&)          - Undefined Reference
    _ZN7TPtrC16C1ERK7TDesC16@euser{000a0000}[100039e5].dll  - Undefined Reference
    TPtrC16::TPtrC16()                        - Undefined Reference
    _ZN7TPtrC16C1Ev@euser{000a0000}[100039e5].dll  - Undefined Reference
    UserHal::MachineInfo(TDes8&)              - Undefined Reference
    _ZN7UserHal11MachineInfoER5TDes8@euser{000a0000}[100039e5].dll  - Undefined Reference
    UserSvr::DllFreeTls(int)                  - Undefined Reference
    _ZN7UserSvr10DllFreeTlsEi@euser{000a0000}[100039e5].dll  - Undefined Reference
    UserSvr::DllTls(int, int)                 - Undefined Reference
    _ZN7UserSvr6DllTlsEii@euser{000a0000}[100039e5].dll  - Undefined Reference
    UserSvr::DllSetTls(int, int, void*)       - Undefined Reference
    _ZN7UserSvr9DllSetTlsEiiPv@euser{000a0000}[100039e5].dll  - Undefined Reference
    CBufBase::ExpandL(int, int)               - Undefined Reference
    _ZN8CBufBase7ExpandLEii@euser{000a0000}[100039e5].dll  - Undefined Reference
    CBufFlat::NewL(int)                       - Undefined Reference
    _ZN8CBufFlat4NewLEi@euser{000a0000}[100039e5].dll  - Undefined Reference
    CPicture::SetCropInTwips(const TMargins&)  - Undefined Reference
    _ZN8CPicture14SetCropInTwipsERK8TMargins@gdi{000a0000}[10003b15].dll  - Undefined Reference
    CPicture::SetSizeInTwips(const TSize&)    - Undefined Reference
    _ZN8CPicture14SetSizeInTwipsERK5TSize@gdi{000a0000}[10003b15].dll  - Undefined Reference
    CPicture::NativePixelSize(TSize&)         - Undefined Reference
    _ZN8CPicture15NativePixelSizeER5TSize@gdi{000a0000}[10003b15].dll  - Undefined Reference
    CPicture::CPicture__sub_object()          - Undefined Reference
    _ZN8CPictureC2Ev@gdi{000a0000}[10003b15].dll  - Undefined Reference
    CPicture::~CPicture__sub_object()         - Undefined Reference
    _ZN8CPictureD2Ev@gdi{000a0000}[10003b15].dll  - Undefined Reference
    RFileBuf::RFileBuf()                      - Undefined Reference
    _ZN8RFileBufC1Ev@estor{000a0000}[10003b0d].dll  - Undefined Reference
    RLibrary::GetInfo(const TDesC16&, TDes8&)  - Undefined Reference
    _ZN8RLibrary7GetInfoERK7TDesC16R5TDes8@euser{000a0000}[100039e5].dll  - Undefined Reference
    RProcess::CreateWithStackOverride(const TDesC16&, const TDesC16&, const TUidType&, int, TOwnerType)  - Undefined Reference
    _ZN8RProcess23CreateWithStackOverrideERK7TDesC16S2_RK8TUidTypei10TOwnerType@euser{000a0000}[100039e5].dll  - Undefined Reference
    RProcess::Kill(int)                       - Undefined Reference
    _ZN8RProcess4KillEi@euser{000a0000}[100039e5].dll  - Undefined Reference
    RProcess::Create(const TDesC16&, const TDesC16&, const TUidType&, TOwnerType)  - Undefined Reference
    _ZN8RProcess6CreateERK7TDesC16S2_RK8TUidType10TOwnerType@euser{000a0000}[100039e5].dll  - Undefined Reference
    RProcess::Resume()                        - Undefined Reference
    _ZN8RProcess6ResumeEv@euser{000a0000}[100039e5].dll  - Undefined Reference
    RProcess::Terminate(int)                  - Undefined Reference
    _ZN8RProcess9TerminateEi@euser{000a0000}[100039e5].dll  - Undefined Reference
    TUidType::TUidType(TUid, TUid, TUid)      - Undefined Reference
    _ZN8TUidTypeC1E4TUidS0_S0_@euser{000a0000}[100039e5].dll  - Undefined Reference
    TUidType::TUidType()                      - Undefined Reference
    _ZN8TUidTypeC1Ev@euser{000a0000}[100039e5].dll  - Undefined Reference
    TVersion::TVersion(int, int, int)         - Undefined Reference
    _ZN8TVersionC1Eiii@euser{000a0000}[100039e5].dll  - Undefined Reference
    TVersion::TVersion()                      - Undefined Reference
    _ZN8TVersionC1Ev@euser{000a0000}[100039e5].dll  - Undefined Reference
    BaflUtils::FileExists(const RFs&, const TDesC16&)  - Undefined Reference
    _ZN9BaflUtils10FileExistsERK3RFsRK7TDesC16@bafl{000a0000}[10003a0f].dll  - Undefined Reference
    BaflUtils::GetDowngradePathL(const RFs&, TLanguage, RArray<TLanguage>&)  - Undefined Reference
    _ZN9BaflUtils17GetDowngradePathLERK3RFs9TLanguageR6RArrayIS3_E@bafl{000a0000}[10003a0f].dll  - Undefined Reference
    BaflUtils::NearestLanguageFile(const RFs&, TBuf<(int)256>&)  - Undefined Reference
    _ZN9BaflUtils19NearestLanguageFileERK3RFsR4TBufILi256EE@bafl{000a0000}[10003a0f].dll  - Undefined Reference
    BaflUtils::NearestLanguageFile(const RFs&, TBuf<(int)256>&, TLanguage&)  - Undefined Reference
    _ZN9BaflUtils19NearestLanguageFileERK3RFsR4TBufILi256EER9TLanguage@bafl{000a0000}[10003a0f].dll  - Undefined Reference
    CPeriodic::NewL(int)                      - Undefined Reference
    _ZN9CPeriodic4NewLEi@euser{000a0000}[100039e5].dll  - Undefined Reference
    CPeriodic::Start(TTimeIntervalMicroSeconds32, TTimeIntervalMicroSeconds32, TCallBack)  - Undefined Reference
    _ZN9CPeriodic5StartE27TTimeIntervalMicroSeconds32S0_9TCallBack@euser{000a0000}[100039e5].dll  - Undefined Reference
    CStoreMap::NewL(CStreamStore&)            - Undefined Reference
    _ZN9CStoreMap4NewLER12CStreamStore@estor{000a0000}[10003b0d].dll  - Undefined Reference
    CStoreMap::BindL(TSwizzleC<void>, TStreamId)  - Undefined Reference
    _ZN9CStoreMap5BindLE9TSwizzleCIvE9TStreamId@estor{000a0000}[10003b0d].dll  - Undefined Reference
    CStoreMap::Reset()                        - Undefined Reference
    _ZN9CStoreMap5ResetEv@estor{000a0000}[10003b0d].dll  - Undefined Reference
    TBufBase8::TBufBase8(int)                 - Undefined Reference
    _ZN9TBufBase8C1Ei@euser{000a0000}[100039e5].dll  - Undefined Reference
    TBufBase8::TBufBase8(int, int)            - Undefined Reference
    _ZN9TBufBase8C1Eii@euser{000a0000}[100039e5].dll  - Undefined Reference
    TDataType::InternalizeL(RReadStream&)     - Undefined Reference
    _ZN9TDataType12InternalizeLER11RReadStream@apmime{000a0000}[10003a1a].dll  - Undefined Reference
    TDataType::TDataType(TUid)                - Undefined Reference
    _ZN9TDataTypeC1E4TUid@apmime{000a0000}[10003a1a].dll  - Undefined Reference
    TDataType::TDataType(const TDesC8&)       - Undefined Reference
    _ZN9TDataTypeC1ERK6TDesC8@apmime{000a0000}[10003a1a].dll  - Undefined Reference
    TDataType::TDataType(const TDataType&)    - Undefined Reference
    _ZN9TDataTypeC1ERKS_@apmime{000a0000}[10003a1a].dll  - Undefined Reference
    TDataType::TDataType()                    - Undefined Reference
    _ZN9TDataTypeC1Ev@apmime{000a0000}[10003a1a].dll  - Undefined Reference
    CFbsBitmap::DisplayMode() const           - Undefined Reference
    _ZNK10CFbsBitmap11DisplayModeEv@fbscli{000a0000}[10003a15].dll  - Undefined Reference
    CFbsBitmap::ExternalizeL(RWriteStream&) const  - Undefined Reference
    _ZNK10CFbsBitmap12ExternalizeLER12RWriteStream@fbscli{000a0000}[10003a15].dll  - Undefined Reference
    CFbsBitmap::IsMonochrome() const          - Undefined Reference
    _ZNK10CFbsBitmap12IsMonochromeEv@fbscli{000a0000}[10003a15].dll  - Undefined Reference
    CFbsBitmap::SizeInPixels() const          - Undefined Reference
    _ZNK10CFbsBitmap12SizeInPixelsEv@fbscli{000a0000}[10003a15].dll  - Undefined Reference
    CFbsBitmap::Handle() const                - Undefined Reference
    _ZNK10CFbsBitmap6HandleEv@fbscli{000a0000}[10003a15].dll  - Undefined Reference
    RArrayBase::At(int) const                 - Undefined Reference
    _ZNK10RArrayBase2AtEi@euser{000a0000}[100039e5].dll  - Undefined Reference
    RArrayBase::Count() const                 - Undefined Reference
    _ZNK10RArrayBase5CountEv@euser{000a0000}[100039e5].dll  - Undefined Reference
    RWsSession::NumWindowGroups(int) const    - Undefined Reference
    _ZNK10RWsSession15NumWindowGroupsEi@ws32{000a0000}[10003b21].dll  - Undefined Reference
    TDriveUnit::Name() const                  - Undefined Reference
    _ZNK10TDriveUnit4NameEv@efsrv{000a0000}[100039e4].dll  - Undefined Reference
    TParseBase::ExtPresent() const            - Undefined Reference
    _ZNK10TParseBase10ExtPresentEv@efsrv{000a0000}[100039e4].dll  - Undefined Reference
    TParseBase::NameAndExt() const            - Undefined Reference
    _ZNK10TParseBase10NameAndExtEv@efsrv{000a0000}[100039e4].dll  - Undefined Reference
    TParseBase::NamePresent() const           - Undefined Reference
    _ZNK10TParseBase11NamePresentEv@efsrv{000a0000}[100039e4].dll  - Undefined Reference
    TParseBase::PathPresent() const           - Undefined Reference
    _ZNK10TParseBase11PathPresentEv@efsrv{000a0000}[100039e4].dll  - Undefined Reference
    TParseBase::DriveAndPath() const          - Undefined Reference
    _ZNK10TParseBase12DriveAndPathEv@efsrv{000a0000}[100039e4].dll  - Undefined Reference
    TParseBase::DrivePresent() const          - Undefined Reference
    _ZNK10TParseBase12DrivePresentEv@efsrv{000a0000}[100039e4].dll  - Undefined Reference
    TParseBase::Ext() const                   - Undefined Reference
    _ZNK10TParseBase3ExtEv@efsrv{000a0000}[100039e4].dll  - Undefined Reference
    TParseBase::Name() const                  - Undefined Reference
    _ZNK10TParseBase4NameEv@efsrv{000a0000}[100039e4].dll  - Undefined Reference
    TParseBase::Path() const                  - Undefined Reference
    _ZNK10TParseBase4PathEv@efsrv{000a0000}[100039e4].dll  - Undefined Reference
    TParseBase::Drive() const                 - Undefined Reference
    _ZNK10TParseBase5DriveEv@efsrv{000a0000}[100039e4].dll  - Undefined Reference
    TParseBase::IsWild() const                - Undefined Reference
    _ZNK10TParseBase6IsWildEv@efsrv{000a0000}[100039e4].dll  - Undefined Reference
    TParseBase::FullName() const              - Undefined Reference
    _ZNK10TParseBase8FullNameEv@efsrv{000a0000}[100039e4].dll  - Undefined Reference
    RHandleBase::Name() const                 - Undefined Reference
    _ZNK11RHandleBase4NameEv@euser{000a0000}[100039e5].dll  - Undefined Reference
    TCheckedUid::Des() const                  - Undefined Reference
    _ZNK11TCheckedUid3DesEv@euser{000a0000}[100039e5].dll  - Undefined Reference
    CApaDoorBase::LineBreakPossible(unsigned, int, int) const  - Undefined Reference
    _ZNK12CApaDoorBase17LineBreakPossibleEjii@apparc{000a0000}[10003a3d].dll  - Undefined Reference
    CApaDoorBase::ExternalizeBaseStreamL(CStreamStore&, CStreamDictionary&) const  - Undefined Reference
    _ZNK12CApaDoorBase22ExternalizeBaseStreamLER12CStreamStoreR17CStreamDictionary@apparc{000a0000}[10003a3d].dll  - Undefined Reference
    RSessionBase::DoSendReceive(int, const TIpcArgs*) const  - Undefined Reference
    _ZNK12RSessionBase13DoSendReceiveEiPK8TIpcArgs@euser{000a0000}[100039e5].dll  - Undefined Reference
    RSessionBase::DoSendReceive(int, const TIpcArgs*, TRequestStatus&) const  - Undefined Reference
    _ZNK12RSessionBase13DoSendReceiveEiPK8TIpcArgsR14TRequestStatus@euser{000a0000}[100039e5].dll  - Undefined Reference
    TCardinality::ExternalizeL(RWriteStream&) const  - Undefined Reference
    _ZNK12TCardinality12ExternalizeLER12RWriteStream@estor{000a0000}[10003b0d].dll  - Undefined Reference
    CArrayFixBase::At(int) const              - Undefined Reference
    _ZNK13CArrayFixBase2AtEi@euser{000a0000}[100039e5].dll  - Undefined Reference
    CResourceFile::AllocReadLC(int) const     - Undefined Reference
    _ZNK13CResourceFile11AllocReadLCEi@bafl{000a0000}[10003a0f].dll  - Undefined Reference
    RResourceFile::AllocReadLC(int) const     - Undefined Reference
    _ZNK13RResourceFile11AllocReadLCEi@bafl{000a0000}[10003a0f].dll  - Undefined Reference
    TSwizzleCBase::DoExternalizeL(RWriteStream&, TExternalizer<void>) const  - Undefined Reference
    _ZNK13TSwizzleCBase14DoExternalizeLER12RWriteStream13TExternalizerIvE@estor{000a0000}[10003b0d].dll  - Undefined Reference
    TSwizzleCBase::AsId() const               - Undefined Reference
    _ZNK13TSwizzleCBase4AsIdEv@estor{000a0000}[10003b0d].dll  - Undefined Reference
    TCapabilitySet::HasCapability(TCapability) const  - Undefined Reference
    _ZNK14TCapabilitySet13HasCapabilityE11TCapability@euser{000a0000}[100039e5].dll  - Undefined Reference
    CApaCommandLine::GetIpcArgsLC(TIpcArgs&) const  - Undefined Reference
    _ZNK15CApaCommandLine12GetIpcArgsLCER8TIpcArgs@apparc{000a0000}[10003a3d].dll  - Undefined Reference
    CApaCommandLine::ExecutableName() const   - Undefined Reference
    _ZNK15CApaCommandLine14ExecutableNameEv@apparc{000a0000}[10003a3d].dll  - Undefined Reference
    CApaCommandLine::SetProcessEnvironmentL(RProcess&) const  - Undefined Reference
    _ZNK15CApaCommandLine22SetProcessEnvironmentLER8RProcess@apparc{000a0000}[10003a3d].dll  - Undefined Reference
    RChangeNotifier::LogonCancel() const      - Undefined Reference
    _ZNK15RChangeNotifier11LogonCancelEv@euser{000a0000}[100039e5].dll  - Undefined Reference
    RChangeNotifier::Logon(TRequestStatus&) const  - Undefined Reference
    _ZNK15RChangeNotifier5LogonER14TRequestStatus@euser{000a0000}[100039e5].dll  - Undefined Reference
    XLeaveException::GetReason() const        - Undefined Reference
    _ZNK15XLeaveException9GetReasonEv@euser{000a0000}[100039e5].dll  - Undefined Reference
    CApaAppRegFinder::DriveList() const       - Undefined Reference
    _ZNK16CApaAppRegFinder9DriveListEv@apfile{000a0000}[10003a3b].dll  - Undefined Reference
    CStreamDictionary::ExternalizeL(RWriteStream&) const  - Undefined Reference
    _ZNK17CStreamDictionary12ExternalizeLER12RWriteStream@estor{000a0000}[10003b0d].dll  - Undefined Reference
    CStreamDictionary::At(TUid) const         - Undefined Reference
    _ZNK17CStreamDictionary2AtE4TUid@estor{000a0000}[10003b0d].dll  - Undefined Reference
    RPointerArrayBase::At(int) const          - Undefined Reference
    _ZNK17RPointerArrayBase2AtEi@euser{000a0000}[100039e5].dll  - Undefined Reference
    RPointerArrayBase::Count() const          - Undefined Reference
    _ZNK17RPointerArrayBase5CountEv@euser{000a0000}[100039e5].dll  - Undefined Reference
    TApaAppCapability::ExternalizeL(RWriteStream&) const  - Undefined Reference
    _ZNK17TApaAppCapability12ExternalizeLER12RWriteStream@apparc{000a0000}[10003a3d].dll  - Undefined Reference
    TDataTypeWithPriority::ExternalizeL(RWriteStream&) const  - Undefined Reference
    _ZNK21TDataTypeWithPriority12ExternalizeLER12RWriteStream@apmime{000a0000}[10003a1a].dll  - Undefined Reference
    RFs::IsFileInRom(const TDesC16&) const    - Undefined Reference
    _ZNK3RFs11IsFileInRomERK7TDesC16@efsrv{000a0000}[100039e4].dll  - Undefined Reference
    RFs::IsValidName(const TDesC16&) const    - Undefined Reference
    _ZNK3RFs11IsValidNameERK7TDesC16@efsrv{000a0000}[100039e4].dll  - Undefined Reference
    RFs::ReadFileSection(const TDesC16&, int, TDes8&, int) const  - Undefined Reference
    _ZNK3RFs15ReadFileSectionERK7TDesC16iR5TDes8i@efsrv{000a0000}[100039e4].dll  - Undefined Reference
    RFs::Entry(const TDesC16&, TEntry&) const  - Undefined Reference
    _ZNK3RFs5EntryERK7TDesC16R6TEntry@efsrv{000a0000}[100039e4].dll  - Undefined Reference
    RFs::GetDir(const TDesC16&, unsigned, unsigned, CDir*&) const  - Undefined Reference
    _ZNK3RFs6GetDirERK7TDesC16jjRP4CDir@efsrv{000a0000}[100039e4].dll  - Undefined Reference
    CDir::Count() const                       - Undefined Reference
    _ZNK4CDir5CountEv@efsrv{000a0000}[100039e4].dll  - Undefined Reference
    CDir::operator [](int) const              - Undefined Reference
    _ZNK4CDirixEi@efsrv{000a0000}[100039e4].dll  - Undefined Reference
    TUid::operator ==(const TUid&) const      - Undefined Reference
    _ZNK4TUideqERKS_@euser{000a0000}[100039e5].dll  - Undefined Reference
    TUid::operator !=(const TUid&) const      - Undefined Reference
    _ZNK4TUidneERKS_@euser{000a0000}[100039e5].dll  - Undefined Reference
    RFile::TransferToServer(TIpcArgs&, int, int) const  - Undefined Reference
    _ZNK5RFile16TransferToServerER8TIpcArgsii@efsrv{000a0000}[100039e4].dll  - Undefined Reference
    RFile::Name(TDes16&) const                - Undefined Reference
    _ZNK5RFile4NameER6TDes16@efsrv{000a0000}[100039e4].dll  - Undefined Reference
    RFile::Read(TDes8&) const                 - Undefined Reference
    _ZNK5RFile4ReadER5TDes8@efsrv{000a0000}[100039e4].dll  - Undefined Reference
    RFile::Read(TDes8&, int) const            - Undefined Reference
    _ZNK5RFile4ReadER5TDes8i@efsrv{000a0000}[100039e4].dll  - Undefined Reference
    RFile::Seek(TSeek, int&) const            - Undefined Reference
    _ZNK5RFile4SeekE5TSeekRi@efsrv{000a0000}[100039e4].dll  - Undefined Reference
    RFile::Size(int&) const                   - Undefined Reference
    _ZNK5RFile4SizeERi@efsrv{000a0000}[100039e4].dll  - Undefined Reference
    RFile::FullName(TDes16&) const            - Undefined Reference
    _ZNK5RFile8FullNameER6TDes16@efsrv{000a0000}[100039e4].dll  - Undefined Reference
    TSize::operator ==(const TSize&) const    - Undefined Reference
    _ZNK5TSizeeqERKS_@euser{000a0000}[100039e5].dll  - Undefined Reference
    TSize::operator !=(const TSize&) const    - Undefined Reference
    _ZNK5TSizeneERKS_@euser{000a0000}[100039e5].dll  - Undefined Reference
    TDesC8::AtC(int) const                    - Undefined Reference
    _ZNK6TDesC83AtCEi@euser{000a0000}[100039e5].dll  - Undefined Reference
    TDesC8::Ptr() const                       - Undefined Reference
    _ZNK6TDesC83PtrEv@euser{000a0000}[100039e5].dll  - Undefined Reference
    TDesC8::Match(const TDesC8&) const        - Undefined Reference
    _ZNK6TDesC85MatchERKS_@euser{000a0000}[100039e5].dll  - Undefined Reference
    TDesC8::AllocL() const                    - Undefined Reference
    _ZNK6TDesC86AllocLEv@euser{000a0000}[100039e5].dll  - Undefined Reference
    TDesC8::AllocLC() const                   - Undefined Reference
    _ZNK6TDesC87AllocLCEv@euser{000a0000}[100039e5].dll  - Undefined Reference
    TDesC8::Compare(const TDesC8&) const      - Undefined Reference
    _ZNK6TDesC87CompareERKS_@euser{000a0000}[100039e5].dll  - Undefined Reference
    RThread::Rendezvous(TRequestStatus&) const  - Undefined Reference
    _ZNK7RThread10RendezvousER14TRequestStatus@euser{000a0000}[100039e5].dll  - Undefined Reference
    RThread::Id() const                       - Undefined Reference
    _ZNK7RThread2IdEv@euser{000a0000}[100039e5].dll  - Undefined Reference
    RThread::Logon(TRequestStatus&) const     - Undefined Reference
    _ZNK7RThread5LogonER14TRequestStatus@euser{000a0000}[100039e5].dll  - Undefined Reference
    RThread::Resume() const                   - Undefined Reference
    _ZNK7RThread6ResumeEv@euser{000a0000}[100039e5].dll  - Undefined Reference
    RThread::Process(RProcess&) const         - Undefined Reference
    _ZNK7RThread7ProcessER8RProcess@euser{000a0000}[100039e5].dll  - Undefined Reference
    TDesC16::Mid(int, int) const              - Undefined Reference
    _ZNK7TDesC163MidEii@euser{000a0000}[100039e5].dll  - Undefined Reference
    TDesC16::Ptr() const                      - Undefined Reference
    _ZNK7TDesC163PtrEv@euser{000a0000}[100039e5].dll  - Undefined Reference
    TDesC16::Left(int) const                  - Undefined Reference
    _ZNK7TDesC164LeftEi@euser{000a0000}[100039e5].dll  - Undefined Reference
    TDesC16::Alloc() const                    - Undefined Reference
    _ZNK7TDesC165AllocEv@euser{000a0000}[100039e5].dll  - Undefined Reference
    TDesC16::Match(const TDesC16&) const      - Undefined Reference
    _ZNK7TDesC165MatchERKS_@euser{000a0000}[100039e5].dll  - Undefined Reference
    TDesC16::Right(int) const                 - Undefined Reference
    _ZNK7TDesC165RightEi@euser{000a0000}[100039e5].dll  - Undefined Reference
    TDesC16::AllocL() const                   - Undefined Reference
    _ZNK7TDesC166AllocLEv@euser{000a0000}[100039e5].dll  - Undefined Reference
    TDesC16::Locate(TChar) const              - Undefined Reference
    _ZNK7TDesC166LocateE5TChar@euser{000a0000}[100039e5].dll  - Undefined Reference
    TDesC16::MatchF(const TDesC16&) const     - Undefined Reference
    _ZNK7TDesC166MatchFERKS_@euser{000a0000}[100039e5].dll  - Undefined Reference
    TDesC16::AllocLC() const                  - Undefined Reference
    _ZNK7TDesC167AllocLCEv@euser{000a0000}[100039e5].dll  - Undefined Reference
    TDesC16::Compare(const TDesC16&) const    - Undefined Reference
    _ZNK7TDesC167CompareERKS_@euser{000a0000}[100039e5].dll  - Undefined Reference
    TDesC16::CompareF(const TDesC16&) const   - Undefined Reference
    _ZNK7TDesC168CompareFERKS_@euser{000a0000}[100039e5].dll  - Undefined Reference
    CPicture::GetCropInTwips(TMargins&) const  - Undefined Reference
    _ZNK8CPicture14GetCropInTwipsER8TMargins@gdi{000a0000}[10003b15].dll  - Undefined Reference
    CPicture::GetSizeInTwips(TSize&) const    - Undefined Reference
    _ZNK8CPicture14GetSizeInTwipsER5TSize@gdi{000a0000}[10003b15].dll  - Undefined Reference
    CPicture::LineBreakPossible(unsigned, int, int) const  - Undefined Reference
    _ZNK8CPicture17LineBreakPossibleEjii@gdi{000a0000}[10003b15].dll  - Undefined Reference
    CPicture::StoreL(CStreamStore&) const     - Undefined Reference
    _ZNK8CPicture6StoreLER12CStreamStore@gdi{000a0000}[10003b15].dll  - Undefined Reference
    RProcess::Rendezvous(TRequestStatus&) const  - Undefined Reference
    _ZNK8RProcess10RendezvousER14TRequestStatus@euser{000a0000}[100039e5].dll  - Undefined Reference
    RProcess::DoHasCapability(TCapability, const char*) const  - Undefined Reference
    _ZNK8RProcess15DoHasCapabilityE11TCapabilityPKc@euser{000a0000}[100039e5].dll  - Undefined Reference
    TUidType::IsValid() const                 - Undefined Reference
    _ZNK8TUidType7IsValidEv@euser{000a0000}[100039e5].dll  - Undefined Reference
    TUidType::operator [](int) const          - Undefined Reference
    _ZNK8TUidTypeixEi@euser{000a0000}[100039e5].dll  - Undefined Reference
    TDataType::ExternalizeL(RWriteStream&) const  - Undefined Reference
    _ZNK9TDataType12ExternalizeLER12RWriteStream@apmime{000a0000}[10003a1a].dll  - Undefined Reference
    TDataType::Des8() const                   - Undefined Reference
    _ZNK9TDataType4Des8Ev@apmime{000a0000}[10003a1a].dll  - Undefined Reference
    TDataType::operator ==(const TDataType&) const  - Undefined Reference
    _ZNK9TDataTypeeqERKS_@apmime{000a0000}[10003a1a].dll  - Undefined Reference
    typeinfo for CFbsBitmap                   - Undefined Reference
    _ZTI10CFbsBitmap@fbscli{000a0000}[10003a15].dll  - Undefined Reference
    typeinfo for CApaDoorBase                 - Undefined Reference
    _ZTI12CApaDoorBase@apparc{000a0000}[10003a3d].dll  - Undefined Reference
    typeinfo for CArrayFixBase                - Undefined Reference
    _ZTI13CArrayFixBase@euser{000a0000}[100039e5].dll  - Undefined Reference
    typeinfo for XLeaveException              - Undefined Reference
    _ZTI15XLeaveException@drtaeabi{000a0000}.dll  - Undefined Reference
    typeinfo for CApaAppServiceInfoArray      - Undefined Reference
    _ZTI23CApaAppServiceInfoArray@apparc{000a0000}[10003a3d].dll  - Undefined Reference
    typeinfo for CBase                        - Undefined Reference
    _ZTI5CBase@euser{000a0000}[100039e5].dll  - Undefined Reference
    typeinfo for CActive                      - Undefined Reference
    _ZTI7CActive@euser{000a0000}[100039e5].dll  - Undefined Reference
    typeinfo for TBufBuf                      - Undefined Reference
    _ZTI7TBufBuf@estor{000a0000}[10003b0d].dll  - Undefined Reference
    typeinfo for CPicture                     - Undefined Reference
    _ZTI8CPicture@gdi{000a0000}[10003b15].dll  - Undefined Reference
    vtable for CApaAppServiceInfoArray        - Undefined Reference
    _ZTV23CApaAppServiceInfoArray@apparc{000a0000}[10003a3d].dll  - Undefined Reference
    vtable for __cxxabiv1::__class_type_info  - Undefined Reference
    _ZTVN10__cxxabiv117__class_type_infoE@drtaeabi{000a0000}.dll  - Undefined Reference
    vtable for __cxxabiv1::__si_class_type_info  - Undefined Reference
    _ZTVN10__cxxabiv120__si_class_type_infoE@drtaeabi{000a0000}.dll  - Undefined Reference
    vtable for __cxxabiv1::__vmi_class_type_info  - Undefined Reference
    _ZTVN10__cxxabiv121__vmi_class_type_infoE@drtaeabi{000a0000}.dll  - Undefined Reference
    operator delete (void*)                   - Undefined Reference
    _ZdlPv@scppnwdl{000a0000}.dll             - Undefined Reference
    __ARM_ll_cmpu                             - Undefined Reference
    __ARM_ll_cmpu@drtrvct2_2{000a0000}.dll    - Undefined Reference
    __aeabi_idivmod                           - Undefined Reference
    __aeabi_idivmod@drtaeabi{000a0000}.dll    - Undefined Reference
    __aeabi_memcpy4                           - Undefined Reference
    __aeabi_memcpy4@drtaeabi{000a0000}.dll    - Undefined Reference
    __aeabi_unwind_cpp_pr0                    - Undefined Reference
    __aeabi_unwind_cpp_pr0@drtaeabi{000a0000}.dll  - Undefined Reference
    __aeabi_unwind_cpp_pr1                    - Undefined Reference
    __aeabi_unwind_cpp_pr1@drtaeabi{000a0000}.dll  - Undefined Reference
    __cxa_begin_catch                         - Undefined Reference
    __cxa_begin_catch@drtaeabi{000a0000}.dll  - Undefined Reference
    __cxa_call_unexpected                     - Undefined Reference
    __cxa_call_unexpected@drtaeabi{000a0000}.dll  - Undefined Reference
    __cxa_end_catch                           - Undefined Reference
    __cxa_end_catch@drtaeabi{000a0000}.dll    - Undefined Reference
    __cxa_end_cleanup                         - Undefined Reference
    __cxa_end_cleanup@drtaeabi{000a0000}.dll  - Undefined Reference
    __cxa_pure_virtual                        - Undefined Reference
    __cxa_pure_virtual@drtaeabi{000a0000}.dll  - Undefined Reference
    _fp_init                                  - Undefined Weak Reference
    run_static_dtors                          - Undefined Weak Reference
    Image$$ER_RO$$Base                       0x00008000   Number         0  anon$$obj.o(linker$$defined$$symbols)
    _E32Dll                                  0x00008000   ARM Code      40  uc_dll_.o(.emb_text)
    Symbian$$CPP$$Exception$$Descriptor      0x00008014   Data           0  uc_dll_.o(.emb_text)
    __cpp_initialize__aeabi_                 0x00008028   ARM Code      72  ucppinit_aeabi.o(.emb_text)
    std::nothrow                             0x00008070   ARM Code       0  ucppinit_aeabi.o(.emb_text)
    __PLT                                    0x00008070   ARM Code       0  anon$$obj.o(.plt)
    CApaSystemControl::CreateL()             0x00008cb9   Thumb Code   120  APGCTL.o(.text)
    CApaSystemControl::Type() const          0x00008d31   Thumb Code    18  APGCTL.o(.text)
    CApaSystemControl::FileName() const      0x00008d43   Thumb Code    14  APGCTL.o(.text)
    CApaSystemControl::Icon() const          0x00008d51   Thumb Code     4  APGCTL.o(.text)
    CApaSystemControl::Caption() const       0x00008d55   Thumb Code    20  APGCTL.o(.text)
    CApaSystemControl::ShortCaption() const  0x00008d69   Thumb Code    30  APGCTL.o(.text)
    CApaSystemControl::ConstructL(const TDesC16&, TUidType) 0x00008d87   Thumb Code   256  APGCTL.o(.text)
    CApaSystemControl::CApaSystemControl(RFs&) 0x00008e87   Thumb Code    50  APGCTL.o(.text)
    CApaSystemControl::CApaSystemControl__sub_object(RFs&) 0x00008e87   Thumb Code     0  APGCTL.o(.text)
    CApaSystemControl::NewL(RFs&, const TDesC16&, TUidType) 0x00008eb9   Thumb Code    60  APGCTL.o(.text)
    CApaSystemControl::~CApaSystemControl()  0x00008ef5   Thumb Code    44  APGCTL.o(.text)
    CApaSystemControl::~CApaSystemControl__sub_object() 0x00008ef5   Thumb Code     0  APGCTL.o(.text)
    CApaSystemControl::~CApaSystemControl__deallocating() 0x00008f21   Thumb Code    16  APGCTL.o(.text)
    CApaSystemControlList::PreviousControl(const CApaSystemControl*) const 0x00008f31   Thumb Code    24  APGCTL.o(.text)
    CApaSystemControlList::Control(TUid) const 0x00008f49   Thumb Code    40  APGCTL.o(.text)
    CApaSystemControlList::UpdateL()         0x00008f71   Thumb Code   452  APGCTL.o(.text)
    CApaSystemControlList::CApaSystemControlList(RFs&) 0x00009135   Thumb Code     8  APGCTL.o(.text)
    CApaSystemControlList::CApaSystemControlList__sub_object(RFs&) 0x00009135   Thumb Code     0  APGCTL.o(.text)
    CApaSystemControlList::NewL(RFs&)        0x0000913d   Thumb Code    36  APGCTL.o(.text)
    CApaSystemControlList::~CApaSystemControlList() 0x00009161   Thumb Code    40  APGCTL.o(.text)
    CApaSystemControlList::~CApaSystemControlList__sub_object() 0x00009161   Thumb Code     0  APGCTL.o(.text)
    CApaSystemControlList::~CApaSystemControlList__deallocating() 0x00009189   Thumb Code    16  APGCTL.o(.text)
    CApaSystemControlList::Count() const     0x00009199   Thumb Code    18  APGCTL.o(.text)
    CApaSystemControlList::Index(TUid) const 0x000091ab   Thumb Code    48  APGCTL.o(.text)
    CApaSystemControlList::Control(int) const 0x000091db   Thumb Code    32  APGCTL.o(.text)
    CApaDoor::ReadStreamDictionaryLC(const CStreamStore&, TStreamId) 0x00009205   Thumb Code    44  APGDOOR.o(.text)
    CApaDoor::AppUidFromStreamL() const      0x00009231   Thumb Code    38  APGDOOR.o(.text)
    CApaDoor::SetFormatToIconL()             0x00009257   Thumb Code   196  APGDOOR.o(.text)
    CApaDoor::ConstructL()                   0x0000931b   Thumb Code    88  APGDOOR.o(.text)
    CApaDoor::CApaDoor(RFs&, CApaDocument&, const TSize&) 0x00009373   Thumb Code    34  APGDOOR.o(.text)
    CApaDoor::CApaDoor__sub_object(RFs&, CApaDocument&, const TSize&) 0x00009373   Thumb Code     0  APGDOOR.o(.text)
    CApaDoor::NewLC(RFs&, CApaDocument&, const TSize&) 0x00009395   Thumb Code    66  APGDOOR.o(.text)
    CApaDoor::NewL(RFs&, CApaDocument&, const TSize&) 0x000093d7   Thumb Code    16  APGDOOR.o(.text)
    CApaDoor::RestoreDocL(const CPersistentStore&) 0x000093e7   Thumb Code   108  APGDOOR.o(.text)
    CApaDoor::SetFormatToGlassL()            0x00009453   Thumb Code   110  APGDOOR.o(.text)
    CApaDoor::InternalizeStateStreamL(const CStreamStore&, const CStreamDictionary&, TSize) 0x000094c1   Thumb Code   144  APGDOOR.o(.text)
    CApaDoor::RestoreL(const CStreamStore&, TStreamId) 0x00009551   Thumb Code   236  APGDOOR.o(.text)
    CApaDoor::CApaDoor(RFs&, CApaProcess&)   0x0000963d   Thumb Code    52  APGDOOR.o(.text)
    CApaDoor::CApaDoor__sub_object(RFs&, CApaProcess&) 0x0000963d   Thumb Code     0  APGDOOR.o(.text)
    CApaDoor::NewL(RFs&, const CStreamStore&, TStreamId, CApaProcess&) 0x00009671   Thumb Code    48  APGDOOR.o(.text)
    CApaDoor::SetFormatToTemporaryIconL(int) 0x000096a1   Thumb Code    60  APGDOOR.o(.text)
    CApaDoor::DocumentL(int)                 0x000096dd   Thumb Code    46  APGDOOR.o(.text)
    CApaDoor::AppUidL() const                0x0000970b   Thumb Code    62  APGDOOR.o(.text)
    CApaDoor::CopyStoreL(const CEmbeddedStore&, RWriteStream&) 0x00009749   Thumb Code    72  APGDOOR.o(.text)
    CApaDoor::StoreDocL(CPersistentStore&) const 0x00009791   Thumb Code    54  APGDOOR.o(.text)
    CApaDoor::ExternalizeStateStreamL(CStreamStore&, CStreamDictionary&) const 0x000097c7   Thumb Code   128  APGDOOR.o(.text)
    CApaDoor::StoreL(CStreamStore&) const    0x00009847   Thumb Code   184  APGDOOR.o(.text)
    CApaDoor::~CApaDoor()                    0x000098ff   Thumb Code    76  APGDOOR.o(.text)
    CApaDoor::~CApaDoor__sub_object()        0x000098ff   Thumb Code     0  APGDOOR.o(.text)
    CApaDoor::~CApaDoor__deallocating()      0x0000994b   Thumb Code    16  APGDOOR.o(.text)
    CApaDoor::Draw(CGraphicsContext&, const TPoint&, const TRect&, MGraphicsDeviceMap*) const 0x0000995b   Thumb Code    20  APGDOOR.o(.text)
    HBufBuf::NewL(CBufBase&, int, int)       0x0000996f   Thumb Code    38  APGDOOR.o(.text)
    CApaDoor::DetachFromStoreL(CPicture::TDetach) 0x00009995   Thumb Code   156  APGDOOR.o(.text)
    CApaDoor::GetOriginalSizeInTwips(TSize&) const 0x00009a31   Thumb Code     8  APGDOOR.o(.text)
    CApaDoor::SetScaleFactor(int, int)       0x00009a39   Thumb Code     8  APGDOOR.o(.text)
    CApaDoor::SetCropInTwips(const TMargins&) 0x00009a41   Thumb Code     8  APGDOOR.o(.text)
    CApaDoor::Capability() const             0x00009a49   Thumb Code     8  APGDOOR.o(.text)
    CApaDoor::GetCropInTwips(TMargins&) const 0x00009a51   Thumb Code     8  APGDOOR.o(.text)
    CApaDoor::ScaleFactorWidth() const       0x00009a59   Thumb Code     8  APGDOOR.o(.text)
    CApaDoor::ScaleFactorHeight() const      0x00009a61   Thumb Code     8  APGDOOR.o(.text)
    CApaDoor::SetIconSizeInTwips(TSize)      0x00009a69   Thumb Code    26  APGDOOR.o(.text)
    CApaDoor::ExternalizeL(RWriteStream&) const 0x00009a83   Thumb Code    10  APGDOOR.o(.text)
    CApaDoor::GlassDoorSize() const          0x00009a8d   Thumb Code   146  APGDOOR.o(.text)
    TApaPictureFactory::TApaPictureFactory(CApaProcess*) 0x00009b1f   Thumb Code    24  APGDOOR.o(.text)
    TApaPictureFactory::TApaPictureFactory__sub_object(CApaProcess*) 0x00009b1f   Thumb Code     0  APGDOOR.o(.text)
    TApaPictureFactory::NewPictureL(TPictureHeader&, const CStreamStore&) const 0x00009b37   Thumb Code   110  APGDOOR.o(.text)
    TApaPictureFactory::TApaPictureFactory() 0x00009ba5   Thumb Code    22  APGDOOR.o(.text)
    TApaPictureFactory::TApaPictureFactory__sub_object() 0x00009ba5   Thumb Code     0  APGDOOR.o(.text)
    HBufBuf::DoRelease()                     0x00009bbb   Thumb Code     8  APGDOOR.o(.text)
    CApaAIFCaption::InternalizeL(RReadStream&) 0x00009bd5   Thumb Code    36  APGICNFL.o(.text)
    CApaMaskedBitmap::InternalizeL(RReadStream&) 0x00009bf9   Thumb Code    48  APGICNFL.o(.text)
    CApaAIFCaption::ExternalizeL(RWriteStream&) const 0x00009c29   Thumb Code    24  APGICNFL.o(.text)
    CApaMaskedBitmap::ExternalizeL(RWriteStream&) const 0x00009c41   Thumb Code    24  APGICNFL.o(.text)
    CApaAIFViewData::ExternalizeL(RWriteStream&) const 0x00009c59   Thumb Code   112  APGICNFL.o(.text)
    CApaAppInfoFile::TCaptionHeader::InternalizeL(RReadStream&) 0x00009cc9   Thumb Code    24  APGICNFL.o(.text)
    CApaAppInfoFile::TIconHeader::InternalizeL(RReadStream&) 0x00009ce1   Thumb Code    26  APGICNFL.o(.text)
    CApaAppInfoFile::TDataTypeHeader::InternalizeL(RReadStream&) 0x00009cfb   Thumb Code    26  APGICNFL.o(.text)
    CApaAppInfoFile::TViewDataHeader::InternalizeL(RReadStream&) 0x00009d15   Thumb Code    12  APGICNFL.o(.text)
    CApaAppInfoFile::TFileOwnershipInfoHeader::InternalizeL(RReadStream&) 0x00009d21   Thumb Code    14  APGICNFL.o(.text)
    CApaMaskedBitmap::ConstructL()           0x00009d2f   Thumb Code    32  APGICNFL.o(.text)
    CApaMaskedBitmap::CApaMaskedBitmap()     0x00009d4f   Thumb Code    12  APGICNFL.o(.text)
    CApaMaskedBitmap::CApaMaskedBitmap__sub_object() 0x00009d4f   Thumb Code     0  APGICNFL.o(.text)
    CApaMaskedBitmap::NewLC()                0x00009d5b   Thumb Code    28  APGICNFL.o(.text)
    CApaAIFCaption::CApaAIFCaption()         0x00009d77   Thumb Code     6  APGICNFL.o(.text)
    CApaAIFCaption::CApaAIFCaption__sub_object() 0x00009d77   Thumb Code     0  APGICNFL.o(.text)
    CApaAIFViewData::InternalizeL(RReadStream&) 0x00009d7d   Thumb Code   188  APGICNFL.o(.text)
    CApaResourceFileWriterBase::RBufferSink::Close() 0x00009e39   Thumb Code    10  APGICNFL.o(.text)
    CApaAppInfoFile::TCaptionHeader::ExternalizeL(RWriteStream&) const 0x00009e43   Thumb Code    24  APGICNFL.o(.text)
    CApaAppInfoFile::TIconHeader::ExternalizeL(RWriteStream&) const 0x00009e5b   Thumb Code    28  APGICNFL.o(.text)
    CApaAppInfoFile::TDataTypeHeader::ExternalizeL(RWriteStream&) const 0x00009e77   Thumb Code    28  APGICNFL.o(.text)
    CApaAppInfoFile::TViewDataHeader::ExternalizeL(RWriteStream&) const 0x00009e93   Thumb Code    14  APGICNFL.o(.text)
    CApaAppInfoFile::TFileOwnershipInfoHeader::ExternalizeL(RWriteStream&) const 0x00009ea1   Thumb Code    14  APGICNFL.o(.text)
    CApaMaskedBitmap::Mask() const           0x00009eaf   Thumb Code     4  APGICNFL.o(.text)
    CApaMaskedBitmap::NewL(const CApaMaskedBitmap*) 0x00009eb3   Thumb Code    70  APGICNFL.o(.text)
    CApaMaskedBitmap::~CApaMaskedBitmap()    0x00009ef9   Thumb Code    28  APGICNFL.o(.text)
    CApaMaskedBitmap::~CApaMaskedBitmap__sub_object() 0x00009ef9   Thumb Code     0  APGICNFL.o(.text)
    CApaMaskedBitmap::~CApaMaskedBitmap__deallocating() 0x00009f15   Thumb Code    16  APGICNFL.o(.text)
    CApaMaskedBitmap::SetRomBitmapL(unsigned char*) 0x00009f25   Thumb Code    32  APGICNFL.o(.text)
    CApaMaskedBitmap::SetMaskBitmap(CFbsBitmap*) 0x00009f45   Thumb Code    22  APGICNFL.o(.text)
    CApaResourceFileWriterBase::CApaResourceFileWriterBase__sub_object() 0x00009f5b   Thumb Code     6  APGICNFL.o(.text)
    CApaResourceFileWriterBase::MDataSink::Reset(int&) 0x00009f61   Thumb Code    12  APGICNFL.o(.text)
    CApaResourceFileWriterBase::MDataSink::WriteRunLengthL(int) 0x00009f6d   Thumb Code    52  APGICNFL.o(.text)
    CApaResourceFileWriterBase::MDataSink::FlushL(int) 0x00009fa1   Thumb Code   118  APGICNFL.o(.text)
    CApaResourceFileWriterBase::RBufferSink::FlushAndGetAndResetL(int&, RBuf8&) 0x0000a017   Thumb Code    34  APGICNFL.o(.text)
    CApaResourceFileWriterBase::MDataSink::WriteInCompressedUnicodeFormatL(int, const TDesC8&, int) 0x0000a039   Thumb Code   102  APGICNFL.o(.text)
    CApaResourceFileWriterBase::MDataSink::WriteBufferL(const TDesC8&) 0x0000a09f   Thumb Code    58  APGICNFL.o(.text)
    CApaResourceFileWriterBase::WriteLittleEndianUint16L(CApaResourceFileWriterBase::MDataSink&, unsigned) const 0x0000a0d9   Thumb Code    68  APGICNFL.o(.text)
    CApaResourceFileWriterBase::WriteBufferL(CApaResourceFileWriterBase::MDataSink&, const TDesC8&) const 0x0000a11d   Thumb Code     6  APGICNFL.o(.text)
    CApaResourceFileWriterBase::WriteUint8L(CApaResourceFileWriterBase::MDataSink&, unsigned) const 0x0000a123   Thumb Code    34  APGICNFL.o(.text)
    CApaResourceFileWriterBase::WriteUidTypeL(CApaResourceFileWriterBase::MDataSink&, TUid, TUid) const 0x0000a145   Thumb Code    42  APGICNFL.o(.text)
    CApaResourceFileWriterBase::RBufferSink::ConstructLC() 0x0000a16f   Thumb Code    22  APGICNFL.o(.text)
    CApaResourceFileWriterBase::MDataSink::MDataSink__sub_object(CApaResourceFileWriterBase::RBufferSink*) 0x0000a185   Thumb Code    14  APGICNFL.o(.text)
    CApaResourceFileWriterBase::RBufferSink::RBufferSink(CApaResourceFileWriterBase::RBufferSink*) 0x0000a193   Thumb Code    20  APGICNFL.o(.text)
    CApaResourceFileWriterBase::RBufferSink::RBufferSink__sub_object(CApaResourceFileWriterBase::RBufferSink*) 0x0000a193   Thumb Code     0  APGICNFL.o(.text)
    CApaResourceFileWriterBase::MainResourceInCompiledFormatLC(int&, RBuf8&, int) const 0x0000a1a7   Thumb Code    92  APGICNFL.o(.text)
    CApaResourceFileWriterBase::DoGenerateFileContentsL(RBuf8&, TUid, TUid) const 0x0000a203   Thumb Code   296  APGICNFL.o(.text)
    CApaResourceFileWriterBase::MDataSink::WriteCompressedUnicodeRunL(int, const TDesC8&) 0x0000a32b   Thumb Code     4  APGICNFL.o(.text)
    CApaResourceFileWriterBase::AsCompressedUnicodeLC(const TDesC16&) 0x0000a32f   Thumb Code   154  APGICNFL.o(.text)
    CApaResourceFileWriterBase::MDataSink::NumberOfBytesWhenUncompressed() const 0x0000a3c9   Thumb Code    16  APGICNFL.o(.text)
    CApaResourceFileWriterBase::WriteTextL(CApaResourceFileWriterBase::MDataSink&, const TDesC16&) const 0x0000a3d9   Thumb Code   118  APGICNFL.o(.text)
    CApaResourceFileWriterBase::WriteText8L(CApaResourceFileWriterBase::MDataSink&, const TDesC8&) const 0x0000a44f   Thumb Code    28  APGICNFL.o(.text)
    CApaResourceFileWriterBase::WriteLittleEndianUint32L(CApaResourceFileWriterBase::MDataSink&, unsigned) const 0x0000a46b   Thumb Code    62  APGICNFL.o(.text)
    CApaResourceFileWriterBase::RBufferSink::DoWriteBufferL(const TDesC8&) 0x0000a4a9   Thumb Code    48  APGICNFL.o(.text)
    CApaRegistrationResourceFileWriter::ConstructL(const TDesC16&) 0x0000a4d9   Thumb Code    36  APGICNFL.o(.text)
    CApaRegistrationResourceFileWriter::CApaRegistrationResourceFileWriter(TUid, unsigned) 0x0000a4fd   Thumb Code    66  APGICNFL.o(.text)
    CApaRegistrationResourceFileWriter::CApaRegistrationResourceFileWriter__sub_object(TUid, unsigned) 0x0000a4fd   Thumb Code     0  APGICNFL.o(.text)
    CApaRegistrationResourceFileWriter::NewL(TUid, const TDesC16&, unsigned) 0x0000a53f   Thumb Code    44  APGICNFL.o(.text)
    CApaRegistrationResourceFileWriter::~CApaRegistrationResourceFileWriter() 0x0000a56b   Thumb Code   120  APGICNFL.o(.text)
    CApaRegistrationResourceFileWriter::~CApaRegistrationResourceFileWriter__sub_object() 0x0000a56b   Thumb Code     0  APGICNFL.o(.text)
    CApaRegistrationResourceFileWriter::~CApaRegistrationResourceFileWriter__deallocating() 0x0000a5e3   Thumb Code    16  APGICNFL.o(.text)
    CApaRegistrationResourceFileWriter::AppUid() const 0x0000a5f3   Thumb Code     4  APGICNFL.o(.text)
    CApaRegistrationResourceFileWriter::GenerateFileContentsL(RBuf8&) const 0x0000a5f7   Thumb Code    14  APGICNFL.o(.text)
    CApaRegistrationResourceFileWriter::SetLocalisableResourceFileL(const TDesC16&) 0x0000a605   Thumb Code    22  APGICNFL.o(.text)
    CApaRegistrationResourceFileWriter::SetAppIsHiddenL(int) 0x0000a61b   Thumb Code    12  APGICNFL.o(.text)
    CApaRegistrationResourceFileWriter::SetEmbeddabilityL(TApaAppCapability::TEmbeddability) 0x0000a627   Thumb Code     4  APGICNFL.o(.text)
    CApaRegistrationResourceFileWriter::SetSupportsNewFileL(int) 0x0000a62b   Thumb Code    12  APGICNFL.o(.text)
    CApaRegistrationResourceFileWriter::SetLaunchInBackgroundL(int) 0x0000a637   Thumb Code     4  APGICNFL.o(.text)
    CApaRegistrationResourceFileWriter::SetGroupNameL(const TDesC16&) 0x0000a63b   Thumb Code    22  APGICNFL.o(.text)
    CApaRegistrationResourceFileWriter::SetDefaultScreenNumberL(int) 0x0000a651   Thumb Code     4  APGICNFL.o(.text)
    CApaRegistrationResourceFileWriter::SetOpaqueDataL(const TDesC8&) 0x0000a655   Thumb Code    22  APGICNFL.o(.text)
    CApaRegistrationResourceFileWriter::AddDataTypeL(int, const TDesC8&) 0x0000a66b   Thumb Code    34  APGICNFL.o(.text)
    CApaRegistrationResourceFileWriter::AddFileOwnershipInfoL(const TDesC16&) 0x0000a68d   Thumb Code    32  APGICNFL.o(.text)
    CApaRegistrationResourceFileWriter::WriteDataTypeL(CApaResourceFileWriterBase::MDataSink&, const CApaRegistrationResourceFileWriter::SDataType&) const 0x0000a6ad   Thumb Code    26  APGICNFL.o(.text)
    CApaRegistrationResourceFileWriter::WriteFileOwnershipInfoL(CApaResourceFileWriterBase::MDataSink&, const CApaRegistrationResourceFileWriter::SFileOwnershipInfo&) const 0x0000a6c7   Thumb Code     4  APGICNFL.o(.text)
    CApaRegistrationResourceFileWriter::MainResourceInCompiledFormatL(CApaResourceFileWriterBase::MDataSink&) const 0x0000a6cb   Thumb Code   302  APGICNFL.o(.text)
    CApaRegistrationResourceFileWriter::SecondResourceL(int&) const 0x0000a7f9   Thumb Code     8  APGICNFL.o(.text)
    CApaLocalisableResourceFileWriter::ConstructL(const TDesC16&, const TDesC16&, const TDesC16&) 0x0000a801   Thumb Code    38  APGICNFL.o(.text)
    CApaLocalisableResourceFileWriter::CApaLocalisableResourceFileWriter(int) 0x0000a827   Thumb Code    26  APGICNFL.o(.text)
    CApaLocalisableResourceFileWriter::CApaLocalisableResourceFileWriter__sub_object(int) 0x0000a827   Thumb Code     0  APGICNFL.o(.text)
    CApaLocalisableResourceFileWriter::NewL(const TDesC16&, const TDesC16&, int, const TDesC16&) 0x0000a841   Thumb Code    48  APGICNFL.o(.text)
    CApaLocalisableResourceFileWriter::~CApaLocalisableResourceFileWriter() 0x0000a871   Thumb Code    40  APGICNFL.o(.text)
    CApaLocalisableResourceFileWriter::~CApaLocalisableResourceFileWriter__sub_object() 0x0000a871   Thumb Code     0  APGICNFL.o(.text)
    CApaLocalisableResourceFileWriter::~CApaLocalisableResourceFileWriter__deallocating() 0x0000a899   Thumb Code    28  APGICNFL.o(.text)
    CApaLocalisableResourceFileWriter::GenerateFileContentsL(RBuf8&) const 0x0000a8b5   Thumb Code    12  APGICNFL.o(.text)
    CApaLocalisableResourceFileWriter::SetIconFileL(const TDesC16&) 0x0000a8c1   Thumb Code    22  APGICNFL.o(.text)
    CApaLocalisableResourceFileWriter::WriteCaptionAndIconInfoL(CApaResourceFileWriterBase::MDataSink&, const CApaLocalisableResourceFileWriter::SCaptionAndIconInfo&) const 0x0000a8d7   Thumb Code    76  APGICNFL.o(.text)
    CApaLocalisableResourceFileWriter::MainResourceInCompiledFormatL(CApaResourceFileWriterBase::MDataSink&) const 0x0000a923   Thumb Code    66  APGICNFL.o(.text)
    CApaLocalisableResourceFileWriter::SecondResourceL(int&) const 0x0000a965   Thumb Code     6  APGICNFL.o(.text)
    CApaAppInfoFileReader::InternalizeL(RReadStream&) 0x0000a96b   Thumb Code   300  APGICNFL.o(.text)
    CApaAppInfoFile::ConstructL()            0x0000aa97   Thumb Code   118  APGICNFL.o(.text)
    CApaAppInfoFile::~CApaAppInfoFile()      0x0000ab0d   Thumb Code   278  APGICNFL.o(.text)
    CApaAppInfoFile::~CApaAppInfoFile__sub_object() 0x0000ab0d   Thumb Code     0  APGICNFL.o(.text)
    CApaAppInfoFile::CApaAppInfoFile(RFs&)   0x0000ac23   Thumb Code    22  APGICNFL.o(.text)
    CApaAppInfoFile::CApaAppInfoFile__sub_object(RFs&) 0x0000ac23   Thumb Code     0  APGICNFL.o(.text)
    CApaAppInfoFileReader::CApaAppInfoFileReader(RFs&) 0x0000ac39   Thumb Code    12  APGICNFL.o(.text)
    CApaAppInfoFileReader::CApaAppInfoFileReader__sub_object(RFs&) 0x0000ac39   Thumb Code     0  APGICNFL.o(.text)
    ForJavaMIDletInstaller::CheckInterimFormatFileNotCorruptL(RFile&) 0x0000ac45   Thumb Code   168  APGICNFL.o(.text)
    CApaAppInfoFileReader::ConstructL(const TDesC16&, TUid) 0x0000aced   Thumb Code   280  APGICNFL.o(.text)
    CApaAppInfoFileReader::NewLC(RFs&, const TDesC16&, TUid) 0x0000ae05   Thumb Code    40  APGICNFL.o(.text)
    ForJavaMIDletInstaller::GetJavaMIDletInfoL(RFs&, const TDesC16&, unsigned long&, unsigned long&) 0x0000ae2d   Thumb Code    26  APGICNFL.o(.text)
    CApaAppInfoFileWriter::ConstructL(const TDesC16&, TUid, TUid, unsigned long, int) 0x0000ae47   Thumb Code    90  APGICNFL.o(.text)
    CApaAppInfoFileWriter::CApaAppInfoFileWriter(RFs&) 0x0000aea1   Thumb Code    12  APGICNFL.o(.text)
    CApaAppInfoFileWriter::CApaAppInfoFileWriter__sub_object(RFs&) 0x0000aea1   Thumb Code     0  APGICNFL.o(.text)
    ForJavaMIDletInstaller::NewInterimFormatFileWriterLC(RFs&, const TDesC16&, TUid, unsigned long, int) 0x0000aead   Thumb Code    54  APGICNFL.o(.text)
    CApaAIFCaption::~CApaAIFCaption()        0x0000aee3   Thumb Code    22  APGICNFL.o(.text)
    CApaAIFCaption::~CApaAIFCaption__sub_object() 0x0000aee3   Thumb Code     0  APGICNFL.o(.text)
    CApaAIFCaption::~CApaAIFCaption__deallocating() 0x0000aef9   Thumb Code    16  APGICNFL.o(.text)
    CApaAIFCaption::ConstructL(TLanguage, const TDesC16&) 0x0000af09   Thumb Code    24  APGICNFL.o(.text)
    CApaAIFCaption::NewLC(TLanguage, const TDesC16&) 0x0000af21   Thumb Code    36  APGICNFL.o(.text)
    CApaAIFCaption::Language() const         0x0000af45   Thumb Code     4  APGICNFL.o(.text)
    CApaAIFCaption::Caption() const          0x0000af49   Thumb Code    34  APGICNFL.o(.text)
    CApaAIFViewData::CaptionL(TLanguage) const 0x0000af6b   Thumb Code   204  APGICNFL.o(.text)
    CApaAIFViewData::IconByIndexL(int) const 0x0000b037   Thumb Code    12  APGICNFL.o(.text)
    CApaAIFViewData::NumberOfIcons() const   0x0000b043   Thumb Code    16  APGICNFL.o(.text)
    CApaAIFViewData::ViewUid() const         0x0000b053   Thumb Code     4  APGICNFL.o(.text)
    CApaAIFViewData::ScreenMode() const      0x0000b057   Thumb Code     4  APGICNFL.o(.text)
    CApaAIFViewData::~CApaAIFViewData()      0x0000b05b   Thumb Code   106  APGICNFL.o(.text)
    CApaAIFViewData::~CApaAIFViewData__sub_object() 0x0000b05b   Thumb Code     0  APGICNFL.o(.text)
    CApaAIFViewData::~CApaAIFViewData__deallocating() 0x0000b0c5   Thumb Code    16  APGICNFL.o(.text)
    CApaAIFViewData::ConstructL()            0x0000b0d5   Thumb Code    34  APGICNFL.o(.text)
    CApaAIFViewData::CApaAIFViewData()       0x0000b0f7   Thumb Code     6  APGICNFL.o(.text)
    CApaAIFViewData::CApaAIFViewData__sub_object() 0x0000b0f7   Thumb Code     0  APGICNFL.o(.text)
    CApaAIFViewData::NewLC()                 0x0000b0fd   Thumb Code    28  APGICNFL.o(.text)
    CApaAIFViewData::AddIconIndexL(int)      0x0000b119   Thumb Code    36  APGICNFL.o(.text)
    CApaAIFViewData::ConstructL(const CApaAIFViewData&) 0x0000b13d   Thumb Code   240  APGICNFL.o(.text)
    CApaAIFViewData::NewLC(const CApaAIFViewData&) 0x0000b22d   Thumb Code    20  APGICNFL.o(.text)
    CApaAIFViewData::SetScreenMode(int)      0x0000b241   Thumb Code     4  APGICNFL.o(.text)
    CApaAIFViewData::AddCaptionL(TLanguage, const TDesC16&) 0x0000b245   Thumb Code    28  APGICNFL.o(.text)
    CApaAIFViewData::AddIconL(CApaMaskedBitmap&) 0x0000b261   Thumb Code    30  APGICNFL.o(.text)
    CApaAIFViewData::SetViewUid(TUid)        0x0000b27f   Thumb Code     4  APGICNFL.o(.text)
    CApaAIFViewData::LoadIconsL(const TDesC16&, unsigned) 0x0000b283   Thumb Code   126  APGICNFL.o(.text)
    CApaAppInfoFile::~CApaAppInfoFile__deallocating() 0x0000b301   Thumb Code    16  APGICNFL.o(.text)
    CApaAppInfoFileReader::NewL(RFs&, const TDesC16&, TUid) 0x0000b311   Thumb Code    16  APGICNFL.o(.text)
    CApaAppInfoFileReader::Capability(TDes8&) const 0x0000b321   Thumb Code    84  APGICNFL.o(.text)
    CApaAppInfoFileReader::CaptionL(TLanguage) 0x0000b375   Thumb Code   244  APGICNFL.o(.text)
    CApaAppInfoFileReader::StretchDrawL(CFbsBitmap*, CFbsBitmap*, TSize) 0x0000b469   Thumb Code   100  APGICNFL.o(.text)
    CApaAppInfoFileReader::CreateMaskedBitmapByIndexLC(int) 0x0000b4cd   Thumb Code   200  APGICNFL.o(.text)
    CApaAppInfoFileReader::CreateMaskedBitmapL(int) 0x0000b595   Thumb Code   156  APGICNFL.o(.text)
    CApaAppInfoFileReader::NumberOfBitmaps() const 0x0000b631   Thumb Code     6  APGICNFL.o(.text)
    CApaAppInfoFileReader::DataTypesSupportedL(CArrayFix<TDataTypeWithPriority>&) const 0x0000b637   Thumb Code   124  APGICNFL.o(.text)
    CApaAppInfoFileReader::GetViewsL(CArrayPtr<CApaAIFViewData>&) const 0x0000b6b3   Thumb Code   132  APGICNFL.o(.text)
    CApaAppInfoFileReader::GetOwnedFilesL(CDesC16Array&) const 0x0000b737   Thumb Code   100  APGICNFL.o(.text)
    CApaAppInfoFileReader::~CApaAppInfoFileReader() 0x0000b79b   Thumb Code    28  APGICNFL.o(.text)
    CApaAppInfoFileReader::~CApaAppInfoFileReader__sub_object() 0x0000b79b   Thumb Code     0  APGICNFL.o(.text)
    CApaAppInfoFileReader::~CApaAppInfoFileReader__deallocating() 0x0000b7b7   Thumb Code    16  APGICNFL.o(.text)
    CApaAppInfoFileReader::AddIconHeadersL(const TDesC16&, long, int) 0x0000b7c7   Thumb Code    96  APGICNFL.o(.text)
    CApaAppInfoFileReader::LoadAifFileVersionTwoL(const TDesC16&, TUid) 0x0000b827   Thumb Code   696  APGICNFL.o(.text)
    CApaAppInfoFileWriter::NewLC(RFs&, const TDesC16&, TUid) 0x0000badf   Thumb Code    50  APGICNFL.o(.text)
    CApaAppInfoFileWriter::SetCapability(const TDesC8&) 0x0000bb11   Thumb Code    88  APGICNFL.o(.text)
    CApaAppInfoFileWriter::AddCaptionL(TLanguage, const TDesC16&) 0x0000bb69   Thumb Code   112  APGICNFL.o(.text)
    CApaAppInfoFileWriter::AddIconL(CApaMaskedBitmap&) 0x0000bbd9   Thumb Code    94  APGICNFL.o(.text)
    CApaAppInfoFileWriter::AddIconL(const TDesC16&) 0x0000bc37   Thumb Code    56  APGICNFL.o(.text)
    CApaAppInfoFileWriter::AddDataTypeL(const TDataTypeWithPriority&) 0x0000bc6f   Thumb Code   104  APGICNFL.o(.text)
    CApaAppInfoFileWriter::AddViewL(TUid, int) 0x0000bcd7   Thumb Code    34  APGICNFL.o(.text)
    CApaAppInfoFileWriter::AddViewL(TUid)    0x0000bcf9   Thumb Code     4  APGICNFL.o(.text)
    CApaAppInfoFileWriter::AddViewCaptionL(TLanguage, const TDesC16&, TUid) 0x0000bcfd   Thumb Code    70  APGICNFL.o(.text)
    CApaAppInfoFileWriter::AddViewIconL(CApaMaskedBitmap&, TUid) 0x0000bd43   Thumb Code    68  APGICNFL.o(.text)
    CApaAppInfoFileWriter::StoreViewL(TUid)  0x0000bd87   Thumb Code   100  APGICNFL.o(.text)
    CApaAppInfoFileWriter::AddOwnedFileL(const TDesC16&) 0x0000bdeb   Thumb Code   106  APGICNFL.o(.text)
    CApaAppInfoFileWriter::ExternalizeL(RWriteStream&) const 0x0000be55   Thumb Code   180  APGICNFL.o(.text)
    CApaAppInfoFileWriter::StoreL()          0x0000bf09   Thumb Code    74  APGICNFL.o(.text)
    CApaAppInfoFileWriter::~CApaAppInfoFileWriter() 0x0000bf53   Thumb Code   270  APGICNFL.o(.text)
    CApaAppInfoFileWriter::~CApaAppInfoFileWriter__sub_object() 0x0000bf53   Thumb Code     0  APGICNFL.o(.text)
    CApaAppInfoFileWriter::~CApaAppInfoFileWriter__deallocating() 0x0000c061   Thumb Code    16  APGICNFL.o(.text)
    CApaAppCaptionFileReader::CApaAppCaptionFileReader(RFs&, const TDesC16&) 0x0000c071   Thumb Code   118  APGICNFL.o(.text)
    CApaAppCaptionFileReader::CApaAppCaptionFileReader__sub_object(RFs&, const TDesC16&) 0x0000c071   Thumb Code     0  APGICNFL.o(.text)
    CApaAppCaptionFileReader::GetCaptionsL(TBuf<(int)256>&, TBuf<(int)256>&) 0x0000c0e7   Thumb Code   148  APGICNFL.o(.text)
    AppInfoFileUtils::GetAifFileName(const RFs&, TDes16&) 0x0000c17b   Thumb Code    38  APGICNFL.o(.text)
    AppInfoFileUtils::GetAifFileNameL(const RFs&, const TDesC16&, TDes16&) 0x0000c1a1   Thumb Code    64  APGICNFL.o(.text)
    Panic(TApgPanic)                         0x0000c275   Thumb Code    12  APGSTD.o(.text)
    TApaTask::TApaTask(RWsSession&)          0x0000c285   Thumb Code     8  APGTASK.o(.text)
    TApaTask::TApaTask__sub_object(RWsSession&) 0x0000c285   Thumb Code     0  APGTASK.o(.text)
    TApaTask::SetWgId(int)                   0x0000c28d   Thumb Code     4  APGTASK.o(.text)
    TApaTask::WgId() const                   0x0000c291   Thumb Code     4  APGTASK.o(.text)
    TApaTask::Exists() const                 0x0000c295   Thumb Code    14  APGTASK.o(.text)
    TApaTask::ThreadId() const               0x0000c2a3   Thumb Code    40  APGTASK.o(.text)
    TApaTask::SendSystemEvent(TApaSystemEvent, TEventCode) 0x0000c2cb   Thumb Code    28  APGTASK.o(.text)
    TApaTask::SendSystemEvent(TApaSystemEvent) 0x0000c2e7   Thumb Code     6  APGTASK.o(.text)
    TApaTask::BringToForeground()            0x0000c2ed   Thumb Code    22  APGTASK.o(.text)
    TApaTask::SendToBackground()             0x0000c303   Thumb Code    14  APGTASK.o(.text)
    TApaTask::EndTask()                      0x0000c311   Thumb Code    44  APGTASK.o(.text)
    TApaTask::KillTask()                     0x0000c33d   Thumb Code    72  APGTASK.o(.text)
    TApaTask::SendKey(const TKeyEvent&)      0x0000c385   Thumb Code    36  APGTASK.o(.text)
    TApaTask::SendKey(int, int)              0x0000c3a9   Thumb Code    18  APGTASK.o(.text)
    TApaTask::SendMessage(TUid, const TDesC8&) 0x0000c3bb   Thumb Code    14  APGTASK.o(.text)
    TApaTask::CheckSwitchFile() const        0x0000c3c9   Thumb Code   112  APGTASK.o(.text)
    TApaTask::SwitchOpenFile(const TDesC16&) 0x0000c439   Thumb Code    50  APGTASK.o(.text)
    TApaTask::SwitchCreateFile(const TDesC16&) 0x0000c46b   Thumb Code    50  APGTASK.o(.text)
    TApaTaskList::TApaTaskList(RWsSession&)  0x0000c49d   Thumb Code     4  APGTASK.o(.text)
    TApaTaskList::TApaTaskList__sub_object(RWsSession&) 0x0000c49d   Thumb Code     0  APGTASK.o(.text)
    TApaTaskList::FindByPosL(TApaTask&, int) 0x0000c4a1   Thumb Code   162  APGTASK.o(.text)
    TApaTaskList::FindByPos(int)             0x0000c543   Thumb Code    74  APGTASK.o(.text)
    TApaTaskList::FindApp(const TDesC16&)    0x0000c58d   Thumb Code    82  APGTASK.o(.text)
    TApaTaskList::FindDoc(const TDesC16&)    0x0000c5df   Thumb Code    36  APGTASK.o(.text)
    TApaTaskList::FindApp(TUid)              0x0000c603   Thumb Code    80  APGTASK.o(.text)
    TApaTaskList::CycleTasks(TUid, TApaTaskList::TCycleDirection) 0x0000c653   Thumb Code   142  APGTASK.o(.text)
    CApaWindowGroupName::~CApaWindowGroupName() 0x0000c6e1   Thumb Code    22  APGWGNAM.o(.text)
    CApaWindowGroupName::~CApaWindowGroupName__sub_object() 0x0000c6e1   Thumb Code     0  APGWGNAM.o(.text)
    CApaWindowGroupName::~CApaWindowGroupName__deallocating() 0x0000c6f7   Thumb Code    16  APGWGNAM.o(.text)
    CApaWindowGroupName::DefaultConstructL() 0x0000c707   Thumb Code    18  APGWGNAM.o(.text)
    CApaWindowGroupName::CApaWindowGroupName(const RWsSession&) 0x0000c719   Thumb Code     8  APGWGNAM.o(.text)
    CApaWindowGroupName::CApaWindowGroupName__sub_object(const RWsSession&) 0x0000c719   Thumb Code     0  APGWGNAM.o(.text)
    CApaWindowGroupName::NewLC(const RWsSession&) 0x0000c721   Thumb Code    32  APGWGNAM.o(.text)
    CApaWindowGroupName::NewL(const RWsSession&) 0x0000c741   Thumb Code    16  APGWGNAM.o(.text)
    CApaWindowGroupName::GetStatusFromName() 0x0000c751   Thumb Code    52  APGWGNAM.o(.text)
    CApaWindowGroupName::ConstructFromWgIdL(int) 0x0000c785   Thumb Code    92  APGWGNAM.o(.text)
    CApaWindowGroupName::NewLC(const RWsSession&, int) 0x0000c7e1   Thumb Code    36  APGWGNAM.o(.text)
    CApaWindowGroupName::NewL(const RWsSession&, int) 0x0000c805   Thumb Code    16  APGWGNAM.o(.text)
    CApaWindowGroupName::New(const RWsSession&, HBufC16*) 0x0000c815   Thumb Code    58  APGWGNAM.o(.text)
    CApaWindowGroupName::NewLC(const RWsSession&, const TDesC16&) 0x0000c84f   Thumb Code    42  APGWGNAM.o(.text)
    CApaWindowGroupName::NewL(const RWsSession&, const TDesC16&) 0x0000c879   Thumb Code    16  APGWGNAM.o(.text)
    CApaWindowGroupName::SetWindowGroupNameL(const TDesC16&) 0x0000c889   Thumb Code    32  APGWGNAM.o(.text)
    CApaWindowGroupName::SetWindowGroupName(HBufC16*) 0x0000c8a9   Thumb Code    36  APGWGNAM.o(.text)
    CApaWindowGroupName::FindByAppUid(TUid, RWsSession&, int&) 0x0000c8cd   Thumb Code   112  APGWGNAM.o(.text)
    CApaWindowGroupName::FindByCaption(const TDesC16&, RWsSession&, int&) 0x0000c93d   Thumb Code    92  APGWGNAM.o(.text)
    CApaWindowGroupName::FindByDocName(const TDesC16&, RWsSession&, int&) 0x0000c999   Thumb Code    88  APGWGNAM.o(.text)
    CApaWindowGroupName::WriteStatusToName() 0x0000c9f1   Thumb Code    50  APGWGNAM.o(.text)
    CApaWindowGroupName::SetBusy(int)        0x0000ca23   Thumb Code    20  APGWGNAM.o(.text)
    CApaWindowGroupName::IsBusy() const      0x0000ca37   Thumb Code     8  APGWGNAM.o(.text)
    CApaWindowGroupName::SetSystem(int)      0x0000ca3f   Thumb Code    20  APGWGNAM.o(.text)
    CApaWindowGroupName::IsSystem() const    0x0000ca53   Thumb Code     8  APGWGNAM.o(.text)
    CApaWindowGroupName::SetDocNameIsAFile(int) 0x0000ca5b   Thumb Code    20  APGWGNAM.o(.text)
    CApaWindowGroupName::DocNameIsAFile() const 0x0000ca6f   Thumb Code    10  APGWGNAM.o(.text)
    CApaWindowGroupName::SetRespondsToShutdownEvent(int) 0x0000ca79   Thumb Code    32  APGWGNAM.o(.text)
    CApaWindowGroupName::RespondsToShutdownEvent() const 0x0000ca99   Thumb Code    10  APGWGNAM.o(.text)
    CApaWindowGroupName::SetRespondsToSwitchFilesEvent(int) 0x0000caa3   Thumb Code    20  APGWGNAM.o(.text)
    CApaWindowGroupName::RespondsToSwitchFilesEvent() const 0x0000cab7   Thumb Code    10  APGWGNAM.o(.text)
    CApaWindowGroupName::SetHidden(int)      0x0000cac1   Thumb Code    20  APGWGNAM.o(.text)
    CApaWindowGroupName::Hidden() const      0x0000cad5   Thumb Code     8  APGWGNAM.o(.text)
    CApaWindowGroupName::SetAppReady(int)    0x0000cadd   Thumb Code    20  APGWGNAM.o(.text)
    CApaWindowGroupName::IsAppReady() const  0x0000caf1   Thumb Code     8  APGWGNAM.o(.text)
    CApaWindowGroupName::FindDelimiter(CApaWindowGroupName::TApaDelimiter) const 0x0000caf9   Thumb Code    74  APGWGNAM.o(.text)
    CApaWindowGroupName::SetAppUid(TUid)     0x0000cb43   Thumb Code    78  APGWGNAM.o(.text)
    CApaWindowGroupName::AppUid() const      0x0000cb91   Thumb Code    84  APGWGNAM.o(.text)
    CApaWindowGroupName::ReAllocIfNecessaryL(int) 0x0000cbe5   Thumb Code    40  APGWGNAM.o(.text)
    CApaWindowGroupName::SetCaptionL(const TDesC16&) 0x0000cc0d   Thumb Code    68  APGWGNAM.o(.text)
    CApaWindowGroupName::Caption() const     0x0000cc51   Thumb Code    60  APGWGNAM.o(.text)
    CApaWindowGroupName::SetDocNameL(const TDesC16&) 0x0000cc8d   Thumb Code    68  APGWGNAM.o(.text)
    CApaWindowGroupName::DocName() const     0x0000ccd1   Thumb Code    56  APGWGNAM.o(.text)
    CApaWindowGroupName::SetWindowGroupName(RWindowGroup&) const 0x0000cd09   Thumb Code    14  APGWGNAM.o(.text)
    CApaWindowGroupName::WindowGroupName() const 0x0000cd17   Thumb Code    20  APGWGNAM.o(.text)
    MinApplicationStackSize()                0x0000cd2d   Thumb Code     6  APGCLI.o(.text)
    CDataRecognitionResultArray::CDataRecognitionResultArray() 0x0000cd33   Thumb Code    30  APGCLI.o(.text)
    CDataRecognitionResultArray::CDataRecognitionResultArray__sub_object() 0x0000cd33   Thumb Code     0  APGCLI.o(.text)
    CDataRecognitionResultArray::~CDataRecognitionResultArray() 0x0000cd51   Thumb Code    68  APGCLI.o(.text)
    CDataRecognitionResultArray::~CDataRecognitionResultArray__sub_object() 0x0000cd51   Thumb Code     0  APGCLI.o(.text)
    CDataRecognitionResultArray::~CDataRecognitionResultArray__deallocating() 0x0000cd95   Thumb Code    16  APGCLI.o(.text)
    CDataRecognitionResultArray::Path() const 0x0000cda5   Thumb Code     4  APGCLI.o(.text)
    CDataRecognitionResultArray::Count() const 0x0000cda9   Thumb Code    14  APGCLI.o(.text)
    CDataRecognitionResultArrayEntry::GetDataRecognitionResult(TDataRecognitionResult&) const 0x0000cdb7   Thumb Code    76  APGCLI.o(.text)
    CDataRecognitionResultArray::GetDataRecognitionResultL(TDataRecognitionResult&, unsigned) const 0x0000ce03   Thumb Code    48  APGCLI.o(.text)
    CDataRecognitionResultArrayEntry::FileName() const 0x0000ce33   Thumb Code    10  APGCLI.o(.text)
    CDataRecognitionResultArray::GetFileNameL(TBuf<(int)256>&, unsigned) const 0x0000ce3d   Thumb Code    60  APGCLI.o(.text)
    CDataRecognitionResultArrayEntry::CDataRecognitionResultArrayEntry(HBufC16*, HBufC8*, TUid, int) 0x0000ce79   Thumb Code    16  APGCLI.o(.text)
    CDataRecognitionResultArrayEntry::CDataRecognitionResultArrayEntry__sub_object(HBufC16*, HBufC8*, TUid, int) 0x0000ce79   Thumb Code     0  APGCLI.o(.text)
    CDataRecognitionResultArray::InternalizeL(const CBufFlat&) 0x0000ce89   Thumb Code   174  APGCLI.o(.text)
    CDataRecognitionResultArray::SetPath(const TBuf<(int)256>&) 0x0000cf37   Thumb Code    10  APGCLI.o(.text)
    RApaLsSession::RApaLsSession()           0x0000cf41   Thumb Code    12  APGCLI.o(.text)
    RApaLsSession::RApaLsSession__sub_object() 0x0000cf41   Thumb Code     0  APGCLI.o(.text)
    RApaLsSession::Version() const           0x0000cf4d   Thumb Code    18  APGCLI.o(.text)
    RApaLsSession::Connect()                 0x0000cf5f   Thumb Code    26  APGCLI.o(.text)
    CApaLsSessionExtension::CancelRecognizeFiles() 0x0000cf79   Thumb Code    32  APGCLI.o(.text)
    RApaLsSession::CancelRecognizeFiles()    0x0000cf99   Thumb Code    10  APGCLI.o(.text)
    RApaLsSession::Close()                   0x0000cfa3   Thumb Code    32  APGCLI.o(.text)
    RApaLsSession::SendReceiveWithReconnect(int, const TIpcArgs&) const 0x0000cfc3   Thumb Code    62  APGCLI.o(.text)
    RApaLsSession::DoAppCount(int&, int) const 0x0000d001   Thumb Code    30  APGCLI.o(.text)
    RApaLsSession::AppCount(int&) const      0x0000d01f   Thumb Code     4  APGCLI.o(.text)
    RApaLsSession::EmbeddableAppCount(int&) const 0x0000d023   Thumb Code     4  APGCLI.o(.text)
    RApaLsSession::GetFilteredApps(unsigned, unsigned, int) const 0x0000d027   Thumb Code    26  APGCLI.o(.text)
    RApaLsSession::GetAllApps(int) const     0x0000d041   Thumb Code     8  APGCLI.o(.text)
    RApaLsSession::GetAllApps() const        0x0000d049   Thumb Code     4  APGCLI.o(.text)
    RApaLsSession::GetFilteredApps(const TApaEmbeddabilityFilter&, int) const 0x0000d04d   Thumb Code    40  APGCLI.o(.text)
    RApaLsSession::GetEmbeddableApps(int) const 0x0000d075   Thumb Code    40  APGCLI.o(.text)
    RApaLsSession::GetEmbeddableApps() const 0x0000d09d   Thumb Code     4  APGCLI.o(.text)
    RApaLsSession::GetFilteredApps(const TApaEmbeddabilityFilter&) const 0x0000d0a1   Thumb Code     4  APGCLI.o(.text)
    RApaLsSession::GetFilteredApps(unsigned, unsigned) const 0x0000d0a5   Thumb Code     4  APGCLI.o(.text)
    RApaLsSession::GetServerApps(TUid, int) const 0x0000d0a9   Thumb Code    26  APGCLI.o(.text)
    RApaLsSession::GetServerApps(TUid) const 0x0000d0c3   Thumb Code     4  APGCLI.o(.text)
    RApaLsSession::GetNextApp(TApaAppInfo&, int) const 0x0000d0c7   Thumb Code   136  APGCLI.o(.text)
    RApaLsSession::GetNextApp(TApaAppInfo&) const 0x0000d14f   Thumb Code     4  APGCLI.o(.text)
    RApaLsSession::GetAppInfo(TApaAppInfo&, TUid) const 0x0000d153   Thumb Code    38  APGCLI.o(.text)
    RApaLsSession::SetAppShortCaption(const TDesC16&, TLanguage, TUid) 0x0000d179   Thumb Code    50  APGCLI.o(.text)
    RApaLsSession::GetDefaultScreenNumber(int&, TUid) const 0x0000d1ab   Thumb Code    32  APGCLI.o(.text)
    RApaLsSession::GetAppCapability(TDes8&, TUid) const 0x0000d1cb   Thumb Code    24  APGCLI.o(.text)
    RApaLsSession::GetThreadIdL(TThreadId&, const RProcess&) 0x0000d1e3   Thumb Code    74  APGCLI.o(.text)
    RApaLsSession::CleanupOperation(void*)   0x0000d22d   Thumb Code    20  APGCLI.o(.text)
    RApaLsSession::GetOpaqueData(HBufC8*&, int) const 0x0000d241   Thumb Code    80  APGCLI.o(.text)
    RApaLsSession::DeletePointerToPointerToTAny(void*) 0x0000d291   Thumb Code    20  APGCLI.o(.text)
    RApaLsSession::DoStartAppL(const CApaCommandLine&, TThreadId*, TRequestStatus*) 0x0000d2a5   Thumb Code   436  APGCLI.o(.text)
    RApaLsSession::DoStartApp(const CApaCommandLine&, TThreadId*, TRequestStatus*) 0x0000d459   Thumb Code    68  APGCLI.o(.text)
    RApaLsSession::StartApp(const CApaCommandLine&) 0x0000d49d   Thumb Code     6  APGCLI.o(.text)
    RApaLsSession::StartApp(const CApaCommandLine&, TThreadId&) 0x0000d4a3   Thumb Code     4  APGCLI.o(.text)
    RApaLsSession::StartApp(const CApaCommandLine&, TThreadId&, TRequestStatus*) 0x0000d4a7   Thumb Code     2  APGCLI.o(.text)
    RApaLsSession::RecognizeData(const TDesC16&, const TDesC8&, TDataRecognitionResult&) const 0x0000d4a9   Thumb Code    42  APGCLI.o(.text)
    RApaLsSession::RecognizeData(const RFile&, TDataRecognitionResult&) const 0x0000d4d3   Thumb Code    52  APGCLI.o(.text)
    RApaLsSession::RecognizeSpecificData(const TDesC16&, const TDesC8&, const TDataType&, int&) const 0x0000d507   Thumb Code    54  APGCLI.o(.text)
    RApaLsSession::RecognizeSpecificData(const RFile&, const TDataType&, int&) const 0x0000d53d   Thumb Code    62  APGCLI.o(.text)
    RApaLsSession::AppForDataType(const TDataType&, TUid&) const 0x0000d57b   Thumb Code    74  APGCLI.o(.text)
    RApaLsSession::StartApplicationL(const TDesC16&, const CApaCommandLine&, TThreadId&, TRequestStatus*) 0x0000d5c5   Thumb Code   182  APGCLI.o(.text)
    RApaLsSession::StartApplicationPassingDocumentName(const TDesC16&, const TDesC16&, const TDesC8*, const TDesC16&, TThreadId&, TApaCommand, TRequestStatus*) 0x0000d67b   Thumb Code   112  APGCLI.o(.text)
    RApaLsSession::GetExecutableName(TDes16&, TDes16&, HBufC8*&, TIpcArgs&, int) const 0x0000d6eb   Thumb Code    74  APGCLI.o(.text)
    RApaLsSession::FsSession()               0x0000d735   Thumb Code     8  APGCLI.o(.text)
    RApaLsSession::GetPreferredBufSize(int&) const 0x0000d73d   Thumb Code    28  APGCLI.o(.text)
    RApaLsSession::GetBufferFromFile(HBufC8*&, const TDesC16&) const 0x0000d759   Thumb Code   160  APGCLI.o(.text)
    RApaLsSession::StartDocument(const TDesC16&, TThreadId&, RApaLsSession::TLaunchType) 0x0000d7f9   Thumb Code   202  APGCLI.o(.text)
    RApaLsSession::StartApplicationPassingFileHandle(const TDesC16&, const TDesC16&, const TDesC8*, const RFile&, TThreadId&, TRequestStatus*) 0x0000d8c3   Thumb Code   140  APGCLI.o(.text)
    RApaLsSession::StartDocument(RFile&, TThreadId&, TRequestStatus*) 0x0000d94f   Thumb Code   138  APGCLI.o(.text)
    RApaLsSession::StartDocument(const TDesC16&, const TDataType&, TThreadId&, RApaLsSession::TLaunchType) 0x0000d9d9   Thumb Code   174  APGCLI.o(.text)
    RApaLsSession::StartDocument(RFile&, const TDataType&, TThreadId&, TRequestStatus*) 0x0000da87   Thumb Code   124  APGCLI.o(.text)
    RApaLsSession::StartAndCreate(int, const TDesC16&, TUid, TThreadId&, RApaLsSession::TLaunchType) 0x0000db03   Thumb Code    46  APGCLI.o(.text)
    RApaLsSession::StartDocument(const TDesC16&, TUid, TThreadId&, RApaLsSession::TLaunchType) 0x0000db31   Thumb Code   134  APGCLI.o(.text)
    RApaLsSession::StartDocument(RFile&, TUid, TThreadId&, TRequestStatus*) 0x0000dbb7   Thumb Code   100  APGCLI.o(.text)
    RApaLsSession::CreateDocument(const TDesC16&, TUid, TThreadId&, RApaLsSession::TLaunchType) 0x0000dc1b   Thumb Code   134  APGCLI.o(.text)
    RApaLsSession::GetAppIcon(TUid, int, CApaMaskedBitmap&) const 0x0000dca1   Thumb Code    96  APGCLI.o(.text)
    RApaLsSession::DoAppForDocumentOptionallySpecifyingService(const TDesC16&, TUid, TUid&, TDataType&, int) const 0x0000dd01   Thumb Code   114  APGCLI.o(.text)
    RApaLsSession::AppForDocument(const TDesC16&, TUid&, TDataType&) const 0x0000dd73   Thumb Code    22  APGCLI.o(.text)
    RApaLsSession::DoAppForDocumentOptionallySpecifyingService(const RFile&, TUid, TUid&, TDataType&, int) const 0x0000dd89   Thumb Code    82  APGCLI.o(.text)
    RApaLsSession::AppForDocument(const RFile&, TUid&, TDataType&) const 0x0000dddb   Thumb Code    22  APGCLI.o(.text)
    RApaLsSession::IsProgram(const TDesC16&, int&) const 0x0000ddf1   Thumb Code    48  APGCLI.o(.text)
    RApaLsSession::GetAcceptedConfidence(int&) const 0x0000de21   Thumb Code    38  APGCLI.o(.text)
    RApaLsSession::SetAcceptedConfidence(int) 0x0000de47   Thumb Code    22  APGCLI.o(.text)
    RApaLsSession::GetMaxDataBufSize(int&) const 0x0000de5d   Thumb Code    28  APGCLI.o(.text)
    RApaLsSession::SetMaxDataBufSize(int)    0x0000de79   Thumb Code    20  APGCLI.o(.text)
    RApaLsSession::GetSupportedDataTypesL(CArrayFixFlat<TDataType>&) const 0x0000de8d   Thumb Code   152  APGCLI.o(.text)
    RApaLsSession::FetchArrayL(MArrayFiller&, TUid, int, int) const 0x0000df25   Thumb Code   198  APGCLI.o(.text)
    RApaLsSession::DoGetAppIconSizesL(TUid, CArrayFixFlat<TSize>&) const 0x0000dfeb   Thumb Code    24  APGCLI.o(.text)
    RApaLsSession::GetAppIconSizes(TUid, CArrayFixFlat<TSize>&) const 0x0000e003   Thumb Code    66  APGCLI.o(.text)
    RApaLsSession::GetAppIcon(TUid, TSize, CApaMaskedBitmap&) const 0x0000e045   Thumb Code    90  APGCLI.o(.text)
    RApaLsSession::GetAppIcon(TUid, RFile&) const 0x0000e09f   Thumb Code    82  APGCLI.o(.text)
    RApaLsSession::DoGetAppViewsL(CArrayFixFlat<TApaAppViewInfo>&, TUid) const 0x0000e0f1   Thumb Code    26  APGCLI.o(.text)
    RApaLsSession::GetAppViews(CArrayFixFlat<TApaAppViewInfo>&, TUid) const 0x0000e10b   Thumb Code    64  APGCLI.o(.text)
    RApaLsSession::GetAppViewIcon(TUid, TUid, const TSize&, CApaMaskedBitmap&) const 0x0000e14b   Thumb Code   104  APGCLI.o(.text)
    RApaLsSession::DoGetAppOwnedFilesL(CDesC16Array&, TUid) const 0x0000e1b3   Thumb Code    28  APGCLI.o(.text)
    RApaLsSession::GetAppOwnedFiles(CDesC16Array&, TUid) const 0x0000e1cf   Thumb Code    64  APGCLI.o(.text)
    RApaLsSession::NumberOfOwnDefinedIcons(TUid, int&) const 0x0000e20f   Thumb Code    46  APGCLI.o(.text)
    RApaLsSession::GetAppIcon(TUid, HBufC16*&) const 0x0000e23d   Thumb Code    86  APGCLI.o(.text)
    RApaLsSession::GetAppViewIcon(TUid, TUid, HBufC16*&) const 0x0000e293   Thumb Code    92  APGCLI.o(.text)
    RApaLsSession::InsertDataMapping(const TDataType&, long, TUid, TUid) 0x0000e2ef   Thumb Code    46  APGCLI.o(.text)
    RApaLsSession::InsertDataMapping(const TDataType&, long, TUid) 0x0000e31d   Thumb Code    14  APGCLI.o(.text)
    RApaLsSession::InsertDataMappingIfHigher(const TDataType&, long, TUid, int&) 0x0000e32b   Thumb Code    80  APGCLI.o(.text)
    RApaLsSession::DeleteDataMapping(const TDataType&, TUid) 0x0000e37b   Thumb Code    38  APGCLI.o(.text)
    RApaLsSession::DeleteDataMapping(const TDataType&) 0x0000e3a1   Thumb Code     6  APGCLI.o(.text)
    RApaLsSession::GetAppByDataType(const TDataType&, TUid, TUid&) const 0x0000e3a7   Thumb Code    78  APGCLI.o(.text)
    RApaLsSession::GetServiceBufferLC(int, TUid, TUid) const 0x0000e3f5   Thumb Code   184  APGCLI.o(.text)
    RApaLsSession::GetAppServicesLC(TUid) const 0x0000e4ad   Thumb Code    84  APGCLI.o(.text)
    RApaLsSession::GetServiceImplementationsLC(TUid) const 0x0000e501   Thumb Code    84  APGCLI.o(.text)
    RApaLsSession::GetServiceBufferLC(int, TUid, const TDataType&) const 0x0000e555   Thumb Code   170  APGCLI.o(.text)
    RApaLsSession::GetServiceImplementationsLC(TUid, const TDataType&) const 0x0000e5ff   Thumb Code    88  APGCLI.o(.text)
    RApaLsSession::GetAppServicesL(TUid, CArrayFixFlat<TUid>&) const 0x0000e657   Thumb Code    74  APGCLI.o(.text)
    RApaLsSession::GetAppServiceOpaqueDataLC(TUid, TUid) const 0x0000e6a1   Thumb Code    86  APGCLI.o(.text)
    RApaLsSession::AppForDataTypeAndService(const TDataType&, TUid, TUid&) const 0x0000e6f7   Thumb Code    48  APGCLI.o(.text)
    RApaLsSession::AppForDocumentAndService(const TDesC16&, TUid, TUid&, TDataType&) const 0x0000e727   Thumb Code    24  APGCLI.o(.text)
    RApaLsSession::AppForDocumentAndService(const RFile&, TUid, TUid&, TDataType&) const 0x0000e73f   Thumb Code    24  APGCLI.o(.text)
    RApaLsSession::ApplicationLanguage(TUid, TLanguage&) const 0x0000e757   Thumb Code    58  APGCLI.o(.text)
    RApaLsSession::RegisterListPopulationCompleteObserver(TRequestStatus&) const 0x0000e791   Thumb Code    24  APGCLI.o(.text)
    RApaLsSession::CancelListPopulationCompleteObserver() const 0x0000e7a9   Thumb Code    20  APGCLI.o(.text)
    RApaLsSession::MatchesSecurityPolicy(int&, TUid, const TSecurityPolicy&) const 0x0000e7bd   Thumb Code    50  APGCLI.o(.text)
    RApaLsSession::TransferAndInternalizeDataL(const TDesC16&, int, CDataRecognitionResultArray&) const 0x0000e7ef   Thumb Code    90  APGCLI.o(.text)
    CApaLsSessionExtension::RecognitionActive() const 0x0000e849   Thumb Code    14  APGCLI.o(.text)
    RApaLsSession::RecognizeFilesL(const TDesC16&, const TDesC8&, CDataRecognitionResultArray&) const 0x0000e857   Thumb Code   140  APGCLI.o(.text)
    RApaLsSession::RecognizeFilesL(const TDesC16&, CDataRecognitionResultArray&) const 0x0000e8e3   Thumb Code     6  APGCLI.o(.text)
    CApaLsSessionExtension::SendReceive(int, const TIpcArgs&, TRequestStatus&) const 0x0000e8e9   Thumb Code    12  APGCLI.o(.text)
    CAsyncFileRecognition::Start(const TDesC16&, const TDesC8&) 0x0000e8f5   Thumb Code    58  APGCLI.o(.text)
    CAsyncFileRecognition::CAsyncFileRecognition(CDataRecognitionResultArray&, TRequestStatus&, CApaLsSessionExtension&) 0x0000e92f   Thumb Code    46  APGCLI.o(.text)
    CAsyncFileRecognition::CAsyncFileRecognition__sub_object(CDataRecognitionResultArray&, TRequestStatus&, CApaLsSessionExtension&) 0x0000e92f   Thumb Code     0  APGCLI.o(.text)
    CApaLsSessionExtension::RecognizeFilesL(const TDesC16&, const TDesC8&, CDataRecognitionResultArray&, TRequestStatus&) 0x0000e95d   Thumb Code   126  APGCLI.o(.text)
    CApaLsSessionExtension::CApaLsSessionExtension(RApaLsSession&) 0x0000e9db   Thumb Code    12  APGCLI.o(.text)
    CApaLsSessionExtension::CApaLsSessionExtension__sub_object(RApaLsSession&) 0x0000e9db   Thumb Code     0  APGCLI.o(.text)
    RApaLsSession::RecognizeFilesL(const TDesC16&, const TDesC8&, CDataRecognitionResultArray&, TRequestStatus&) 0x0000e9e7   Thumb Code    50  APGCLI.o(.text)
    RApaLsSession::RecognizeFilesL(const TDesC16&, CDataRecognitionResultArray&, TRequestStatus&) 0x0000ea19   Thumb Code    16  APGCLI.o(.text)
    RApaLsSession::RegisterNonNativeApplicationTypeL(TUid, const TDesC16&) 0x0000ea29   Thumb Code    26  APGCLI.o(.text)
    RApaLsSession::DeregisterNonNativeApplicationTypeL(TUid) 0x0000ea43   Thumb Code    24  APGCLI.o(.text)
    RApaLsSession::PrepareNonNativeApplicationsUpdatesL() 0x0000ea5b   Thumb Code    36  APGCLI.o(.text)
    RApaLsSession::RegisterNonNativeApplicationL(TUid, const TDriveUnit&, CApaRegistrationResourceFileWriter&, CApaLocalisableResourceFileWriter*, const RFile*) 0x0000ea7f   Thumb Code   354  APGCLI.o(.text)
    RApaLsSession::DeregisterNonNativeApplicationL(TUid) 0x0000ebe1   Thumb Code    24  APGCLI.o(.text)
    RApaLsSession::CommitNonNativeApplicationsUpdatesL() 0x0000ebf9   Thumb Code    30  APGCLI.o(.text)
    RApaLsSession::RollbackNonNativeApplicationsUpdates() 0x0000ec17   Thumb Code    32  APGCLI.o(.text)
    RApaLsSession::NotifyOnDataMappingChange(TRequestStatus&) 0x0000ec37   Thumb Code    22  APGCLI.o(.text)
    RApaLsSession::CancelNotifyOnDataMappingChange() 0x0000ec4d   Thumb Code    20  APGCLI.o(.text)
    RApaLsSession::GetAppType(TUid&, TUid) const 0x0000ec61   Thumb Code    56  APGCLI.o(.text)
    RApaLsSession::CreateRegFilesBufferL(const RPointerArray<TDesC16>&) 0x0000ec99   Thumb Code   170  APGCLI.o(.text)
    RApaLsSession::ForceRegistration(const RPointerArray<TDesC16>&) 0x0000ed43   Thumb Code   110  APGCLI.o(.text)
    RApaLsSession::SetFsSessionL(RFs&)       0x0000edb1   Thumb Code    12  APGCLI.o(.text)
    RApaLsSession::ClearFsSession()          0x0000edbd   Thumb Code     8  APGCLI.o(.text)
    RApaLsSession::SetNotify(int, TRequestStatus&) 0x0000edc5   Thumb Code    24  APGCLI.o(.text)
    RApaLsSession::CancelNotify()            0x0000eddd   Thumb Code    20  APGCLI.o(.text)
    RApaLsSession::RApaLsSession_Reserved1() 0x0000edf1   Thumb Code     2  APGCLI.o(.text)
    RApaLsSession::RApaLsSession_Reserved2() 0x0000edf3   Thumb Code     2  APGCLI.o(.text)
    RApaLsSession::ForceCommitNonNativeApplicationsUpdatesL() 0x0000edf5   Thumb Code    32  APGCLI.o(.text)
    TSizeArrayFiller::AppendItemL(RReadStream&) 0x0000ee15   Thumb Code    40  APGCLI.o(.text)
    TViewDataArrayFiller::AppendItemL(RReadStream&) 0x0000ee3d   Thumb Code    44  APGCLI.o(.text)
    TDesCArrayFiller::AppendItemL(RReadStream&) 0x0000ee69   Thumb Code    42  APGCLI.o(.text)
    CAsyncFileRecognition::~CAsyncFileRecognition() 0x0000ee93   Thumb Code    28  APGCLI.o(.text)
    CAsyncFileRecognition::~CAsyncFileRecognition__sub_object() 0x0000ee93   Thumb Code     0  APGCLI.o(.text)
    CAsyncFileRecognition::~CAsyncFileRecognition__deallocating() 0x0000eeaf   Thumb Code    16  APGCLI.o(.text)
    CApaLsSessionExtension::FilesRecognized(const TDesC16&, int, CDataRecognitionResultArray&, TRequestStatus&, const TRequestStatus&) 0x0000eebf   Thumb Code   100  APGCLI.o(.text)
    CAsyncFileRecognition::RunL()            0x0000ef23   Thumb Code    26  APGCLI.o(.text)
    CApaLsSessionExtension::SendReceive(int, const TIpcArgs&) const 0x0000ef3d   Thumb Code    12  APGCLI.o(.text)
    CAsyncFileRecognition::DoCancel()        0x0000ef49   Thumb Code    36  APGCLI.o(.text)
    CApaLsSessionExtension::~CApaLsSessionExtension() 0x0000ef6d   Thumb Code    28  APGCLI.o(.text)
    CApaLsSessionExtension::~CApaLsSessionExtension__sub_object() 0x0000ef6d   Thumb Code     0  APGCLI.o(.text)
    CApaLsSessionExtension::~CApaLsSessionExtension__deallocating() 0x0000ef89   Thumb Code    16  APGCLI.o(.text)
    CDataRecognitionResultArrayEntry::~CDataRecognitionResultArrayEntry() 0x0000ef99   Thumb Code    28  APGCLI.o(.text)
    CDataRecognitionResultArrayEntry::~CDataRecognitionResultArrayEntry__sub_object() 0x0000ef99   Thumb Code     0  APGCLI.o(.text)
    CDataRecognitionResultArrayEntry::~CDataRecognitionResultArrayEntry__deallocating() 0x0000efb5   Thumb Code    16  APGCLI.o(.text)
    CApaIconPicture::CreateIconL()           0x0000efd5   Thumb Code   198  APGPRIV.o(.text)
    CApaIconPicture::ConstructL()            0x0000f09b   Thumb Code    94  APGPRIV.o(.text)
    CApaIconPicture::CApaIconPicture(const TSize&, TUid) 0x0000f0f9   Thumb Code    58  APGPRIV.o(.text)
    CApaIconPicture::CApaIconPicture__sub_object(const TSize&, TUid) 0x0000f0f9   Thumb Code     0  APGPRIV.o(.text)
    CApaIconPicture::NewL(const TSize&, TUid) 0x0000f133   Thumb Code    46  APGPRIV.o(.text)
    CApaIconPicture::Draw(CGraphicsContext&, const TPoint&, const TRect&, MGraphicsDeviceMap*) const 0x0000f161   Thumb Code   130  APGPRIV.o(.text)
    CApaIconPicture::Capability() const      0x0000f1e3   Thumb Code     8  APGPRIV.o(.text)
    CApaIconPicture::ScaleFactorWidth() const 0x0000f1eb   Thumb Code     4  APGPRIV.o(.text)
    CApaIconPicture::ScaleFactorHeight() const 0x0000f1ef   Thumb Code     4  APGPRIV.o(.text)
    CApaIconPicture::SetScaleFactor(int, int) 0x0000f1f3   Thumb Code    52  APGPRIV.o(.text)
    CApaIconPicture::GetOriginalSizeInTwips(TSize&) const 0x0000f227   Thumb Code     8  APGPRIV.o(.text)
    CApaIconPicture::InternalizeL(RReadStream&) 0x0000f22f   Thumb Code     2  APGPRIV.o(.text)
    CApaIconPicture::ExternalizeL(RWriteStream&) const 0x0000f231   Thumb Code     2  APGPRIV.o(.text)
    CApaIconPicture::~CApaIconPicture()      0x0000f233   Thumb Code    28  APGPRIV.o(.text)
    CApaIconPicture::~CApaIconPicture__sub_object() 0x0000f233   Thumb Code     0  APGPRIV.o(.text)
    CApaIconPicture::~CApaIconPicture__deallocating() 0x0000f24f   Thumb Code    16  APGPRIV.o(.text)
    MApaAppListServObserver::MApaAppListServObserver__sub_object() 0x0000f269   Thumb Code     6  apgnotif.o(.text)
    MApaAppListServObserver::MApaAppListServObserver_Reserved1() 0x0000f26f   Thumb Code     2  apgnotif.o(.text)
    MApaAppListServObserver::MApaAppListServObserver_Reserved2() 0x0000f271   Thumb Code     2  apgnotif.o(.text)
    CApaAppListNotifier::~CApaAppListNotifier() 0x0000f273   Thumb Code    30  apgnotif.o(.text)
    CApaAppListNotifier::~CApaAppListNotifier__sub_object() 0x0000f273   Thumb Code     0  apgnotif.o(.text)
    CApaAppListNotifier::~CApaAppListNotifier__deallocating() 0x0000f291   Thumb Code    16  apgnotif.o(.text)
    CApaAppListNotifier::ConstructL()        0x0000f2a1   Thumb Code    42  apgnotif.o(.text)
    CApaAppListNotifier::CApaAppListNotifier(MApaAppListServObserver&, CActive::TPriority) 0x0000f2cb   Thumb Code    30  apgnotif.o(.text)
    CApaAppListNotifier::CApaAppListNotifier__sub_object(MApaAppListServObserver&, CActive::TPriority) 0x0000f2cb   Thumb Code     0  apgnotif.o(.text)
    CApaAppListNotifier::NewL(MApaAppListServObserver*, CActive::TPriority) 0x0000f2e9   Thumb Code    40  apgnotif.o(.text)
    CApaAppListNotifier::DoCancel()          0x0000f311   Thumb Code    10  apgnotif.o(.text)
    CApaAppListNotifier::RunL()              0x0000f31b   Thumb Code    42  apgnotif.o(.text)
    CApaAppInfoReader::~CApaAppInfoReader()  0x0000f34d   Thumb Code     0  APGAIR.o(.text)
    CApaAppInfoReader::~CApaAppInfoReader__sub_object() 0x0000f34d   Thumb Code   150  APGAIR.o(.text)
    CApaAppInfoReader::~CApaAppInfoReader__deallocating() 0x0000f3e3   Thumb Code    16  APGAIR.o(.text)
    CApaAppInfoReader::AppBinaryFullName()   0x0000f3f3   Thumb Code    10  APGAIR.o(.text)
    CApaAppInfoReader::AppBinaryUidType() const 0x0000f3fd   Thumb Code     8  APGAIR.o(.text)
    CApaAppInfoReader::TimeStamp() const     0x0000f405   Thumb Code     8  APGAIR.o(.text)
    CApaAppInfoReader::IconFileTimeStamp() const 0x0000f40d   Thumb Code     8  APGAIR.o(.text)
    CApaAppInfoReader::Capability(TDes8&) const 0x0000f415   Thumb Code    86  APGAIR.o(.text)
    CApaAppInfoReader::DefaultScreenNumber() const 0x0000f46b   Thumb Code     4  APGAIR.o(.text)
    CApaAppInfoReader::Caption()             0x0000f46f   Thumb Code    10  APGAIR.o(.text)
    CApaAppInfoReader::ShortCaption()        0x0000f479   Thumb Code    10  APGAIR.o(.text)
    CApaAppInfoReader::Icons()               0x0000f483   Thumb Code    10  APGAIR.o(.text)
    CApaAppInfoReader::NumOfAppIcons() const 0x0000f48d   Thumb Code     6  APGAIR.o(.text)
    CApaAppInfoReader::Views()               0x0000f493   Thumb Code    12  APGAIR.o(.text)
    CApaAppInfoReader::OwnedFiles()          0x0000f49f   Thumb Code    12  APGAIR.o(.text)
    CApaAppInfoReader::IconFileName()        0x0000f4ab   Thumb Code    12  APGAIR.o(.text)
    CApaAppInfoReader::NonMbmIconFile() const 0x0000f4b7   Thumb Code     6  APGAIR.o(.text)
    CApaAppInfoReader::LocalisableResourceFileName() 0x0000f4bd   Thumb Code    12  APGAIR.o(.text)
    CApaAppInfoReader::LocalisableResourceFileTimeStamp() const 0x0000f4c9   Thumb Code    10  APGAIR.o(.text)
    CApaAppInfoReader::AppLanguage() const   0x0000f4d3   Thumb Code     6  APGAIR.o(.text)
    CApaAppInfoReader::ServiceArray(int&)    0x0000f4d9   Thumb Code    16  APGAIR.o(.text)
    CApaAppInfoReader::OpaqueData()          0x0000f4e9   Thumb Code    12  APGAIR.o(.text)
    CApaAppInfoReader::CApaAppInfoReader__sub_object(RFs&, TUid) 0x0000f4f5   Thumb Code    66  APGAIR.o(.text)
    CApaIconLoader::ConstructL()             0x0000f541   Thumb Code     2  APGAIRV2.o(.text)
    CApaIconLoader::CApaIconLoader(RFs&)     0x0000f543   Thumb Code    36  APGAIRV2.o(.text)
    CApaIconLoader::CApaIconLoader__sub_object(RFs&) 0x0000f543   Thumb Code     0  APGAIRV2.o(.text)
    CApaIconLoader::NewLC(RFs&)              0x0000f567   Thumb Code    26  APGAIRV2.o(.text)
    CApaIconLoader::NewL(RFs&)               0x0000f581   Thumb Code    16  APGAIRV2.o(.text)
    CApaIconLoader::~CApaIconLoader()        0x0000f591   Thumb Code    62  APGAIRV2.o(.text)
    CApaIconLoader::~CApaIconLoader__sub_object() 0x0000f591   Thumb Code     0  APGAIRV2.o(.text)
    CApaIconLoader::~CApaIconLoader__deallocating() 0x0000f5cf   Thumb Code    16  APGAIRV2.o(.text)
    CApaIconLoader::AddIconArrayL(const CApaAppIconArray&) 0x0000f5df   Thumb Code    14  APGAIRV2.o(.text)
    CApaAppIconArray::GetDefaultIconsL()     0x0000f5ed   Thumb Code    54  APGAIRV2.o(.text)
    CApaIconLoader::CompareIcons(const CApaMaskedBitmap&, const CApaMaskedBitmap&) 0x0000f623   Thumb Code    38  APGAIRV2.o(.text)
    CApaIconLoader::IconIndexL(const TDesC16&, int&) 0x0000f649   Thumb Code   142  APGAIRV2.o(.text)
    CApaIconLoader::LoadIconsL(int, const TDesC16&, CArrayPtr<CApaMaskedBitmap>&) 0x0000f6d7   Thumb Code   256  APGAIRV2.o(.text)
    CApaAppIconArray::LoadIconsL()           0x0000f7d7   Thumb Code   138  APGAIRV2.o(.text)
    CApaIconLoader::LoadAllIconsL()          0x0000f861   Thumb Code    52  APGAIRV2.o(.text)
    CApaAppIconArray::CApaAppIconArray()     0x0000f895   Thumb Code     6  APGAIRV2.o(.text)
    CApaAppIconArray::CApaAppIconArray__sub_object() 0x0000f895   Thumb Code     0  APGAIRV2.o(.text)
    CApaAppIconArray::NewL()                 0x0000f89b   Thumb Code    14  APGAIRV2.o(.text)
    CApaAppIconArray::ConstructL(const TDesC16&) 0x0000f8a9   Thumb Code    22  APGAIRV2.o(.text)
    CApaAppIconArray::CApaAppIconArray(int, CApaIconLoader&, int) 0x0000f8bf   Thumb Code    14  APGAIRV2.o(.text)
    CApaAppIconArray::CApaAppIconArray__sub_object(int, CApaIconLoader&, int) 0x0000f8bf   Thumb Code     0  APGAIRV2.o(.text)
    CApaAppIconArray::NewLC(int, const TDesC16&, CApaIconLoader&, int) 0x0000f8cd   Thumb Code    72  APGAIRV2.o(.text)
    CApaAppIconArray::NewL(int, const TDesC16&, CApaIconLoader&, int) 0x0000f915   Thumb Code    16  APGAIRV2.o(.text)
    CApaAppIconArray::NewAppIconsL(int, const TDesC16&, CApaIconLoader&) 0x0000f925   Thumb Code     4  APGAIRV2.o(.text)
    CApaAppIconArray::NewViewIconsL(int, const TDesC16&, CApaIconLoader&) 0x0000f929   Thumb Code     4  APGAIRV2.o(.text)
    CApaAppIconArray::NewDefaultIconsL()     0x0000f92d   Thumb Code    26  APGAIRV2.o(.text)
    CApaAppIconArray::NewRealDefaultIconsLC(int, const TDesC16&, CApaIconLoader&) 0x0000f947   Thumb Code     4  APGAIRV2.o(.text)
    CApaAppIconArray::~CApaAppIconArray()    0x0000f94b   Thumb Code    66  APGAIRV2.o(.text)
    CApaAppIconArray::~CApaAppIconArray__sub_object() 0x0000f94b   Thumb Code     0  APGAIRV2.o(.text)
    CApaAppIconArray::~CApaAppIconArray__deallocating() 0x0000f98d   Thumb Code    16  APGAIRV2.o(.text)
    CApaAppIconArray::DefaultIcons() const   0x0000f99d   Thumb Code    10  APGAIRV2.o(.text)
    CApaAppIconArray::IconBySize(const TSize&) const 0x0000f9a7   Thumb Code   242  APGAIRV2.o(.text)
    CApaAppIconArray::IconSizesL() const     0x0000fa99   Thumb Code   170  APGAIRV2.o(.text)
    CApaAppIconArray::Count() const          0x0000fb43   Thumb Code    90  APGAIRV2.o(.text)
    CApaAppIconArray::DefaultIconsUsed() const 0x0000fb9d   Thumb Code     4  APGAIRV2.o(.text)
    CApaAppIconArray::operator [](int) const 0x0000fba1   Thumb Code   110  APGAIRV2.o(.text)
    CApaAppIconArray::AreAppIconsLoaded() const 0x0000fc0f   Thumb Code    24  APGAIRV2.o(.text)
    CApaAppIconArray::AreViewIconsLoaded() const 0x0000fc27   Thumb Code    18  APGAIRV2.o(.text)
    CApaAppInfoReaderV2::ConstructL()        0x0000fc39   Thumb Code    16  APGAIRV2.o(.text)
    CApaAppInfoReaderV2::CApaAppInfoReaderV2(RFs&, const TDesC16&, TUid) 0x0000fc49   Thumb Code    22  APGAIRV2.o(.text)
    CApaAppInfoReaderV2::CApaAppInfoReaderV2__sub_object(RFs&, const TDesC16&, TUid) 0x0000fc49   Thumb Code     0  APGAIRV2.o(.text)
    CApaAppInfoReaderV2::NewL(RFs&, const TDesC16&, TUid) 0x0000fc5f   Thumb Code    44  APGAIRV2.o(.text)
    CApaAppInfoReaderV2::IconLoader()        0x0000fc8b   Thumb Code    12  APGAIRV2.o(.text)
    CApaAppInfoReaderV2::~CApaAppInfoReaderV2() 0x0000fc97   Thumb Code    32  APGAIRV2.o(.text)
    CApaAppInfoReaderV2::~CApaAppInfoReaderV2__sub_object() 0x0000fc97   Thumb Code     0  APGAIRV2.o(.text)
    CApaAppInfoReaderV2::~CApaAppInfoReaderV2__deallocating() 0x0000fcb7   Thumb Code    16  APGAIRV2.o(.text)
    CApaAppInfoReaderV2::FileIsMbmWithGenericExtensionL(const TDesC16&) const 0x0000fcc7   Thumb Code   556  APGAIRV2.o(.text)
    CApaAppInfoReaderV2::FullIconFileNameL(const TDesC16&) const 0x0000fef3   Thumb Code   264  APGAIRV2.o(.text)
    CApaAppInfoReaderV2::ReadLocalisableInfoL(const CResourceFile*, unsigned, int&) 0x0000fffb   Thumb Code   644  APGAIRV2.o(.text)
    CApaAppInfoReaderV2::ReadOpaqueDataL(unsigned, const CResourceFile*, CResourceFile*) 0x0001027f   Thumb Code    80  APGAIRV2.o(.text)
    CApaAppInfoReaderV2::ReadAppSecurityInfo() 0x000102cf   Thumb Code    50  APGAIRV2.o(.text)
    CApaAppInfoReaderV2::ReadDataTypesL(RResourceReader&, CArrayFixFlat<TDataTypeWithPriority>&) 0x00010301   Thumb Code   136  APGAIRV2.o(.text)
    CApaAppInfoReaderV2::ReadNonLocalisableOptionalInfoL(RResourceReader&, const CResourceFile*, CResourceFile*) 0x00010389   Thumb Code   320  APGAIRV2.o(.text)
    CApaAppInfoReaderV2::ReadNonLocalisableInfoL(RResourceReader&, CResourceFile*&, unsigned&) 0x000104c9   Thumb Code   522  APGAIRV2.o(.text)
    CApaAppInfoReaderV2::ReadMandatoryInfoL(CResourceFile*&, RResourceReader&) 0x000106d3   Thumb Code   590  APGAIRV2.o(.text)
    CApaAppInfoReaderV2::Read()              0x00010921   Thumb Code   394  APGAIRV2.o(.text)
    CApaAppInfoReaderV2::FileIsMbm(const TDesC16&) 0x00010aab   Thumb Code    56  APGAIRV2.o(.text)
    StartupApaServer(MApaAppStarter&)        0x00010ae9   Thumb Code   100  APSCLI.o(.text)
    StartupApaServerProcess()                0x00010b4d   Thumb Code   104  APSCLI.o(.text)
    CApaSecurityUtils::CheckAppSecurity(const TPtrC16&, int&, int&) 0x00010bc5   Thumb Code    96  apsecutils.o(.text)
    TApaAppServiceInfo::Release()            0x00010c25   Thumb Code    42  APGAPLSTV2.o(.text)
    CleanupServiceArray(void*)               0x00010c4f   Thumb Code    46  APGAPLSTV2.o(.text)
    TApaAppServiceInfo::InternalizeL(RReadStream&) 0x00010c7d   Thumb Code   100  APGAPLSTV2.o(.text)
    TApaAppServiceInfo::ExternalizeL(RWriteStream&) const 0x00010ce1   Thumb Code    50  APGAPLSTV2.o(.text)
    CApaAppViewData::IconFileName() const    0x00010d13   Thumb Code    26  APGAPLSTV2.o(.text)
    CApaAppData::OpaqueData() const          0x00010d2d   Thumb Code    30  APGAPLSTV2.o(.text)
    CApaAppData::LocalisableResourceFileName() const 0x00010d4b   Thumb Code    28  APGAPLSTV2.o(.text)
    CApaAppData::IconFileName() const        0x00010d67   Thumb Code    28  APGAPLSTV2.o(.text)
    CApaAppData::RegistrationFileName() const 0x00010d83   Thumb Code    28  APGAPLSTV2.o(.text)
    CApaAppData::ExternalizeL(RWriteStream&) const 0x00010d9f   Thumb Code   528  APGAPLSTV2.o(.text)
    TApaAppServiceInfo::TApaAppServiceInfo() 0x00010faf   Thumb Code    10  APGAPLSTV2.o(.text)
    TApaAppServiceInfo::TApaAppServiceInfo__sub_object() 0x00010faf   Thumb Code     0  APGAPLSTV2.o(.text)
    TApaAppServiceInfo::TApaAppServiceInfo(TUid, CArrayFixFlat<TDataTypeWithPriority>*, HBufC8*) 0x00010fb9   Thumb Code     6  APGAPLSTV2.o(.text)
    TApaAppServiceInfo::TApaAppServiceInfo__sub_object(TUid, CArrayFixFlat<TDataTypeWithPriority>*, HBufC8*) 0x00010fb9   Thumb Code     0  APGAPLSTV2.o(.text)
    TApaAppServiceInfo::DataTypes()          0x00010fbf   Thumb Code     4  APGAPLSTV2.o(.text)
    TApaAppServiceInfo::Uid() const          0x00010fc3   Thumb Code     4  APGAPLSTV2.o(.text)
    TApaAppServiceInfo::DataTypes() const    0x00010fc7   Thumb Code     4  APGAPLSTV2.o(.text)
    TApaAppServiceInfo::OpaqueData() const   0x00010fcb   Thumb Code    12  APGAPLSTV2.o(.text)
    CApaAppServiceInfoArray::CApaAppServiceInfoArray__sub_object() 0x00010fd7   Thumb Code     6  APGAPLSTV2.o(.text)
    CApaAppEntry::ConstructL(const TDesC16&) 0x00010fdd   Thumb Code    14  APGAPLSTV2.o(.text)
    CApaAppEntry::CApaAppEntry(const TUidType&) 0x00010feb   Thumb Code    14  APGAPLSTV2.o(.text)
    CApaAppEntry::CApaAppEntry__sub_object(const TUidType&) 0x00010feb   Thumb Code     0  APGAPLSTV2.o(.text)
    CApaAppEntry::NewL(const TApaAppEntry&)  0x00010ff9   Thumb Code    40  APGAPLSTV2.o(.text)
    CApaAppEntry::~CApaAppEntry()            0x00011021   Thumb Code    22  APGAPLSTV2.o(.text)
    CApaAppEntry::~CApaAppEntry__sub_object() 0x00011021   Thumb Code     0  APGAPLSTV2.o(.text)
    CApaAppEntry::~CApaAppEntry__deallocating() 0x00011037   Thumb Code    16  APGAPLSTV2.o(.text)
    CApaAppEntry::Get(TApaAppEntry&) const   0x00011047   Thumb Code    24  APGAPLSTV2.o(.text)
    CApaAppData::UpdateServiceArray(CArrayFixFlat<TApaAppServiceInfo>*) 0x0001105f   Thumb Code    46  APGAPLSTV2.o(.text)
    CApaAppData::ViewMbmIconsRequireLoading() const 0x0001108d   Thumb Code    54  APGAPLSTV2.o(.text)
    CApaAppData::StoreApplicationInformation() 0x000110c3   Thumb Code   756  APGAPLSTV2.o(.text)
    ApaUtils::HandleAsRegistrationFile(const TUidType&) 0x000113b7   Thumb Code    42  APGAPLSTV2.o(.text)
    CApaAppData::ConstructL(const TApaAppEntry&) 0x000113e1   Thumb Code   106  APGAPLSTV2.o(.text)
    CApaAppData::CApaAppData(RFs&)           0x0001144b   Thumb Code   126  APGAPLSTV2.o(.text)
    CApaAppData::CApaAppData__sub_object(RFs&) 0x0001144b   Thumb Code     0  APGAPLSTV2.o(.text)
    CApaAppData::NewL(const TApaAppEntry&, RFs&) 0x000114c9   Thumb Code    40  APGAPLSTV2.o(.text)
    CApaAppData::~CApaAppData()              0x000114f1   Thumb Code   170  APGAPLSTV2.o(.text)
    CApaAppData::~CApaAppData__sub_object()  0x000114f1   Thumb Code     0  APGAPLSTV2.o(.text)
    CApaAppData::~CApaAppData__deallocating() 0x0001159b   Thumb Code    16  APGAPLSTV2.o(.text)
    CApaAppData::AppEntry() const            0x000115ab   Thumb Code    54  APGAPLSTV2.o(.text)
    CApaAppData::Icon(TSize) const           0x000115e1   Thumb Code    12  APGAPLSTV2.o(.text)
    CApaAppData::Icon(int) const             0x000115ed   Thumb Code    30  APGAPLSTV2.o(.text)
    CApaAppData::Capability(TDes8&) const    0x0001160b   Thumb Code    16  APGAPLSTV2.o(.text)
    CApaAppData::DataType(const TDataType&, const CArrayFixFlat<TDataTypeWithPriority>&) const 0x0001161b   Thumb Code   112  APGAPLSTV2.o(.text)
    CApaAppData::DataType(const TDataType&) const 0x0001168b   Thumb Code    36  APGAPLSTV2.o(.text)
    CApaAppData::IconSizesL() const          0x000116af   Thumb Code    10  APGAPLSTV2.o(.text)
    CApaAppData::Views() const               0x000116b9   Thumb Code     6  APGAPLSTV2.o(.text)
    CApaAppData::OwnedFiles() const          0x000116bf   Thumb Code     6  APGAPLSTV2.o(.text)
    CApaAppViewData::ScreenMode() const      0x000116c5   Thumb Code     4  APGAPLSTV2.o(.text)
    CApaAppData::CanUseScreenMode(int)       0x000116c9   Thumb Code    58  APGAPLSTV2.o(.text)
    CApaAppData::GetIconInfo(int&, int&) const 0x00011703   Thumb Code    26  APGAPLSTV2.o(.text)
    CApaAppData::DefaultScreenNumber() const 0x0001171d   Thumb Code     6  APGAPLSTV2.o(.text)
    CApaAppData::RegistrationFileUsed() const 0x00011723   Thumb Code    16  APGAPLSTV2.o(.text)
    CApaAppData::NonMbmIconFile() const      0x00011733   Thumb Code     6  APGAPLSTV2.o(.text)
    CApaAppData::ImplementsService(TUid) const 0x00011739   Thumb Code    58  APGAPLSTV2.o(.text)
    CApaAppData::ImplementsServiceWithDataType(TUid, const TDataType&) const 0x00011773   Thumb Code    84  APGAPLSTV2.o(.text)
    CApaAppData::ApplicationLanguage() const 0x000117c7   Thumb Code     6  APGAPLSTV2.o(.text)
    CApaAppData::NonNativeApplicationType() const 0x000117cd   Thumb Code     6  APGAPLSTV2.o(.text)
    CApaAppData::SetShortCaptionL(const TDesC16&) 0x000117d3   Thumb Code    50  APGAPLSTV2.o(.text)
    CApaAppData::IsPending() const           0x00011805   Thumb Code    18  APGAPLSTV2.o(.text)
    CApaAppData::SetCaptionL(const TDesC16&) 0x00011817   Thumb Code    50  APGAPLSTV2.o(.text)
    CApaAppData::SetIconsL(const TDesC16&, int) 0x00011849   Thumb Code   174  APGAPLSTV2.o(.text)
    CApaAppData::LoadIconsL()                0x000118f7   Thumb Code    12  APGAPLSTV2.o(.text)
    CApaAppData::MbmIconsRequireLoading() const 0x00011903   Thumb Code    40  APGAPLSTV2.o(.text)
    CApaAppData::Update()                    0x0001192b   Thumb Code   280  APGAPLSTV2.o(.text)
    CApaAppData::SetAppPending()             0x00011a43   Thumb Code    20  APGAPLSTV2.o(.text)
    CApaAppViewData::SetIconArray(CApaAppIconArray*) 0x00011a57   Thumb Code    22  APGAPLSTV2.o(.text)
    CApaAppViewData::ConstructL()            0x00011a6d   Thumb Code    12  APGAPLSTV2.o(.text)
    CApaAppViewData::CApaAppViewData()       0x00011a79   Thumb Code    10  APGAPLSTV2.o(.text)
    CApaAppViewData::CApaAppViewData__sub_object() 0x00011a79   Thumb Code     0  APGAPLSTV2.o(.text)
    CApaAppViewData::NewLC()                 0x00011a83   Thumb Code    28  APGAPLSTV2.o(.text)
    CApaAppData::InternalizeL(RReadStream&)  0x00011a9f   Thumb Code   802  APGAPLSTV2.o(.text)
    CApaAppViewData::Uid() const             0x00011dc1   Thumb Code     4  APGAPLSTV2.o(.text)
    CApaAppViewData::Icon(const TSize&) const 0x00011dc5   Thumb Code    10  APGAPLSTV2.o(.text)
    CApaAppViewData::IconSizesL() const      0x00011dcf   Thumb Code    10  APGAPLSTV2.o(.text)
    CApaAppViewData::NonMbmIconFile() const  0x00011dd9   Thumb Code     4  APGAPLSTV2.o(.text)
    CApaAppViewData::~CApaAppViewData()      0x00011ddd   Thumb Code    40  APGAPLSTV2.o(.text)
    CApaAppViewData::~CApaAppViewData__sub_object() 0x00011ddd   Thumb Code     0  APGAPLSTV2.o(.text)
    CApaAppViewData::~CApaAppViewData__deallocating() 0x00011e05   Thumb Code    16  APGAPLSTV2.o(.text)
    CApaAppViewData::SetUid(TUid)            0x00011e15   Thumb Code     4  APGAPLSTV2.o(.text)
    CApaAppViewData::SetCaptionL(const TDesC16&) 0x00011e19   Thumb Code    22  APGAPLSTV2.o(.text)
    CApaAppViewData::SetScreenMode(int)      0x00011e2f   Thumb Code     4  APGAPLSTV2.o(.text)
    CApaAppViewData::SetIconFileNameL(const TDesC16&) 0x00011e33   Thumb Code    22  APGAPLSTV2.o(.text)
    CApaAppViewData::SetNonMbmIconFile(int)  0x00011e49   Thumb Code     4  APGAPLSTV2.o(.text)
    CApaAppViewData::SetNumOfViewIcons(int)  0x00011e4d   Thumb Code     4  APGAPLSTV2.o(.text)
    CApaAppList::GetAppsListCachePathL()     0x00011e51   Thumb Code   124  APGAPLSTV2.o(.text)
    CApaAppList::CApaLangChangeMonitor::Start() 0x00011ecd   Thumb Code    20  APGAPLSTV2.o(.text)
    CApaAppList::CApaLangChangeMonitor::ConstructL() 0x00011ee1   Thumb Code    22  APGAPLSTV2.o(.text)
    CApaAppList::CApaLangChangeMonitor::CApaLangChangeMonitor(CApaAppList&) 0x00011ef7   Thumb Code    38  APGAPLSTV2.o(.text)
    CApaAppList::CApaLangChangeMonitor::CApaLangChangeMonitor__sub_object(CApaAppList&) 0x00011ef7   Thumb Code     0  APGAPLSTV2.o(.text)
    CApaAppList::CApaLangChangeMonitor::NewL(CApaAppList&) 0x00011f1d   Thumb Code    26  APGAPLSTV2.o(.text)
    CApaAppList::ConstructL()                0x00011f37   Thumb Code    60  APGAPLSTV2.o(.text)
    CApaAppList::CApaAppList(RFs&, CApaAppRegFinder*, int, int) 0x00011f73   Thumb Code    74  APGAPLSTV2.o(.text)
    CApaAppList::CApaAppList__sub_object(RFs&, CApaAppRegFinder*, int, int) 0x00011f73   Thumb Code     0  APGAPLSTV2.o(.text)
    CApaAppList::NewL(RFs&, CApaAppRegFinder*, int, int) 0x00011fbd   Thumb Code    82  APGAPLSTV2.o(.text)
    CApaAppList::PurgeL()                    0x0001200f   Thumb Code   174  APGAPLSTV2.o(.text)
    CApaAppList::Count() const               0x000120bd   Thumb Code    18  APGAPLSTV2.o(.text)
    CApaAppList::FirstApp(int) const         0x000120cf   Thumb Code    34  APGAPLSTV2.o(.text)
    CApaAppList::FirstApp() const            0x000120f1   Thumb Code     4  APGAPLSTV2.o(.text)
    CApaAppList::NextApp(const CApaAppData*, int) const 0x000120f5   Thumb Code    46  APGAPLSTV2.o(.text)
    CApaAppList::NextApp(const CApaAppData*) const 0x00012123   Thumb Code     4  APGAPLSTV2.o(.text)
    CApaAppList::AppDataByUid(TUid) const    0x00012127   Thumb Code    84  APGAPLSTV2.o(.text)
    CApaAppList::UndoSetPending(CApaAppData*) 0x0001217b   Thumb Code    42  APGAPLSTV2.o(.text)
    CApaAppList::StopScan()                  0x000121a5   Thumb Code    30  APGAPLSTV2.o(.text)
    CApaAppList::CApaIdleIconLoader::Start() 0x000121c3   Thumb Code    22  APGAPLSTV2.o(.text)
    CApaAppList::CApaIdleIconLoader::CApaIdleIconLoader(CApaAppData*, RFs&, CApaAppList&) 0x000121d9   Thumb Code    38  APGAPLSTV2.o(.text)
    CApaAppList::CApaIdleIconLoader::CApaIdleIconLoader__sub_object(CApaAppData*, RFs&, CApaAppList&) 0x000121d9   Thumb Code     0  APGAPLSTV2.o(.text)
    CApaAppList::StartIconLoadingL()         0x000121ff   Thumb Code    28  APGAPLSTV2.o(.text)
    CApaAppList::DeleteAppListStorer()       0x0001221b   Thumb Code    22  APGAPLSTV2.o(.text)
    CApaAppList::CApaAppListStorer::StartL(const TTimeIntervalMicroSeconds32&) 0x00012231   Thumb Code    76  APGAPLSTV2.o(.text)
    CApaAppList::CApaAppListStorer::ConstructL() 0x0001227d   Thumb Code    26  APGAPLSTV2.o(.text)
    CApaAppList::CApaAppListStorer::CApaAppListStorer(CApaAppData*, RFs&, CApaAppList&) 0x00012297   Thumb Code    82  APGAPLSTV2.o(.text)
    CApaAppList::CApaAppListStorer::CApaAppListStorer__sub_object(CApaAppData*, RFs&, CApaAppList&) 0x00012297   Thumb Code     0  APGAPLSTV2.o(.text)
    CApaAppList::CApaAppListStorer::NewL(CApaAppData*, RFs&, CApaAppList&) 0x000122e9   Thumb Code    46  APGAPLSTV2.o(.text)
    CApaAppList::StoreL()                    0x00012317   Thumb Code    30  APGAPLSTV2.o(.text)
    CApaAppList::NotifyObserver()            0x00012335   Thumb Code    38  APGAPLSTV2.o(.text)
    CApaAppList::ScanComplete()              0x0001235b   Thumb Code    36  APGAPLSTV2.o(.text)
    CApaAppList::InitiateStoringOfAppList()  0x0001237f   Thumb Code   172  APGAPLSTV2.o(.text)
    CApaAppList::StopIdler()                 0x0001242b   Thumb Code    22  APGAPLSTV2.o(.text)
    CApaAppList::IsLanguageChangePending() const 0x00012441   Thumb Code     8  APGAPLSTV2.o(.text)
    CApaAppList::SetNotFound(CApaAppData*, int&) 0x00012449   Thumb Code    34  APGAPLSTV2.o(.text)
    CApaAppList::AddToList(CApaAppData*)     0x0001246b   Thumb Code     8  APGAPLSTV2.o(.text)
    CApaAppList::UpdateNextAppL(const TApaAppEntry&, int&) 0x00012473   Thumb Code   208  APGAPLSTV2.o(.text)
    CApaAppList::IdleUpdateL()               0x00012543   Thumb Code   218  APGAPLSTV2.o(.text)
    CApaAppList::IdleUpdateCallbackL(void*)  0x0001261d   Thumb Code    54  APGAPLSTV2.o(.text)
    CApaAppList::IsFirstScanComplete() const 0x00012653   Thumb Code     8  APGAPLSTV2.o(.text)
    CApaAppList::SetPending(CApaAppData*)    0x0001265b   Thumb Code    20  APGAPLSTV2.o(.text)
    CApaAppList::LoadDefaultIconsL() const   0x0001266f   Thumb Code    64  APGAPLSTV2.o(.text)
    CApaAppList::UpdateDefaultIconsL()       0x000126af   Thumb Code    28  APGAPLSTV2.o(.text)
    CApaAppList::CreateDefaultAppIconFileNameL() 0x000126cb   Thumb Code    48  APGAPLSTV2.o(.text)
    CApaAppList::StartIdleUpdateL()          0x000126fb   Thumb Code   186  APGAPLSTV2.o(.text)
    CApaAppList::RestartScanL()              0x000127b5   Thumb Code    54  APGAPLSTV2.o(.text)
    CApaAppList::PreferredDataHandlerL(const TDataType&, const TUid*, int&) const 0x000127eb   Thumb Code   180  APGAPLSTV2.o(.text)
    CApaAppList::PreferredDataHandlerL(const TDataType&) const 0x0001289f   Thumb Code    12  APGAPLSTV2.o(.text)
    CApaAppList::StartIdleUpdateL(MApaAppListObserver*) 0x000128ab   Thumb Code    42  APGAPLSTV2.o(.text)
    CApaAppList::DeleteAppData()             0x000128d5   Thumb Code    46  APGAPLSTV2.o(.text)
    CApaAppList::ScanRemovableDrivesAndUpdateL() 0x00012903   Thumb Code   122  APGAPLSTV2.o(.text)
    CApaAppList::RestoreL()                  0x0001297d   Thumb Code   264  APGAPLSTV2.o(.text)
    CApaAppList::DeleteAppsListBackUpAndTempFiles() 0x00012a85   Thumb Code   160  APGAPLSTV2.o(.text)
    CApaAppList::InitListL(MApaAppListObserver*) 0x00012b25   Thumb Code   124  APGAPLSTV2.o(.text)
    CApaAppList::IsIdleUpdateComplete() const 0x00012ba1   Thumb Code    14  APGAPLSTV2.o(.text)
    CApaAppList::AppScanInProgress() const   0x00012baf   Thumb Code    22  APGAPLSTV2.o(.text)
    CApaAppList::ServiceArrayBufferL(TUid) const 0x00012bc5   Thumb Code   166  APGAPLSTV2.o(.text)
    CApaAppList::DataTypeArrayDeepCopyLC(const CArrayFixFlat<TDataTypeWithPriority>&) const 0x00012c6b   Thumb Code    56  APGAPLSTV2.o(.text)
    CApaAppList::ServiceImplArrayBufferL(TUid) const 0x00012ca3   Thumb Code   264  APGAPLSTV2.o(.text)
    CApaAppList::ServiceImplArrayBufferL(TUid, const TDataType&) const 0x00012dab   Thumb Code   286  APGAPLSTV2.o(.text)
    CApaAppList::ServiceUidBufferL(TUid) const 0x00012ec9   Thumb Code   228  APGAPLSTV2.o(.text)
    CApaAppList::ServiceOpaqueDataBufferL(TUid, TUid) const 0x00012fad   Thumb Code   302  APGAPLSTV2.o(.text)
    CApaAppList::FindAndAddSpecificAppL(CApaAppRegFinder*, TUid) 0x000130db   Thumb Code   114  APGAPLSTV2.o(.text)
    CApaAppList::~CApaAppList()              0x0001314d   Thumb Code   140  APGAPLSTV2.o(.text)
    CApaAppList::~CApaAppList__sub_object()  0x0001314d   Thumb Code     0  APGAPLSTV2.o(.text)
    CApaAppList::~CApaAppList__deallocating() 0x000131d9   Thumb Code    16  APGAPLSTV2.o(.text)
    CApaAppList::AppDataByFileName(const TDesC16&) const 0x000131e9   Thumb Code    86  APGAPLSTV2.o(.text)
    CApaAppList::ShareProtectedFileServer()  0x0001323f   Thumb Code     4  APGAPLSTV2.o(.text)
    CApaAppList::CompareStrings(const HBufC16&, const HBufC16&) 0x00013243   Thumb Code     8  APGAPLSTV2.o(.text)
    CApaAppList::AddForcedRegistrationL(HBufC16*) 0x0001324b   Thumb Code    34  APGAPLSTV2.o(.text)
    CApaAppList::ResetForcedRegistrations()  0x0001326d   Thumb Code    46  APGAPLSTV2.o(.text)
    CApaAppList::Self()                      0x0001329b   Thumb Code     8  APGAPLSTV2.o(.text)
    CApaAppList::AcquireDefaultIconArrayL() const 0x000132a3   Thumb Code    26  APGAPLSTV2.o(.text)
    CApaAppList::DefaultIconArray() const    0x000132bd   Thumb Code    20  APGAPLSTV2.o(.text)
    CApaAppList::ReleaseDefaultIconArray() const 0x000132d1   Thumb Code    30  APGAPLSTV2.o(.text)
    CApaAppList::DeleteAppIconLoader()       0x000132ef   Thumb Code    22  APGAPLSTV2.o(.text)
    CApaAppList::CApaIdleIconLoader::~CApaIdleIconLoader() 0x00013305   Thumb Code    48  APGAPLSTV2.o(.text)
    CApaAppList::CApaIdleIconLoader::~CApaIdleIconLoader__sub_object() 0x00013305   Thumb Code     0  APGAPLSTV2.o(.text)
    CApaAppList::CApaIdleIconLoader::~CApaIdleIconLoader__deallocating() 0x00013335   Thumb Code    16  APGAPLSTV2.o(.text)
    CApaAppList::CApaIdleIconLoader::RunL()  0x00013345   Thumb Code    64  APGAPLSTV2.o(.text)
    CApaAppList::CApaIdleIconLoader::DoCancel() 0x00013385   Thumb Code     2  APGAPLSTV2.o(.text)
    CApaAppList::CApaIdleIconLoader::RunError(int) 0x00013387   Thumb Code     4  APGAPLSTV2.o(.text)
    CApaAppList::CApaAppListStorer::~CApaAppListStorer() 0x0001338b   Thumb Code    62  APGAPLSTV2.o(.text)
    CApaAppList::CApaAppListStorer::~CApaAppListStorer__sub_object() 0x0001338b   Thumb Code     0  APGAPLSTV2.o(.text)
    CApaAppList::CApaAppListStorer::~CApaAppListStorer__deallocating() 0x000133c9   Thumb Code    16  APGAPLSTV2.o(.text)
    CApaAppList::CApaAppListStorer::StoreEntryL(RWriteStream&, const CApaAppData&) 0x000133d9   Thumb Code    18  APGAPLSTV2.o(.text)
    CApaAppList::CApaAppListStorer::RunL()   0x000133eb   Thumb Code   100  APGAPLSTV2.o(.text)
    CApaAppList::CApaAppListStorer::DoCancel() 0x0001344f   Thumb Code    14  APGAPLSTV2.o(.text)
    CApaAppList::CApaAppListStorer::RunError(int) 0x0001345d   Thumb Code    18  APGAPLSTV2.o(.text)
    CApaAppServiceInfoArrayWrapper::CApaAppServiceInfoArrayWrapper(CArrayFix<TApaAppServiceInfo>*) 0x0001346f   Thumb Code    16  APGAPLSTV2.o(.text)
    CApaAppServiceInfoArrayWrapper::CApaAppServiceInfoArrayWrapper__sub_object(CArrayFix<TApaAppServiceInfo>*) 0x0001346f   Thumb Code     0  APGAPLSTV2.o(.text)
    CApaAppServiceInfoArrayWrapper::NewL(CArrayFix<TApaAppServiceInfo>*) 0x0001347f   Thumb Code    44  APGAPLSTV2.o(.text)
    CApaAppServiceInfoArrayWrapper::~CApaAppServiceInfoArrayWrapper() 0x000134ab   Thumb Code    26  APGAPLSTV2.o(.text)
    CApaAppServiceInfoArrayWrapper::~CApaAppServiceInfoArrayWrapper__sub_object() 0x000134ab   Thumb Code     0  APGAPLSTV2.o(.text)
    CApaAppServiceInfoArrayWrapper::~CApaAppServiceInfoArrayWrapper__deallocating() 0x000134c5   Thumb Code    16  APGAPLSTV2.o(.text)
    CApaAppServiceInfoArrayWrapper::Array()  0x000134d5   Thumb Code    22  APGAPLSTV2.o(.text)
    CApaAppList::CApaLangChangeMonitor::~CApaLangChangeMonitor() 0x000134eb   Thumb Code    30  APGAPLSTV2.o(.text)
    CApaAppList::CApaLangChangeMonitor::~CApaLangChangeMonitor__sub_object() 0x000134eb   Thumb Code     0  APGAPLSTV2.o(.text)
    CApaAppList::CApaLangChangeMonitor::~CApaLangChangeMonitor__deallocating() 0x00013509   Thumb Code    16  APGAPLSTV2.o(.text)
    CApaAppList::CApaLangChangeMonitor::RunL() 0x00013519   Thumb Code    50  APGAPLSTV2.o(.text)
    CApaAppList::CApaLangChangeMonitor::DoCancel() 0x0001354b   Thumb Code    10  APGAPLSTV2.o(.text)
    CApaAppList::CApaLangChangeMonitor::RunError(int) 0x00013555   Thumb Code    18  APGAPLSTV2.o(.text)
    __ARM_switch8                            0x00013580   ARM Code      24  switch8.o(.text)
    __rt_switch8                             0x00013580   ARM Code       0  switch8.o(.text)
    _E32Dll_Body                             0x00013599   Thumb Code    34  uc_dll.o(.text)
    Dll::SetTls(void*)                       0x000135c1   Thumb Code    16  up_dll_tls.o(.text)
    Dll::Tls()                               0x000135d1   Thumb Code    12  up_dll_tls.o(.text)
    Dll::FreeTls()                           0x000135dd   Thumb Code    10  up_dll_tls.o(.text)
    __DLL_Export_Table__                     0x000135ec   ARM Code       4  dllexp.o(.text)
    CApaDoorBase::~CApaDoorBase()            0x00013933   Thumb Code     0  APGDOOR.o(i._ZN12CApaDoorBaseD2Ev)
    CApaDoorBase::~CApaDoorBase__sub_object() 0x00013933   Thumb Code     8  APGDOOR.o(i._ZN12CApaDoorBaseD2Ev)
    CArrayFixFlat<TApaAppServiceInfo>::~CArrayFixFlat__deallocating() 0x0001393b   Thumb Code    16  APGCLI.o(i._ZN13CArrayFixFlatI18TApaAppServiceInfoED0Ev)
    CArrayFixFlat<TApaAppServiceInfo>::~CArrayFixFlat() 0x0001394b   Thumb Code     8  APGCLI.o(i._ZN13CArrayFixFlatI18TApaAppServiceInfoED1Ev)
    CArrayFixFlat<TApaAppServiceInfo>::~CArrayFixFlat__sub_object() 0x0001394b   Thumb Code     0  APGCLI.o(i._ZN13CArrayFixFlatI18TApaAppServiceInfoED1Ev)
    CArrayFixFlat<TDataTypeWithPriority>::~CArrayFixFlat__deallocating() 0x00013953   Thumb Code    16  APGAIRV2.o(i._ZN13CArrayFixFlatI21TDataTypeWithPriorityED0Ev)
    CArrayFixFlat<TDataTypeWithPriority>::~CArrayFixFlat() 0x00013963   Thumb Code     8  APGAIRV2.o(i._ZN13CArrayFixFlatI21TDataTypeWithPriorityED1Ev)
    CArrayFixFlat<TDataTypeWithPriority>::~CArrayFixFlat__sub_object() 0x00013963   Thumb Code     0  APGAIRV2.o(i._ZN13CArrayFixFlatI21TDataTypeWithPriorityED1Ev)
    CArrayFixFlat<TSize>::~CArrayFixFlat__deallocating() 0x0001396b   Thumb Code    16  APGAIRV2.o(i._ZN13CArrayFixFlatI5TSizeED0Ev)
    CArrayFixFlat<TSize>::~CArrayFixFlat()   0x0001397b   Thumb Code     8  APGAIRV2.o(i._ZN13CArrayFixFlatI5TSizeED1Ev)
    CArrayFixFlat<TSize>::~CArrayFixFlat__sub_object() 0x0001397b   Thumb Code     0  APGAIRV2.o(i._ZN13CArrayFixFlatI5TSizeED1Ev)
    CArrayFixFlat<CApaAppInfoFile::TIconHeader>::~CArrayFixFlat__deallocating() 0x00013983   Thumb Code    16  APGICNFL.o(i._ZN13CArrayFixFlatIN15CApaAppInfoFile11TIconHeaderEED0Ev)
    CArrayFixFlat<CApaAppInfoFile::TIconHeader>::~CArrayFixFlat() 0x00013993   Thumb Code     8  APGICNFL.o(i._ZN13CArrayFixFlatIN15CApaAppInfoFile11TIconHeaderEED1Ev)
    CArrayFixFlat<CApaAppInfoFile::TIconHeader>::~CArrayFixFlat__sub_object() 0x00013993   Thumb Code     0  APGICNFL.o(i._ZN13CArrayFixFlatIN15CApaAppInfoFile11TIconHeaderEED1Ev)
    CArrayFixFlat<CApaAppInfoFile::TCaptionHeader>::~CArrayFixFlat__deallocating() 0x0001399b   Thumb Code    16  APGICNFL.o(i._ZN13CArrayFixFlatIN15CApaAppInfoFile14TCaptionHeaderEED0Ev)
    CArrayFixFlat<CApaAppInfoFile::TCaptionHeader>::~CArrayFixFlat() 0x000139ab   Thumb Code     8  APGICNFL.o(i._ZN13CArrayFixFlatIN15CApaAppInfoFile14TCaptionHeaderEED1Ev)
    CArrayFixFlat<CApaAppInfoFile::TCaptionHeader>::~CArrayFixFlat__sub_object() 0x000139ab   Thumb Code     0  APGICNFL.o(i._ZN13CArrayFixFlatIN15CApaAppInfoFile14TCaptionHeaderEED1Ev)
    CArrayFixFlat<CApaAppInfoFile::TDataTypeHeader>::~CArrayFixFlat__deallocating() 0x000139b3   Thumb Code    16  APGICNFL.o(i._ZN13CArrayFixFlatIN15CApaAppInfoFile15TDataTypeHeaderEED0Ev)
    CArrayFixFlat<CApaAppInfoFile::TDataTypeHeader>::~CArrayFixFlat() 0x000139c3   Thumb Code     8  APGICNFL.o(i._ZN13CArrayFixFlatIN15CApaAppInfoFile15TDataTypeHeaderEED1Ev)
    CArrayFixFlat<CApaAppInfoFile::TDataTypeHeader>::~CArrayFixFlat__sub_object() 0x000139c3   Thumb Code     0  APGICNFL.o(i._ZN13CArrayFixFlatIN15CApaAppInfoFile15TDataTypeHeaderEED1Ev)
    CArrayFixFlat<CApaAppInfoFile::TViewDataHeader>::~CArrayFixFlat__deallocating() 0x000139cb   Thumb Code    16  APGICNFL.o(i._ZN13CArrayFixFlatIN15CApaAppInfoFile15TViewDataHeaderEED0Ev)
    CArrayFixFlat<CApaAppInfoFile::TViewDataHeader>::~CArrayFixFlat() 0x000139db   Thumb Code     8  APGICNFL.o(i._ZN13CArrayFixFlatIN15CApaAppInfoFile15TViewDataHeaderEED1Ev)
    CArrayFixFlat<CApaAppInfoFile::TViewDataHeader>::~CArrayFixFlat__sub_object() 0x000139db   Thumb Code     0  APGICNFL.o(i._ZN13CArrayFixFlatIN15CApaAppInfoFile15TViewDataHeaderEED1Ev)
    CArrayFixFlat<CApaAppInfoFile::TFileOwnershipInfoHeader>::~CArrayFixFlat__deallocating() 0x000139e3   Thumb Code    16  APGICNFL.o(i._ZN13CArrayFixFlatIN15CApaAppInfoFile24TFileOwnershipInfoHeaderEED0Ev)
    CArrayFixFlat<CApaAppInfoFile::TFileOwnershipInfoHeader>::~CArrayFixFlat() 0x000139f3   Thumb Code     8  APGICNFL.o(i._ZN13CArrayFixFlatIN15CApaAppInfoFile24TFileOwnershipInfoHeaderEED1Ev)
    CArrayFixFlat<CApaAppInfoFile::TFileOwnershipInfoHeader>::~CArrayFixFlat__sub_object() 0x000139f3   Thumb Code     0  APGICNFL.o(i._ZN13CArrayFixFlatIN15CApaAppInfoFile24TFileOwnershipInfoHeaderEED1Ev)
    CArrayPtrFlat<CApaAIFCaption>::~CArrayPtrFlat__deallocating() 0x000139fb   Thumb Code    16  APGICNFL.o(i._ZN13CArrayPtrFlatI14CApaAIFCaptionED0Ev)
    CArrayPtrFlat<CApaAIFCaption>::~CArrayPtrFlat() 0x00013a0b   Thumb Code     8  APGICNFL.o(i._ZN13CArrayPtrFlatI14CApaAIFCaptionED1Ev)
    CArrayPtrFlat<CApaAIFCaption>::~CArrayPtrFlat__sub_object() 0x00013a0b   Thumb Code     0  APGICNFL.o(i._ZN13CArrayPtrFlatI14CApaAIFCaptionED1Ev)
    CArrayPtrFlat<CApaAppViewData>::~CArrayPtrFlat__deallocating() 0x00013a13   Thumb Code    16  APGAIRV2.o(i._ZN13CArrayPtrFlatI15CApaAppViewDataED0Ev)
    CArrayPtrFlat<CApaAppViewData>::~CArrayPtrFlat() 0x00013a23   Thumb Code     8  APGAIRV2.o(i._ZN13CArrayPtrFlatI15CApaAppViewDataED1Ev)
    CArrayPtrFlat<CApaAppViewData>::~CArrayPtrFlat__sub_object() 0x00013a23   Thumb Code     0  APGAIRV2.o(i._ZN13CArrayPtrFlatI15CApaAppViewDataED1Ev)
    CArrayPtrFlat<CApaMaskedBitmap>::~CArrayPtrFlat__deallocating() 0x00013a2b   Thumb Code    16  APGICNFL.o(i._ZN13CArrayPtrFlatI16CApaMaskedBitmapED0Ev)
    CArrayPtrFlat<CApaMaskedBitmap>::~CArrayPtrFlat() 0x00013a3b   Thumb Code     8  APGICNFL.o(i._ZN13CArrayPtrFlatI16CApaMaskedBitmapED1Ev)
    CArrayPtrFlat<CApaMaskedBitmap>::~CArrayPtrFlat__sub_object() 0x00013a3b   Thumb Code     0  APGICNFL.o(i._ZN13CArrayPtrFlatI16CApaMaskedBitmapED1Ev)
    RBufReadStream::RBufReadStream()         0x00013a43   Thumb Code    14  APGCLI.o(i._ZN14RBufReadStreamC1Ev)
    RBufReadStream::RBufReadStream__sub_object() 0x00013a43   Thumb Code     0  APGCLI.o(i._ZN14RBufReadStreamC1Ev)
    TRequestStatus::operator =(int)          0x00013a51   Thumb Code    32  APGCLI.o(i._ZN14TRequestStatusaSEi)
    RStoreWriteStream::RStoreWriteStream()   0x00013a75   Thumb Code     8  APGICNFL.o(i._ZN17RStoreWriteStreamC1Ev)
    RStoreWriteStream::RStoreWriteStream__sub_object() 0x00013a75   Thumb Code     0  APGICNFL.o(i._ZN17RStoreWriteStreamC1Ev)
    TApaAppCapability::TApaAppCapability()   0x00013a7d   Thumb Code    14  APGICNFL.o(i._ZN17TApaAppCapabilityC1Ev)
    TApaAppCapability::TApaAppCapability__sub_object() 0x00013a7d   Thumb Code     0  APGICNFL.o(i._ZN17TApaAppCapabilityC1Ev)
    TMemoryUnicodeSource::ReadUnicodeValueL() 0x00013a8b   Thumb Code    10  APGICNFL.o(i._ZN20TMemoryUnicodeSource17ReadUnicodeValueLEv)
    TMemoryUnicodeSource::TMemoryUnicodeSource(const unsigned short*) 0x00013a95   Thumb Code     8  APGICNFL.o(i._ZN20TMemoryUnicodeSourceC1EPKt)
    TMemoryUnicodeSource::TMemoryUnicodeSource__sub_object(const unsigned short*) 0x00013a95   Thumb Code     0  APGICNFL.o(i._ZN20TMemoryUnicodeSourceC1EPKt)
    CApaAppServiceInfoArray::~CApaAppServiceInfoArray() 0x00013aa1   Thumb Code     0  APGAPLSTV2.o(i._ZN23CApaAppServiceInfoArrayD2Ev)
    CApaAppServiceInfoArray::~CApaAppServiceInfoArray__sub_object() 0x00013aa1   Thumb Code     8  APGAPLSTV2.o(i._ZN23CApaAppServiceInfoArrayD2Ev)
    CApaAppCaptionFileReader::~CApaAppCaptionFileReader__deallocating() 0x00013aa9   Thumb Code    16  APGICNFL.o(i._ZN24CApaAppCaptionFileReaderD0Ev)
    CApaAppCaptionFileReader::~CApaAppCaptionFileReader() 0x00013ab9   Thumb Code     8  APGICNFL.o(i._ZN24CApaAppCaptionFileReaderD1Ev)
    CApaAppCaptionFileReader::~CApaAppCaptionFileReader__sub_object() 0x00013ab9   Thumb Code     0  APGICNFL.o(i._ZN24CApaAppCaptionFileReaderD1Ev)
    CApaResourceFileWriterBase::~CApaResourceFileWriterBase__deallocating() 0x00013ac1   Thumb Code    16  APGICNFL.o(i._ZN26CApaResourceFileWriterBaseD0Ev)
    CApaResourceFileWriterBase::~CApaResourceFileWriterBase() 0x00013ad1   Thumb Code     0  APGICNFL.o(i._ZN26CApaResourceFileWriterBaseD2Ev)
    CApaResourceFileWriterBase::~CApaResourceFileWriterBase__sub_object() 0x00013ad1   Thumb Code     8  APGICNFL.o(i._ZN26CApaResourceFileWriterBaseD2Ev)
    CBase::operator new(unsigned)            0x00013ad9   Thumb Code     8  APGDOOR.o(i._ZN5CBasenwEj)
    TDes8::operator [](int)                  0x00013ae1   Thumb Code     8  APGICNFL.o(i._ZN5TDes8ixEi)
    TPtr8::Set(const TPtr8&)                 0x00013ae9   Thumb Code    30  APGCLI.o(i._ZN5TPtr83SetERKS_)
    TSize::TSize()                           0x00013b07   Thumb Code     8  APGDOOR.o(i._ZN5TSizeC1Ev)
    TSize::TSize__sub_object()               0x00013b07   Thumb Code     0  APGDOOR.o(i._ZN5TSizeC1Ev)
    TLex16::TLex16(const TDesC16&)           0x00013b0f   Thumb Code    16  APGWGNAM.o(i._ZN6TLex16C1ERK7TDesC16)
    TLex16::TLex16__sub_object(const TDesC16&) 0x00013b0f   Thumb Code     0  APGWGNAM.o(i._ZN6TLex16C1ERK7TDesC16)
    TPtrC16::Set(const TDesC16&)             0x00013b1f   Thumb Code    28  APGICNFL.o(i._ZN7TPtrC163SetERK7TDesC16)
    CPicture::DetachFromStoreL(CPicture::TDetach) 0x00013b47   Thumb Code     2  APGPRIV.o(i._ZN8CPicture16DetachFromStoreLENS_7TDetachE)
    TIpcArgs::Set(int, const TDesC8*)        0x00013b49   Thumb Code    20  APGCLI.o(i._ZN8TIpcArgs3SetEiPK6TDesC8)
    CArrayFix<TApaAppServiceInfo>::~CArrayFix() 0x00013b5d   Thumb Code     8  APGCLI.o(i._ZN9CArrayFixI18TApaAppServiceInfoED1Ev)
    CArrayFix<TApaAppServiceInfo>::~CArrayFix__sub_object() 0x00013b5d   Thumb Code     0  APGCLI.o(i._ZN9CArrayFixI18TApaAppServiceInfoED1Ev)
    CArrayFix<TDataTypeWithPriority>::~CArrayFix() 0x00013b65   Thumb Code     8  APGAIRV2.o(i._ZN9CArrayFixI21TDataTypeWithPriorityED1Ev)
    CArrayFix<TDataTypeWithPriority>::~CArrayFix__sub_object() 0x00013b65   Thumb Code     0  APGAIRV2.o(i._ZN9CArrayFixI21TDataTypeWithPriorityED1Ev)
    CArrayFix<TSize>::~CArrayFix()           0x00013b6d   Thumb Code     8  APGAIRV2.o(i._ZN9CArrayFixI5TSizeED1Ev)
    CArrayFix<TSize>::~CArrayFix__sub_object() 0x00013b6d   Thumb Code     0  APGAIRV2.o(i._ZN9CArrayFixI5TSizeED1Ev)
    CArrayFix<CApaAppInfoFile::TIconHeader>::~CArrayFix() 0x00013b75   Thumb Code     8  APGICNFL.o(i._ZN9CArrayFixIN15CApaAppInfoFile11TIconHeaderEED1Ev)
    CArrayFix<CApaAppInfoFile::TIconHeader>::~CArrayFix__sub_object() 0x00013b75   Thumb Code     0  APGICNFL.o(i._ZN9CArrayFixIN15CApaAppInfoFile11TIconHeaderEED1Ev)
    CArrayFix<CApaAppInfoFile::TCaptionHeader>::~CArrayFix() 0x00013b7d   Thumb Code     8  APGICNFL.o(i._ZN9CArrayFixIN15CApaAppInfoFile14TCaptionHeaderEED1Ev)
    CArrayFix<CApaAppInfoFile::TCaptionHeader>::~CArrayFix__sub_object() 0x00013b7d   Thumb Code     0  APGICNFL.o(i._ZN9CArrayFixIN15CApaAppInfoFile14TCaptionHeaderEED1Ev)
    CArrayFix<CApaAppInfoFile::TDataTypeHeader>::~CArrayFix() 0x00013b85   Thumb Code     8  APGICNFL.o(i._ZN9CArrayFixIN15CApaAppInfoFile15TDataTypeHeaderEED1Ev)
    CArrayFix<CApaAppInfoFile::TDataTypeHeader>::~CArrayFix__sub_object() 0x00013b85   Thumb Code     0  APGICNFL.o(i._ZN9CArrayFixIN15CApaAppInfoFile15TDataTypeHeaderEED1Ev)
    CArrayFix<CApaAppInfoFile::TViewDataHeader>::~CArrayFix() 0x00013b8d   Thumb Code     8  APGICNFL.o(i._ZN9CArrayFixIN15CApaAppInfoFile15TViewDataHeaderEED1Ev)
    CArrayFix<CApaAppInfoFile::TViewDataHeader>::~CArrayFix__sub_object() 0x00013b8d   Thumb Code     0  APGICNFL.o(i._ZN9CArrayFixIN15CApaAppInfoFile15TViewDataHeaderEED1Ev)
    CArrayFix<CApaAppInfoFile::TFileOwnershipInfoHeader>::~CArrayFix() 0x00013b95   Thumb Code     8  APGICNFL.o(i._ZN9CArrayFixIN15CApaAppInfoFile24TFileOwnershipInfoHeaderEED1Ev)
    CArrayFix<CApaAppInfoFile::TFileOwnershipInfoHeader>::~CArrayFix__sub_object() 0x00013b95   Thumb Code     0  APGICNFL.o(i._ZN9CArrayFixIN15CApaAppInfoFile24TFileOwnershipInfoHeaderEED1Ev)
    CArrayFix<CApaAIFCaption*>::~CArrayFix() 0x00013b9d   Thumb Code     8  APGICNFL.o(i._ZN9CArrayFixIP14CApaAIFCaptionED1Ev)
    CArrayFix<CApaAIFCaption*>::~CArrayFix__sub_object() 0x00013b9d   Thumb Code     0  APGICNFL.o(i._ZN9CArrayFixIP14CApaAIFCaptionED1Ev)
    CArrayFix<CApaAppViewData*>::~CArrayFix() 0x00013ba5   Thumb Code     8  APGAIRV2.o(i._ZN9CArrayFixIP15CApaAppViewDataED1Ev)
    CArrayFix<CApaAppViewData*>::~CArrayFix__sub_object() 0x00013ba5   Thumb Code     0  APGAIRV2.o(i._ZN9CArrayFixIP15CApaAppViewDataED1Ev)
    CArrayFix<CApaMaskedBitmap*>::~CArrayFix() 0x00013bad   Thumb Code     8  APGICNFL.o(i._ZN9CArrayFixIP16CApaMaskedBitmapED1Ev)
    CArrayFix<CApaMaskedBitmap*>::~CArrayFix__sub_object() 0x00013bad   Thumb Code     0  APGICNFL.o(i._ZN9CArrayFixIP16CApaMaskedBitmapED1Ev)
    CArrayPtr<CApaAIFCaption>::~CArrayPtr()  0x00013bb5   Thumb Code     8  APGICNFL.o(i._ZN9CArrayPtrI14CApaAIFCaptionED1Ev)
    CArrayPtr<CApaAIFCaption>::~CArrayPtr__sub_object() 0x00013bb5   Thumb Code     0  APGICNFL.o(i._ZN9CArrayPtrI14CApaAIFCaptionED1Ev)
    CArrayPtr<CApaAppViewData>::~CArrayPtr() 0x00013bbd   Thumb Code     8  APGAIRV2.o(i._ZN9CArrayPtrI15CApaAppViewDataED1Ev)
    CArrayPtr<CApaAppViewData>::~CArrayPtr__sub_object() 0x00013bbd   Thumb Code     0  APGAIRV2.o(i._ZN9CArrayPtrI15CApaAppViewDataED1Ev)
    CArrayPtr<CApaMaskedBitmap>::~CArrayPtr() 0x00013bc5   Thumb Code     8  APGICNFL.o(i._ZN9CArrayPtrI16CApaMaskedBitmapED1Ev)
    CArrayPtr<CApaMaskedBitmap>::~CArrayPtr__sub_object() 0x00013bc5   Thumb Code     0  APGICNFL.o(i._ZN9CArrayPtrI16CApaMaskedBitmapED1Ev)
    TDataType::operator =(const TDataType&)  0x00013bcd   Thumb Code    26  APGCLI.o(i._ZN9TDataTypeaSERKS_)
    RSessionBase::SendReceive(int, const TIpcArgs&) const 0x00013be7   Thumb Code     8  APGCLI.o(i._ZNK12RSessionBase11SendReceiveEiRK8TIpcArgs)
    RSessionBase::SendReceive(int, const TIpcArgs&, TRequestStatus&) const 0x00013bef   Thumb Code     8  APGCLI.o(i._ZNK12RSessionBase11SendReceiveEiRK8TIpcArgsR14TRequestStatus)
    TSwizzleCBase::IsPtr() const             0x00013bf7   Thumb Code    10  APGICNFL.o(i._ZNK13TSwizzleCBase5IsPtrEv)
    TTime::operator !=(TTime) const          0x00013c01   Thumb Code    18  APGAPLSTV2.o(i._ZNK5TTimeneES_)
    TDesC8::operator [](int) const           0x00013c13   Thumb Code     8  APGAIRV2.o(i._ZNK6TDesC8ixEi)
    TDesC16::operator !=(const TDesC16&) const 0x00013c1b   Thumb Code    18  APGCLI.o(i._ZNK7TDesC16neERKS_)
    operator delete (void*, void*)           0x00013c2d   Thumb Code     2  APGDOOR.o(i._ZdlPvS_)
    operator <<(RWriteStream&, const TUid&)  0x00013c2f   Thumb Code    14  APGAPLSTV2.o(i._ZlsR12RWriteStreamRK4TUid)
    operator new(unsigned, void*)            0x00013c3d   Thumb Code     4  APGDOOR.o(i._ZnwjPv)
    CleanupClosePushL<RApaLsSession>(T1&)    0x00013c41   Thumb Code    12  APGCTL.o(t._Z17CleanupClosePushLI13RApaLsSessionEvRT_)
    CleanupClosePushL<RFs>(T1&)              0x00013c51   Thumb Code    12  APGICNFL.o(t._Z17CleanupClosePushLI3RFsEvRT_)
    CleanupClosePushL<RBuf8>(T1&)            0x00013c61   Thumb Code    12  APGICNFL.o(t._Z17CleanupClosePushLI5RBuf8EvRT_)
    CleanupClosePushL<RFile>(T1&)            0x00013c71   Thumb Code    12  APGAIRV2.o(t._Z17CleanupClosePushLI5RFileEvRT_)
    CleanupClosePushL<RArray<TLanguage>>(T1&) 0x00013c81   Thumb Code    12  APGICNFL.o(t._Z17CleanupClosePushLI6RArrayI9TLanguageEEvRT_)
    CleanupClose<RApaLsSession>::Close(void*) 0x00013c91   Thumb Code     8  APGCTL.o(t._ZN12CleanupCloseI13RApaLsSessionE5CloseEPv)
    CleanupClose<RPointerArray<CApaAppIconArray>>::Close(void*) 0x00013c99   Thumb Code     8  APGAIRV2.o(t._ZN12CleanupCloseI13RPointerArrayI16CApaAppIconArrayEE5CloseEPv)
    CleanupClose<RPointerArray<CApaMaskedBitmap>>::Close(void*) 0x00013ca1   Thumb Code     8  APGAIRV2.o(t._ZN12CleanupCloseI13RPointerArrayI16CApaMaskedBitmapEE5CloseEPv)
    CleanupClose<RResourceFile>::Close(void*) 0x00013ca9   Thumb Code     8  APGICNFL.o(t._ZN12CleanupCloseI13RResourceFileE5CloseEPv)
    CleanupClose<RBufWriteStream>::Close(void*) 0x00013cb1   Thumb Code     8  APGCLI.o(t._ZN12CleanupCloseI15RBufWriteStreamE5CloseEPv)
    CleanupClose<RFileReadStream>::Close(void*) 0x00013cb9   Thumb Code     8  APGAPLSTV2.o(t._ZN12CleanupCloseI15RFileReadStreamE5CloseEPv)
    CleanupClose<RResourceReader>::Close(void*) 0x00013cc1   Thumb Code     8  APGICNFL.o(t._ZN12CleanupCloseI15RResourceReaderE5CloseEPv)
    CleanupClose<RFs>::Close(void*)          0x00013cc9   Thumb Code     8  APGICNFL.o(t._ZN12CleanupCloseI3RFsE5CloseEPv)
    CleanupClose<RBuf8>::Close(void*)        0x00013cd1   Thumb Code     8  APGICNFL.o(t._ZN12CleanupCloseI5RBuf8E5CloseEPv)
    CleanupClose<RFile>::Close(void*)        0x00013cd9   Thumb Code     8  APGICNFL.o(t._ZN12CleanupCloseI5RFileE5CloseEPv)
    CleanupClose<RArray<TLanguage>>::Close(void*) 0x00013ce1   Thumb Code     8  APGICNFL.o(t._ZN12CleanupCloseI6RArrayI9TLanguageEE5CloseEPv)
    CleanupClose<RProcess>::Close(void*)     0x00013ce9   Thumb Code     8  APGCLI.o(t._ZN12CleanupCloseI8RProcessE5CloseEPv)
    CleanupClose<CApaResourceFileWriterBase::RBufferSink>::Close(void*) 0x00013cf1   Thumb Code    10  APGICNFL.o(t._ZN12CleanupCloseIN26CApaResourceFileWriterBase11RBufferSinkEE5CloseEPv)
    TAlignedBuf8<(int)4>::TAlignedBuf8(int)  0x00013cfb   Thumb Code    10  APGCLI.o(t._ZN12TAlignedBuf8ILi4EEC1Ei)
    TAlignedBuf8<(int)4>::TAlignedBuf8__sub_object(int) 0x00013cfb   Thumb Code     0  APGCLI.o(t._ZN12TAlignedBuf8ILi4EEC1Ei)
    TAlignedBuf8<(int)64>::TAlignedBuf8(int) 0x00013d05   Thumb Code    10  APGICNFL.o(t._ZN12TAlignedBuf8ILi64EEC1Ei)
    TAlignedBuf8<(int)64>::TAlignedBuf8__sub_object(int) 0x00013d05   Thumb Code     0  APGICNFL.o(t._ZN12TAlignedBuf8ILi64EEC1Ei)
    CArrayFixFlat<TApaAppServiceInfo>::CArrayFixFlat(int) 0x00013d11   Thumb Code    18  APGCLI.o(t._ZN13CArrayFixFlatI18TApaAppServiceInfoEC1Ei)
    CArrayFixFlat<TApaAppServiceInfo>::CArrayFixFlat__sub_object(int) 0x00013d11   Thumb Code     0  APGCLI.o(t._ZN13CArrayFixFlatI18TApaAppServiceInfoEC1Ei)
    CArrayFixFlat<TDataTypeWithPriority>::CArrayFixFlat(int) 0x00013d2d   Thumb Code    20  APGAIRV2.o(t._ZN13CArrayFixFlatI21TDataTypeWithPriorityEC1Ei)
    CArrayFixFlat<TDataTypeWithPriority>::CArrayFixFlat__sub_object(int) 0x00013d2d   Thumb Code     0  APGAIRV2.o(t._ZN13CArrayFixFlatI21TDataTypeWithPriorityEC1Ei)
    CArrayFixFlat<TSize>::CArrayFixFlat(int) 0x00013d49   Thumb Code    18  APGAIRV2.o(t._ZN13CArrayFixFlatI5TSizeEC1Ei)
    CArrayFixFlat<TSize>::CArrayFixFlat__sub_object(int) 0x00013d49   Thumb Code     0  APGAIRV2.o(t._ZN13CArrayFixFlatI5TSizeEC1Ei)
    CArrayPtrFlat<CApaAIFCaption>::CArrayPtrFlat(int) 0x00013d65   Thumb Code    18  APGICNFL.o(t._ZN13CArrayPtrFlatI14CApaAIFCaptionEC1Ei)
    CArrayPtrFlat<CApaAIFCaption>::CArrayPtrFlat__sub_object(int) 0x00013d65   Thumb Code     0  APGICNFL.o(t._ZN13CArrayPtrFlatI14CApaAIFCaptionEC1Ei)
    CArrayPtrFlat<CApaAppViewData>::CArrayPtrFlat(int) 0x00013d81   Thumb Code    18  APGAPLSTV2.o(t._ZN13CArrayPtrFlatI15CApaAppViewDataEC1Ei)
    CArrayPtrFlat<CApaAppViewData>::CArrayPtrFlat__sub_object(int) 0x00013d81   Thumb Code     0  APGAPLSTV2.o(t._ZN13CArrayPtrFlatI15CApaAppViewDataEC1Ei)
    CArrayPtrFlat<CApaMaskedBitmap>::CArrayPtrFlat(int) 0x00013d9d   Thumb Code    18  APGICNFL.o(t._ZN13CArrayPtrFlatI16CApaMaskedBitmapEC1Ei)
    CArrayPtrFlat<CApaMaskedBitmap>::CArrayPtrFlat__sub_object(int) 0x00013d9d   Thumb Code     0  APGICNFL.o(t._ZN13CArrayPtrFlatI16CApaMaskedBitmapEC1Ei)
    TExternalizer<CApaAIFViewData>::ExternalizeAsL(const void*, RWriteStream&) 0x00013db9   Thumb Code    14  APGICNFL.o(t._ZN13TExternalizerI15CApaAIFViewDataE14ExternalizeAsLEPKvR12RWriteStream)
    TExternalizer<CApaMaskedBitmap>::ExternalizeAsL(const void*, RWriteStream&) 0x00013dc7   Thumb Code    14  APGICNFL.o(t._ZN13TExternalizerI16CApaMaskedBitmapE14ExternalizeAsLEPKvR12RWriteStream)
    TExternalizer<TApaAppServiceInfo>::ExternalizeAsL(const void*, RWriteStream&) 0x00013dd5   Thumb Code    14  APGAPLSTV2.o(t._ZN13TExternalizerI18TApaAppServiceInfoE14ExternalizeAsLEPKvR12RWriteStream)
    TExternalizer<TDataTypeWithPriority>::ExternalizeAsL(const void*, RWriteStream&) 0x00013de3   Thumb Code    12  APGAPLSTV2.o(t._ZN13TExternalizerI21TDataTypeWithPriorityE14ExternalizeAsLEPKvR12RWriteStream)
    TExternalizer<TUid>::ExternalizeAsL(const void*, RWriteStream&) 0x00013def   Thumb Code    14  APGAPLSTV2.o(t._ZN13TExternalizerI4TUidE14ExternalizeAsLEPKvR12RWriteStream)
    TExternalizer<HBufC16>::ExternalizeAsL(const void*, RWriteStream&) 0x00013dfd   Thumb Code    14  APGICNFL.o(t._ZN13TExternalizerI7HBufC16E14ExternalizeAsLEPKvR12RWriteStream)
    TExternalizer<TDataType>::ExternalizeAsL(const void*, RWriteStream&) 0x00013e0b   Thumb Code    14  APGICNFL.o(t._ZN13TExternalizerI9TDataTypeE14ExternalizeAsLEPKvR12RWriteStream)
    TExternalizer<CApaAppInfoFile::TIconHeader>::ExternalizeAsL(const void*, RWriteStream&) 0x00013e19   Thumb Code    12  APGICNFL.o(t._ZN13TExternalizerIN15CApaAppInfoFile11TIconHeaderEE14ExternalizeAsLEPKvR12RWriteStream)
    TExternalizer<CApaAppInfoFile::TCaptionHeader>::ExternalizeAsL(const void*, RWriteStream&) 0x00013e25   Thumb Code    12  APGICNFL.o(t._ZN13TExternalizerIN15CApaAppInfoFile14TCaptionHeaderEE14ExternalizeAsLEPKvR12RWriteStream)
    TExternalizer<CApaAppInfoFile::TDataTypeHeader>::ExternalizeAsL(const void*, RWriteStream&) 0x00013e31   Thumb Code    12  APGICNFL.o(t._ZN13TExternalizerIN15CApaAppInfoFile15TDataTypeHeaderEE14ExternalizeAsLEPKvR12RWriteStream)
    TExternalizer<CApaAppInfoFile::TViewDataHeader>::ExternalizeAsL(const void*, RWriteStream&) 0x00013e3d   Thumb Code    12  APGICNFL.o(t._ZN13TExternalizerIN15CApaAppInfoFile15TViewDataHeaderEE14ExternalizeAsLEPKvR12RWriteStream)
    TExternalizer<CApaAppInfoFile::TFileOwnershipInfoHeader>::ExternalizeAsL(const void*, RWriteStream&) 0x00013e49   Thumb Code    18  APGICNFL.o(t._ZN13TExternalizerIN15CApaAppInfoFile24TFileOwnershipInfoHeaderEE14ExternalizeAsLEPKvR12RWriteStream)
    TInternalizer<TApaAppServiceInfo>::InternalizeAsL(void*, RReadStream&) 0x00013e5b   Thumb Code    12  APGCLI.o(t._ZN13TInternalizerI18TApaAppServiceInfoE14InternalizeAsLEPvR11RReadStream)
    TInternalizer<TDataTypeWithPriority>::InternalizeAsL(void*, RReadStream&) 0x00013e67   Thumb Code    12  APGAPLSTV2.o(t._ZN13TInternalizerI21TDataTypeWithPriorityE14InternalizeAsLEPvR11RReadStream)
    TInternalizer<TUid>::InternalizeAsL(void*, RReadStream&) 0x00013e73   Thumb Code    14  APGCLI.o(t._ZN13TInternalizerI4TUidE14InternalizeAsLEPvR11RReadStream)
    TInternalizer<TDataType>::InternalizeAsL(void*, RReadStream&) 0x00013e81   Thumb Code    12  APGCLI.o(t._ZN13TInternalizerI9TDataTypeE14InternalizeAsLEPvR11RReadStream)
    TInternalizer<CApaAppInfoFile::TIconHeader>::InternalizeAsL(void*, RReadStream&) 0x00013e8d   Thumb Code    12  APGICNFL.o(t._ZN13TInternalizerIN15CApaAppInfoFile11TIconHeaderEE14InternalizeAsLEPvR11RReadStream)
    TInternalizer<CApaAppInfoFile::TCaptionHeader>::InternalizeAsL(void*, RReadStream&) 0x00013e99   Thumb Code    12  APGICNFL.o(t._ZN13TInternalizerIN15CApaAppInfoFile14TCaptionHeaderEE14InternalizeAsLEPvR11RReadStream)
    TInternalizer<CApaAppInfoFile::TDataTypeHeader>::InternalizeAsL(void*, RReadStream&) 0x00013ea5   Thumb Code    12  APGICNFL.o(t._ZN13TInternalizerIN15CApaAppInfoFile15TDataTypeHeaderEE14InternalizeAsLEPvR11RReadStream)
    TInternalizer<CApaAppInfoFile::TViewDataHeader>::InternalizeAsL(void*, RReadStream&) 0x00013eb1   Thumb Code    12  APGICNFL.o(t._ZN13TInternalizerIN15CApaAppInfoFile15TViewDataHeaderEE14InternalizeAsLEPvR11RReadStream)
    TInternalizer<CApaAppInfoFile::TFileOwnershipInfoHeader>::InternalizeAsL(void*, RReadStream&) 0x00013ebd   Thumb Code    18  APGICNFL.o(t._ZN13TInternalizerIN15CApaAppInfoFile24TFileOwnershipInfoHeaderEE14InternalizeAsLEPvR11RReadStream)
    TBuf<(int)256>::TBuf(const TDesC16&)     0x00013ecf   Thumb Code    12  APGICNFL.o(t._ZN4TBufILi256EEC1ERK7TDesC16)
    TBuf<(int)256>::TBuf__sub_object(const TDesC16&) 0x00013ecf   Thumb Code     0  APGICNFL.o(t._ZN4TBufILi256EEC1ERK7TDesC16)
    TBuf<(int)256>::TBuf()                   0x00013edb   Thumb Code    12  APGICNFL.o(t._ZN4TBufILi256EEC1Ev)
    TBuf<(int)256>::TBuf__sub_object()       0x00013edb   Thumb Code     0  APGICNFL.o(t._ZN4TBufILi256EEC1Ev)
    TBuf<(int)256>::operator =(const TDesC16&) 0x00013ee7   Thumb Code    12  APGICNFL.o(t._ZN4TBufILi256EEaSERK7TDesC16)
    TBuf<(int)262>::TBuf(const TDesC16&)     0x00013ef3   Thumb Code    12  APGWGNAM.o(t._ZN4TBufILi262EEC1ERK7TDesC16)
    TBuf<(int)262>::TBuf__sub_object(const TDesC16&) 0x00013ef3   Thumb Code     0  APGWGNAM.o(t._ZN4TBufILi262EEC1ERK7TDesC16)
    TPckg<TApaAppInfo>::TPckg(const TApaAppInfo&) 0x00013eff   Thumb Code    14  APGCLI.o(t._ZN5TPckgI11TApaAppInfoEC1ERKS0_)
    TPckg<TApaAppInfo>::TPckg__sub_object(const TApaAppInfo&) 0x00013eff   Thumb Code     0  APGCLI.o(t._ZN5TPckgI11TApaAppInfoEC1ERKS0_)
    TPckg<TDataRecognitionResult>::TPckg(const TDataRecognitionResult&) 0x00013f0d   Thumb Code    14  APGCLI.o(t._ZN5TPckgI22TDataRecognitionResultEC1ERKS0_)
    TPckg<TDataRecognitionResult>::TPckg__sub_object(const TDataRecognitionResult&) 0x00013f0d   Thumb Code     0  APGCLI.o(t._ZN5TPckgI22TDataRecognitionResultEC1ERKS0_)
    TPckg<SReturnData_AppForDocument>::TPckg(const SReturnData_AppForDocument&) 0x00013f1b   Thumb Code    14  APGCLI.o(t._ZN5TPckgI26SReturnData_AppForDocumentEC1ERKS0_)
    TPckg<SReturnData_AppForDocument>::TPckg__sub_object(const SReturnData_AppForDocument&) 0x00013f1b   Thumb Code     0  APGCLI.o(t._ZN5TPckgI26SReturnData_AppForDocumentEC1ERKS0_)
    TPckg<TBuf<(int)256>>::TPckg(const TBuf<(int)256>&) 0x00013f29   Thumb Code    14  APGCLI.o(t._ZN5TPckgI4TBufILi256EEEC1ERKS1_)
    TPckg<TBuf<(int)256>>::TPckg__sub_object(const TBuf<(int)256>&) 0x00013f29   Thumb Code     0  APGCLI.o(t._ZN5TPckgI4TBufILi256EEEC1ERKS1_)
    TPckg<TUid>::TPckg(const TUid&)          0x00013f37   Thumb Code    12  APGCLI.o(t._ZN5TPckgI4TUidEC1ERKS0_)
    TPckg<TUid>::TPckg__sub_object(const TUid&) 0x00013f37   Thumb Code     0  APGCLI.o(t._ZN5TPckgI4TUidEC1ERKS0_)
    TPckg<TThreadId>::TPckg(const TThreadId&) 0x00013f43   Thumb Code    12  APGCLI.o(t._ZN5TPckgI9TThreadIdEC1ERKS0_)
    TPckg<TThreadId>::TPckg__sub_object(const TThreadId&) 0x00013f43   Thumb Code     0  APGCLI.o(t._ZN5TPckgI9TThreadIdEC1ERKS0_)
    RArray<CApaIconLoader::TKeyValuePair>::operator [](int) 0x00013f4f   Thumb Code     8  APGAIRV2.o(t._ZN6RArrayIN14CApaIconLoader13TKeyValuePairEEixEi)
    TPckgC<TDataType>::TPckgC(const TDataType&) 0x00013f57   Thumb Code    12  APGCLI.o(t._ZN6TPckgCI9TDataTypeEC1ERKS0_)
    TPckgC<TDataType>::TPckgC__sub_object(const TDataType&) 0x00013f57   Thumb Code     0  APGCLI.o(t._ZN6TPckgCI9TDataTypeEC1ERKS0_)
    TIpcArgs::TIpcArgs<const TPckgC<TDataType>*, long, TPckg<TUid>*>(T1, T2, T3) 0x00013f63   Thumb Code    12  APGCLI.o(t._ZN8TIpcArgsC1IPK6TPckgCI9TDataTypeElP5TPckgI4TUidEEET_T0_T1_)
    TIpcArgs::TIpcArgs__sub_object<const TPckgC<TDataType>*, long, TPckg<TUid>*>(T1, T2, T3) 0x00013f63   Thumb Code     0  APGCLI.o(t._ZN8TIpcArgsC1IPK6TPckgCI9TDataTypeElP5TPckgI4TUidEEET_T0_T1_)
    TIpcArgs::TIpcArgs<const TDesC16*, TPckgBuf<unsigned>*, const TDesC8*>(T1, T2, T3) 0x00013f6f   Thumb Code    12  APGCLI.o(t._ZN8TIpcArgsC1IPK7TDesC16P8TPckgBufIjEPK6TDesC8EET_T0_T1_)
    TIpcArgs::TIpcArgs__sub_object<const TDesC16*, TPckgBuf<unsigned>*, const TDesC8*>(T1, T2, T3) 0x00013f6f   Thumb Code     0  APGCLI.o(t._ZN8TIpcArgsC1IPK7TDesC16P8TPckgBufIjEPK6TDesC8EET_T0_T1_)
    TIpcArgs::TIpcArgs<int, int, int, int>(T1, T2, T3, T4) 0x00013f7b   Thumb Code    14  APGCLI.o(t._ZN8TIpcArgsC1IiiiiEET_T0_T1_T2_)
    TIpcArgs::TIpcArgs__sub_object<int, int, int, int>(T1, T2, T3, T4) 0x00013f7b   Thumb Code     0  APGCLI.o(t._ZN8TIpcArgsC1IiiiiEET_T0_T1_T2_)
    TIpcArgs::TIpcArgs<long, TPckgBuf<int>*>(T1, T2) 0x00013f89   Thumb Code    10  APGCLI.o(t._ZN8TIpcArgsC1IlP8TPckgBufIiEEET_T0_)
    TIpcArgs::TIpcArgs__sub_object<long, TPckgBuf<int>*>(T1, T2) 0x00013f89   Thumb Code     0  APGCLI.o(t._ZN8TIpcArgsC1IlP8TPckgBufIiEEET_T0_)
    TIpcArgs::TIpcArgs<long, const TPckgC<TDataType>*, int, TPtr8*>(T1, T2, T3, T4) 0x00013f93   Thumb Code    16  APGCLI.o(t._ZN8TIpcArgsC1IlPK6TPckgCI9TDataTypeEiP5TPtr8EET_T0_T1_T2_)
    TIpcArgs::TIpcArgs__sub_object<long, const TPckgC<TDataType>*, int, TPtr8*>(T1, T2, T3, T4) 0x00013f93   Thumb Code     0  APGCLI.o(t._ZN8TIpcArgsC1IlPK6TPckgCI9TDataTypeEiP5TPtr8EET_T0_T1_T2_)
    TIpcArgs::TIpcArgs<long, int, TPtr8*>(T1, T2, T3) 0x00013fa3   Thumb Code    12  APGCLI.o(t._ZN8TIpcArgsC1IliP5TPtr8EET_T0_T1_)
    TIpcArgs::TIpcArgs__sub_object<long, int, TPtr8*>(T1, T2, T3) 0x00013fa3   Thumb Code     0  APGCLI.o(t._ZN8TIpcArgsC1IliP5TPtr8EET_T0_T1_)
    TIpcArgs::TIpcArgs<long, long, int, TPtr8*>(T1, T2, T3, T4) 0x00013faf   Thumb Code    16  APGCLI.o(t._ZN8TIpcArgsC1IlliP5TPtr8EET_T0_T1_T2_)
    TIpcArgs::TIpcArgs__sub_object<long, long, int, TPtr8*>(T1, T2, T3, T4) 0x00013faf   Thumb Code     0  APGCLI.o(t._ZN8TIpcArgsC1IlliP5TPtr8EET_T0_T1_T2_)
    TPckgBuf<int>::TPckgBuf()                0x00013fbf   Thumb Code    24  APGCLI.o(t._ZN8TPckgBufIiEC1Ev)
    TPckgBuf<int>::TPckgBuf__sub_object()    0x00013fbf   Thumb Code     0  APGCLI.o(t._ZN8TPckgBufIiEC1Ev)
    TPckgBuf<unsigned>::TPckgBuf()           0x00013fd7   Thumb Code    24  APGCLI.o(t._ZN8TPckgBufIjEC1Ev)
    TPckgBuf<unsigned>::TPckgBuf__sub_object() 0x00013fd7   Thumb Code     0  APGCLI.o(t._ZN8TPckgBufIjEC1Ev)
    CArrayFix<TApaAppServiceInfo>::AppendL(const TApaAppServiceInfo&) 0x00013fef   Thumb Code    12  APGAIRV2.o(t._ZN9CArrayFixI18TApaAppServiceInfoE7AppendLERKS0_)
    CArrayFix<TApaAppServiceInfo>::operator [](int) 0x00013ffb   Thumb Code     8  APGAPLSTV2.o(t._ZN9CArrayFixI18TApaAppServiceInfoEixEi)
    CArrayFix<TDataTypeWithPriority>::AppendL(const TDataTypeWithPriority&) 0x00014003   Thumb Code    12  APGICNFL.o(t._ZN9CArrayFixI21TDataTypeWithPriorityE7AppendLERKS0_)
    CArrayFix<CApaAppInfoFile::TIconHeader>::AppendL(const CApaAppInfoFile::TIconHeader&) 0x0001400f   Thumb Code    12  APGICNFL.o(t._ZN9CArrayFixIN15CApaAppInfoFile11TIconHeaderEE7AppendLERKS1_)
    CArrayFix<CApaAppInfoFile::TCaptionHeader>::AppendL(const CApaAppInfoFile::TCaptionHeader&) 0x0001401b   Thumb Code    12  APGICNFL.o(t._ZN9CArrayFixIN15CApaAppInfoFile14TCaptionHeaderEE7AppendLERKS1_)
    CArrayFix<CApaAppInfoFile::TCaptionHeader>::operator [](int) 0x00014027   Thumb Code     8  APGICNFL.o(t._ZN9CArrayFixIN15CApaAppInfoFile14TCaptionHeaderEEixEi)
    CArrayFix<CApaAppInfoFile::TDataTypeHeader>::AppendL(const CApaAppInfoFile::TDataTypeHeader&) 0x0001402f   Thumb Code    12  APGICNFL.o(t._ZN9CArrayFixIN15CApaAppInfoFile15TDataTypeHeaderEE7AppendLERKS1_)
    CArrayFix<CApaAppInfoFile::TViewDataHeader>::AppendL(const CApaAppInfoFile::TViewDataHeader&) 0x0001403b   Thumb Code    12  APGICNFL.o(t._ZN9CArrayFixIN15CApaAppInfoFile15TViewDataHeaderEE7AppendLERKS1_)
    CArrayFix<CApaAppInfoFile::TViewDataHeader>::operator [](int) 0x00014047   Thumb Code     8  APGICNFL.o(t._ZN9CArrayFixIN15CApaAppInfoFile15TViewDataHeaderEEixEi)
    CArrayFix<CApaAppInfoFile::TFileOwnershipInfoHeader>::AppendL(const CApaAppInfoFile::TFileOwnershipInfoHeader&) 0x0001404f   Thumb Code    12  APGICNFL.o(t._ZN9CArrayFixIN15CApaAppInfoFile24TFileOwnershipInfoHeaderEE7AppendLERKS1_)
    CArrayFix<CApaAIFCaption*>::AppendL(CApaAIFCaption*const &) 0x0001405b   Thumb Code    12  APGICNFL.o(t._ZN9CArrayFixIP14CApaAIFCaptionE7AppendLERKS1_)
    CArrayFix<CApaMaskedBitmap*>::AppendL(CApaMaskedBitmap*const &) 0x00014067   Thumb Code    12  APGICNFL.o(t._ZN9CArrayFixIP16CApaMaskedBitmapE7AppendLERKS1_)
    CArrayFix<CApaMaskedBitmap*>::operator [](int) 0x00014073   Thumb Code     8  APGAIRV2.o(t._ZN9CArrayFixIP16CApaMaskedBitmapEixEi)
    CArrayPtr<CApaAIFCaption>::ResetAndDestroy() 0x0001407b   Thumb Code    44  APGICNFL.o(t._ZN9CArrayPtrI14CApaAIFCaptionE15ResetAndDestroyEv)
    CArrayPtr<CApaAppViewData>::ResetAndDestroy() 0x000140a7   Thumb Code    44  APGAPLSTV2.o(t._ZN9CArrayPtrI15CApaAppViewDataE15ResetAndDestroyEv)
    CArrayPtr<CApaMaskedBitmap>::ResetAndDestroy() 0x000140d3   Thumb Code    44  APGICNFL.o(t._ZN9CArrayPtrI16CApaMaskedBitmapE15ResetAndDestroyEv)
    RPointerArray<CDataRecognitionResultArrayEntry>::Count() const 0x000140ff   Thumb Code     8  APGCLI.o(t._ZNK13RPointerArrayI32CDataRecognitionResultArrayEntryE5CountEv)
    operator <<<TCardinality>(RWriteStream&, const T1&) 0x00014107   Thumb Code    20  APGICNFL.o(t._ZlsI12TCardinalityER12RWriteStreamS2_RKT_)
    operator <<<CArrayFixFlat<TApaAppServiceInfo>>(RWriteStream&, const T1&) 0x0001411d   Thumb Code    32  APGAPLSTV2.o(t._ZlsI13CArrayFixFlatI18TApaAppServiceInfoEER12RWriteStreamS4_RKT_)
    operator <<<CApaAIFViewData>(RWriteStream&, const T1&) 0x00014141   Thumb Code    20  APGICNFL.o(t._ZlsI15CApaAIFViewDataER12RWriteStreamS2_RKT_)
    operator <<<CApaMaskedBitmap>(RWriteStream&, const T1&) 0x00014155   Thumb Code    20  APGICNFL.o(t._ZlsI16CApaMaskedBitmapER12RWriteStreamS2_RKT_)
    operator <<<CStreamDictionary>(RWriteStream&, const T1&) 0x00014169   Thumb Code    20  APGDOOR.o(t._ZlsI17CStreamDictionaryER12RWriteStreamS2_RKT_)
    operator <<<TApaAppServiceInfo>(RWriteStream&, const T1&) 0x0001417d   Thumb Code    20  APGAPLSTV2.o(t._ZlsI18TApaAppServiceInfoER12RWriteStreamS2_RKT_)
    operator <<<HBufC16>(RWriteStream&, const T1&) 0x00014191   Thumb Code    20  APGICNFL.o(t._ZlsI7HBufC16ER12RWriteStreamS2_RKT_)
    operator <<<TPtrC16>(RWriteStream&, const T1&) 0x000141a5   Thumb Code    20  APGAPLSTV2.o(t._ZlsI7TPtrC16ER12RWriteStreamS2_RKT_)
    operator <<<TSwizzle<HBufC16>>(RWriteStream&, const T1&) 0x000141b9   Thumb Code    22  APGICNFL.o(t._ZlsI8TSwizzleI7HBufC16EER12RWriteStreamS4_RKT_)
    operator <<<TDataType>(RWriteStream&, const T1&) 0x000141d5   Thumb Code    20  APGICNFL.o(t._ZlsI9TDataTypeER12RWriteStreamS2_RKT_)
    operator >><TCardinality>(RReadStream&, T1&) 0x000141e9   Thumb Code    20  APGICNFL.o(t._ZrsI12TCardinalityER11RReadStreamS2_RT_)
    operator >><CArrayFixFlat<TApaAppServiceInfo>>(RReadStream&, T1&) 0x000141fd   Thumb Code    66  APGCLI.o(t._ZrsI13CArrayFixFlatI18TApaAppServiceInfoEER11RReadStreamS4_RT_)
    operator >><CApaMaskedBitmap>(RReadStream&, T1&) 0x00014251   Thumb Code    20  APGICNFL.o(t._ZrsI16CApaMaskedBitmapER11RReadStreamS2_RT_)
    operator >><TBuf<(int)256>>(RReadStream&, T1&) 0x00014265   Thumb Code    20  APGICNFL.o(t._ZrsI4TBufILi256EEER11RReadStreamS3_RT_)
    operator >><TSwizzle<HBufC16>>(RReadStream&, T1&) 0x00014279   Thumb Code    20  APGICNFL.o(t._ZrsI8TSwizzleI7HBufC16EER11RReadStreamS4_RT_)
    KMinApplicationStackSize                 0x00015078   Data           4  apgconstdata.o(.constdata)
    typeinfo for CApaAppData                 0x0001528c   Data          12  APGAPLSTV2.o(.constdata__ZTI11CApaAppData)
    typeinfo for CApaAppList                 0x00015298   Data          12  APGAPLSTV2.o(.constdata__ZTI11CApaAppList)
    typeinfo for RHandleBase                 0x000152a4   Data           8  APGCLI.o(.constdata__ZTI11RHandleBase)
    typeinfo for CApaAppEntry                0x000152ac   Data          12  APGAPLSTV2.o(.constdata__ZTI12CApaAppEntry)
    typeinfo for MArrayFiller                0x000152b8   Data           8  APGCLI.o(.constdata__ZTI12MArrayFiller)
    typeinfo for RSessionBase                0x000152c0   Data          12  APGCLI.o(.constdata__ZTI12RSessionBase)
    typeinfo for CArrayFixFlat<TApaAppServiceInfo> 0x000152cc   Data          12  APGCLI.o(.constdata__ZTI13CArrayFixFlatI18TApaAppServiceInfoE)
    typeinfo for CArrayFixFlat<TDataTypeWithPriority> 0x000152d8   Data          12  APGAIRV2.o(.constdata__ZTI13CArrayFixFlatI21TDataTypeWithPriorityE)
    typeinfo for CArrayFixFlat<TSize>        0x000152e4   Data          12  APGAIRV2.o(.constdata__ZTI13CArrayFixFlatI5TSizeE)
    typeinfo for CArrayFixFlat<CApaAppInfoFile::TIconHeader> 0x000152f0   Data          12  APGICNFL.o(.constdata__ZTI13CArrayFixFlatIN15CApaAppInfoFile11TIconHeaderEE)
    typeinfo for CArrayFixFlat<CApaAppInfoFile::TCaptionHeader> 0x000152fc   Data          12  APGICNFL.o(.constdata__ZTI13CArrayFixFlatIN15CApaAppInfoFile14TCaptionHeaderEE)
    typeinfo for CArrayFixFlat<CApaAppInfoFile::TDataTypeHeader> 0x00015308   Data          12  APGICNFL.o(.constdata__ZTI13CArrayFixFlatIN15CApaAppInfoFile15TDataTypeHeaderEE)
    typeinfo for CArrayFixFlat<CApaAppInfoFile::TViewDataHeader> 0x00015314   Data          12  APGICNFL.o(.constdata__ZTI13CArrayFixFlatIN15CApaAppInfoFile15TViewDataHeaderEE)
    typeinfo for CArrayFixFlat<CApaAppInfoFile::TFileOwnershipInfoHeader> 0x00015320   Data          12  APGICNFL.o(.constdata__ZTI13CArrayFixFlatIN15CApaAppInfoFile24TFileOwnershipInfoHeaderEE)
    typeinfo for CArrayPtrFlat<CApaAIFCaption> 0x0001532c   Data          12  APGICNFL.o(.constdata__ZTI13CArrayPtrFlatI14CApaAIFCaptionE)
    typeinfo for CArrayPtrFlat<CApaAppViewData> 0x00015338   Data          12  APGAIRV2.o(.constdata__ZTI13CArrayPtrFlatI15CApaAppViewDataE)
    typeinfo for CArrayPtrFlat<CApaMaskedBitmap> 0x00015344   Data          12  APGICNFL.o(.constdata__ZTI13CArrayPtrFlatI16CApaMaskedBitmapE)
    typeinfo for RApaLsSession               0x00015350   Data          24  APGCLI.o(.constdata__ZTI13RApaLsSession)
    typeinfo for CApaAIFCaption              0x00015368   Data          12  APGICNFL.o(.constdata__ZTI14CApaAIFCaption)
    typeinfo for CApaIconLoader              0x00015374   Data          12  APGAIRV2.o(.constdata__ZTI14CApaIconLoader)
    typeinfo for MUnicodeSource              0x00015380   Data           8  APGICNFL.o(.constdata__ZTI14MUnicodeSource)
    typeinfo for CApaAIFViewData             0x00015388   Data          12  APGICNFL.o(.constdata__ZTI15CApaAIFViewData)
    typeinfo for CApaAppInfoFile             0x00015394   Data          12  APGICNFL.o(.constdata__ZTI15CApaAppInfoFile)
    typeinfo for CApaAppViewData             0x000153a0   Data          12  APGAPLSTV2.o(.constdata__ZTI15CApaAppViewData)
    typeinfo for CApaIconPicture             0x000153ac   Data          12  APGPRIV.o(.constdata__ZTI15CApaIconPicture)
    typeinfo for MPictureFactory             0x000153b8   Data           8  APGDOOR.o(.constdata__ZTI15MPictureFactory)
    typeinfo for CApaAppIconArray            0x000153c0   Data          12  APGAIRV2.o(.constdata__ZTI16CApaAppIconArray)
    typeinfo for CApaMaskedBitmap            0x000153cc   Data          12  APGICNFL.o(.constdata__ZTI16CApaMaskedBitmap)
    typeinfo for TDesCArrayFiller            0x000153d8   Data          12  APGCLI.o(.constdata__ZTI16TDesCArrayFiller)
    typeinfo for TSizeArrayFiller            0x000153e4   Data          12  APGCLI.o(.constdata__ZTI16TSizeArrayFiller)
    typeinfo for CApaAppInfoReader           0x000153f0   Data          12  APGAIR.o(.constdata__ZTI17CApaAppInfoReader)
    typeinfo for CApaSystemControl           0x000153fc   Data          12  APGCTL.o(.constdata__ZTI17CApaSystemControl)
    typeinfo for TApaPictureFactory          0x00015408   Data          12  APGDOOR.o(.constdata__ZTI18TApaPictureFactory)
    typeinfo for CApaAppInfoReaderV2         0x00015414   Data          12  APGAIRV2.o(.constdata__ZTI19CApaAppInfoReaderV2)
    typeinfo for CApaAppListNotifier         0x00015420   Data          12  apgnotif.o(.constdata__ZTI19CApaAppListNotifier)
    typeinfo for CApaWindowGroupName         0x0001542c   Data          12  APGWGNAM.o(.constdata__ZTI19CApaWindowGroupName)
    typeinfo for TMemoryUnicodeSource        0x00015438   Data          12  APGICNFL.o(.constdata__ZTI20TMemoryUnicodeSource)
    typeinfo for TViewDataArrayFiller        0x00015444   Data          12  APGCLI.o(.constdata__ZTI20TViewDataArrayFiller)
    typeinfo for CApaAppInfoFileReader       0x00015450   Data          12  APGICNFL.o(.constdata__ZTI21CApaAppInfoFileReader)
    typeinfo for CApaAppInfoFileWriter       0x0001545c   Data          12  APGICNFL.o(.constdata__ZTI21CApaAppInfoFileWriter)
    typeinfo for CApaSystemControlList       0x00015468   Data          12  APGCTL.o(.constdata__ZTI21CApaSystemControlList)
    typeinfo for CAsyncFileRecognition       0x00015474   Data          12  APGCLI.o(.constdata__ZTI21CAsyncFileRecognition)
    typeinfo for CApaLsSessionExtension      0x00015480   Data          12  APGCLI.o(.constdata__ZTI22CApaLsSessionExtension)
    typeinfo for MApaAppListServObserver     0x0001548c   Data           8  apgnotif.o(.constdata__ZTI23MApaAppListServObserver)
    typeinfo for CApaAppCaptionFileReader    0x00015494   Data          12  APGICNFL.o(.constdata__ZTI24CApaAppCaptionFileReader)
    typeinfo for CApaResourceFileWriterBase  0x000154a0   Data          12  APGICNFL.o(.constdata__ZTI26CApaResourceFileWriterBase)
    typeinfo for CDataRecognitionResultArray 0x000154ac   Data          12  APGCLI.o(.constdata__ZTI27CDataRecognitionResultArray)
    typeinfo for CApaAppServiceInfoArrayWrapper 0x000154b8   Data          12  APGAPLSTV2.o(.constdata__ZTI30CApaAppServiceInfoArrayWrapper)
    typeinfo for CDataRecognitionResultArrayEntry 0x000154c4   Data          12  APGCLI.o(.constdata__ZTI32CDataRecognitionResultArrayEntry)
    typeinfo for CApaLocalisableResourceFileWriter 0x000154d0   Data          12  APGICNFL.o(.constdata__ZTI33CApaLocalisableResourceFileWriter)
    typeinfo for CApaRegistrationResourceFileWriter 0x000154dc   Data          12  APGICNFL.o(.constdata__ZTI34CApaRegistrationResourceFileWriter)
    typeinfo for HBufBuf                     0x000154e8   Data          12  APGDOOR.o(.constdata__ZTI7HBufBuf)
    typeinfo for CApaDoor                    0x000154f4   Data          12  APGDOOR.o(.constdata__ZTI8CApaDoor)
    typeinfo for CArrayFix<TApaAppServiceInfo> 0x00015500   Data          12  APGCLI.o(.constdata__ZTI9CArrayFixI18TApaAppServiceInfoE)
    typeinfo for CArrayFix<TDataTypeWithPriority> 0x0001550c   Data          12  APGAIRV2.o(.constdata__ZTI9CArrayFixI21TDataTypeWithPriorityE)
    typeinfo for CArrayFix<TSize>            0x00015518   Data          12  APGAIRV2.o(.constdata__ZTI9CArrayFixI5TSizeE)
    typeinfo for CArrayFix<CApaAppInfoFile::TIconHeader> 0x00015524   Data          12  APGICNFL.o(.constdata__ZTI9CArrayFixIN15CApaAppInfoFile11TIconHeaderEE)
    typeinfo for CArrayFix<CApaAppInfoFile::TCaptionHeader> 0x00015530   Data          12  APGICNFL.o(.constdata__ZTI9CArrayFixIN15CApaAppInfoFile14TCaptionHeaderEE)
    typeinfo for CArrayFix<CApaAppInfoFile::TDataTypeHeader> 0x0001553c   Data          12  APGICNFL.o(.constdata__ZTI9CArrayFixIN15CApaAppInfoFile15TDataTypeHeaderEE)
    typeinfo for CArrayFix<CApaAppInfoFile::TViewDataHeader> 0x00015548   Data          12  APGICNFL.o(.constdata__ZTI9CArrayFixIN15CApaAppInfoFile15TViewDataHeaderEE)
    typeinfo for CArrayFix<CApaAppInfoFile::TFileOwnershipInfoHeader> 0x00015554   Data          12  APGICNFL.o(.constdata__ZTI9CArrayFixIN15CApaAppInfoFile24TFileOwnershipInfoHeaderEE)
    typeinfo for CArrayFix<CApaAIFCaption*>  0x00015560   Data          12  APGICNFL.o(.constdata__ZTI9CArrayFixIP14CApaAIFCaptionE)
    typeinfo for CArrayFix<CApaAppViewData*> 0x0001556c   Data          12  APGAIRV2.o(.constdata__ZTI9CArrayFixIP15CApaAppViewDataE)
    typeinfo for CArrayFix<CApaMaskedBitmap*> 0x00015578   Data          12  APGICNFL.o(.constdata__ZTI9CArrayFixIP16CApaMaskedBitmapE)
    typeinfo for CArrayPtr<CApaAIFCaption>   0x00015584   Data          12  APGICNFL.o(.constdata__ZTI9CArrayPtrI14CApaAIFCaptionE)
    typeinfo for CArrayPtr<CApaAppViewData>  0x00015590   Data          12  APGAIRV2.o(.constdata__ZTI9CArrayPtrI15CApaAppViewDataE)
    typeinfo for CArrayPtr<CApaMaskedBitmap> 0x0001559c   Data          12  APGICNFL.o(.constdata__ZTI9CArrayPtrI16CApaMaskedBitmapE)
    typeinfo for CApaAppList::CApaAppListStorer 0x000155a8   Data          12  APGAPLSTV2.o(.constdata__ZTIN11CApaAppList17CApaAppListStorerE)
    typeinfo for CApaAppList::CApaIdleIconLoader 0x000155b4   Data          12  APGAPLSTV2.o(.constdata__ZTIN11CApaAppList18CApaIdleIconLoaderE)
    typeinfo for CApaAppList::CApaLangChangeMonitor 0x000155c0   Data          12  APGAPLSTV2.o(.constdata__ZTIN11CApaAppList21CApaLangChangeMonitorE)
    typeinfo for CApaResourceFileWriterBase::RBufferSink 0x000155cc   Data          12  APGICNFL.o(.constdata__ZTIN26CApaResourceFileWriterBase11RBufferSinkE)
    typeinfo for CApaResourceFileWriterBase::MDataSink 0x000155d8   Data           8  APGICNFL.o(.constdata__ZTIN26CApaResourceFileWriterBase9MDataSinkE)
    typeinfo name for CApaAppData            0x000155e0   Data          14  APGAPLSTV2.o(.constdata__ZTS11CApaAppData)
    typeinfo name for CApaAppList            0x000155ee   Data          14  APGAPLSTV2.o(.constdata__ZTS11CApaAppList)
    typeinfo name for RHandleBase            0x000155fc   Data          14  APGCLI.o(.constdata__ZTS11RHandleBase)
    typeinfo name for CApaAppEntry           0x0001560a   Data          15  APGAPLSTV2.o(.constdata__ZTS12CApaAppEntry)
    typeinfo name for MArrayFiller           0x00015619   Data          15  APGCLI.o(.constdata__ZTS12MArrayFiller)
    typeinfo name for RSessionBase           0x00015628   Data          15  APGCLI.o(.constdata__ZTS12RSessionBase)
    typeinfo name for CArrayFixFlat<TApaAppServiceInfo> 0x00015637   Data          38  APGCLI.o(.constdata__ZTS13CArrayFixFlatI18TApaAppServiceInfoE)
    typeinfo name for CArrayFixFlat<TDataTypeWithPriority> 0x0001565d   Data          41  APGAIRV2.o(.constdata__ZTS13CArrayFixFlatI21TDataTypeWithPriorityE)
    typeinfo name for CArrayFixFlat<TSize>   0x00015686   Data          24  APGAIRV2.o(.constdata__ZTS13CArrayFixFlatI5TSizeE)
    typeinfo name for CArrayFixFlat<CApaAppInfoFile::TIconHeader> 0x0001569e   Data          50  APGICNFL.o(.constdata__ZTS13CArrayFixFlatIN15CApaAppInfoFile11TIconHeaderEE)
    typeinfo name for CArrayFixFlat<CApaAppInfoFile::TCaptionHeader> 0x000156d0   Data          53  APGICNFL.o(.constdata__ZTS13CArrayFixFlatIN15CApaAppInfoFile14TCaptionHeaderEE)
    typeinfo name for CArrayFixFlat<CApaAppInfoFile::TDataTypeHeader> 0x00015705   Data          54  APGICNFL.o(.constdata__ZTS13CArrayFixFlatIN15CApaAppInfoFile15TDataTypeHeaderEE)
    typeinfo name for CArrayFixFlat<CApaAppInfoFile::TViewDataHeader> 0x0001573b   Data          54  APGICNFL.o(.constdata__ZTS13CArrayFixFlatIN15CApaAppInfoFile15TViewDataHeaderEE)
    typeinfo name for CArrayFixFlat<CApaAppInfoFile::TFileOwnershipInfoHeader> 0x00015771   Data          63  APGICNFL.o(.constdata__ZTS13CArrayFixFlatIN15CApaAppInfoFile24TFileOwnershipInfoHeaderEE)
    typeinfo name for CArrayPtrFlat<CApaAIFCaption> 0x000157b0   Data          34  APGICNFL.o(.constdata__ZTS13CArrayPtrFlatI14CApaAIFCaptionE)
    typeinfo name for CArrayPtrFlat<CApaAppViewData> 0x000157d2   Data          35  APGAIRV2.o(.constdata__ZTS13CArrayPtrFlatI15CApaAppViewDataE)
    typeinfo name for CArrayPtrFlat<CApaMaskedBitmap> 0x000157f5   Data          36  APGICNFL.o(.constdata__ZTS13CArrayPtrFlatI16CApaMaskedBitmapE)
    typeinfo name for RApaLsSession          0x00015819   Data          16  APGCLI.o(.constdata__ZTS13RApaLsSession)
    typeinfo name for CApaAIFCaption         0x00015829   Data          17  APGICNFL.o(.constdata__ZTS14CApaAIFCaption)
    typeinfo name for CApaIconLoader         0x0001583a   Data          17  APGAIRV2.o(.constdata__ZTS14CApaIconLoader)
    typeinfo name for MUnicodeSource         0x0001584b   Data          17  APGICNFL.o(.constdata__ZTS14MUnicodeSource)
    typeinfo name for CApaAIFViewData        0x0001585c   Data          18  APGICNFL.o(.constdata__ZTS15CApaAIFViewData)
    typeinfo name for CApaAppInfoFile        0x0001586e   Data          18  APGICNFL.o(.constdata__ZTS15CApaAppInfoFile)
    typeinfo name for CApaAppViewData        0x00015880   Data          18  APGAPLSTV2.o(.constdata__ZTS15CApaAppViewData)
    typeinfo name for CApaIconPicture        0x00015892   Data          18  APGPRIV.o(.constdata__ZTS15CApaIconPicture)
    typeinfo name for MPictureFactory        0x000158a4   Data          18  APGDOOR.o(.constdata__ZTS15MPictureFactory)
    typeinfo name for CApaAppIconArray       0x000158b6   Data          19  APGAIRV2.o(.constdata__ZTS16CApaAppIconArray)
    typeinfo name for CApaMaskedBitmap       0x000158c9   Data          19  APGICNFL.o(.constdata__ZTS16CApaMaskedBitmap)
    typeinfo name for TDesCArrayFiller       0x000158dc   Data          19  APGCLI.o(.constdata__ZTS16TDesCArrayFiller)
    typeinfo name for TSizeArrayFiller       0x000158ef   Data          19  APGCLI.o(.constdata__ZTS16TSizeArrayFiller)
    typeinfo name for CApaAppInfoReader      0x00015902   Data          20  APGAIR.o(.constdata__ZTS17CApaAppInfoReader)
    typeinfo name for CApaSystemControl      0x00015916   Data          20  APGCTL.o(.constdata__ZTS17CApaSystemControl)
    typeinfo name for TApaPictureFactory     0x0001592a   Data          21  APGDOOR.o(.constdata__ZTS18TApaPictureFactory)
    typeinfo name for CApaAppInfoReaderV2    0x0001593f   Data          22  APGAIRV2.o(.constdata__ZTS19CApaAppInfoReaderV2)
    typeinfo name for CApaAppListNotifier    0x00015955   Data          22  apgnotif.o(.constdata__ZTS19CApaAppListNotifier)
    typeinfo name for CApaWindowGroupName    0x0001596b   Data          22  APGWGNAM.o(.constdata__ZTS19CApaWindowGroupName)
    typeinfo name for TMemoryUnicodeSource   0x00015981   Data          23  APGICNFL.o(.constdata__ZTS20TMemoryUnicodeSource)
    typeinfo name for TViewDataArrayFiller   0x00015998   Data          23  APGCLI.o(.constdata__ZTS20TViewDataArrayFiller)
    typeinfo name for CApaAppInfoFileReader  0x000159af   Data          24  APGICNFL.o(.constdata__ZTS21CApaAppInfoFileReader)
    typeinfo name for CApaAppInfoFileWriter  0x000159c7   Data          24  APGICNFL.o(.constdata__ZTS21CApaAppInfoFileWriter)
    typeinfo name for CApaSystemControlList  0x000159df   Data          24  APGCTL.o(.constdata__ZTS21CApaSystemControlList)
    typeinfo name for CAsyncFileRecognition  0x000159f7   Data          24  APGCLI.o(.constdata__ZTS21CAsyncFileRecognition)
    typeinfo name for CApaLsSessionExtension 0x00015a0f   Data          25  APGCLI.o(.constdata__ZTS22CApaLsSessionExtension)
    typeinfo name for MApaAppListServObserver 0x00015a28   Data          26  apgnotif.o(.constdata__ZTS23MApaAppListServObserver)
    typeinfo name for CApaAppCaptionFileReader 0x00015a42   Data          27  APGICNFL.o(.constdata__ZTS24CApaAppCaptionFileReader)
    typeinfo name for CApaResourceFileWriterBase 0x00015a5d   Data          29  APGICNFL.o(.constdata__ZTS26CApaResourceFileWriterBase)
    typeinfo name for CDataRecognitionResultArray 0x00015a7a   Data          30  APGCLI.o(.constdata__ZTS27CDataRecognitionResultArray)
    typeinfo name for CApaAppServiceInfoArrayWrapper 0x00015a98   Data          33  APGAPLSTV2.o(.constdata__ZTS30CApaAppServiceInfoArrayWrapper)
    typeinfo name for CDataRecognitionResultArrayEntry 0x00015ab9   Data          35  APGCLI.o(.constdata__ZTS32CDataRecognitionResultArrayEntry)
    typeinfo name for CApaLocalisableResourceFileWriter 0x00015adc   Data          36  APGICNFL.o(.constdata__ZTS33CApaLocalisableResourceFileWriter)
    typeinfo name for CApaRegistrationResourceFileWriter 0x00015b00   Data          37  APGICNFL.o(.constdata__ZTS34CApaRegistrationResourceFileWriter)
    typeinfo name for HBufBuf                0x00015b25   Data           9  APGDOOR.o(.constdata__ZTS7HBufBuf)
    typeinfo name for CApaDoor               0x00015b2e   Data          10  APGDOOR.o(.constdata__ZTS8CApaDoor)
    typeinfo name for CArrayFix<TApaAppServiceInfo> 0x00015b38   Data          33  APGCLI.o(.constdata__ZTS9CArrayFixI18TApaAppServiceInfoE)
    typeinfo name for CArrayFix<TDataTypeWithPriority> 0x00015b59   Data          36  APGAIRV2.o(.constdata__ZTS9CArrayFixI21TDataTypeWithPriorityE)
    typeinfo name for CArrayFix<TSize>       0x00015b7d   Data          19  APGAIRV2.o(.constdata__ZTS9CArrayFixI5TSizeE)
    typeinfo name for CArrayFix<CApaAppInfoFile::TIconHeader> 0x00015b90   Data          45  APGICNFL.o(.constdata__ZTS9CArrayFixIN15CApaAppInfoFile11TIconHeaderEE)
    typeinfo name for CArrayFix<CApaAppInfoFile::TCaptionHeader> 0x00015bbd   Data          48  APGICNFL.o(.constdata__ZTS9CArrayFixIN15CApaAppInfoFile14TCaptionHeaderEE)
    typeinfo name for CArrayFix<CApaAppInfoFile::TDataTypeHeader> 0x00015bed   Data          49  APGICNFL.o(.constdata__ZTS9CArrayFixIN15CApaAppInfoFile15TDataTypeHeaderEE)
    typeinfo name for CArrayFix<CApaAppInfoFile::TViewDataHeader> 0x00015c1e   Data          49  APGICNFL.o(.constdata__ZTS9CArrayFixIN15CApaAppInfoFile15TViewDataHeaderEE)
    typeinfo name for CArrayFix<CApaAppInfoFile::TFileOwnershipInfoHeader> 0x00015c4f   Data          58  APGICNFL.o(.constdata__ZTS9CArrayFixIN15CApaAppInfoFile24TFileOwnershipInfoHeaderEE)
    typeinfo name for CArrayFix<CApaAIFCaption*> 0x00015c89   Data          30  APGICNFL.o(.constdata__ZTS9CArrayFixIP14CApaAIFCaptionE)
    typeinfo name for CArrayFix<CApaAppViewData*> 0x00015ca7   Data          31  APGAIRV2.o(.constdata__ZTS9CArrayFixIP15CApaAppViewDataE)
    typeinfo name for CArrayFix<CApaMaskedBitmap*> 0x00015cc6   Data          32  APGICNFL.o(.constdata__ZTS9CArrayFixIP16CApaMaskedBitmapE)
    typeinfo name for CArrayPtr<CApaAIFCaption> 0x00015ce6   Data          29  APGICNFL.o(.constdata__ZTS9CArrayPtrI14CApaAIFCaptionE)
    typeinfo name for CArrayPtr<CApaAppViewData> 0x00015d03   Data          30  APGAIRV2.o(.constdata__ZTS9CArrayPtrI15CApaAppViewDataE)
    typeinfo name for CArrayPtr<CApaMaskedBitmap> 0x00015d21   Data          31  APGICNFL.o(.constdata__ZTS9CArrayPtrI16CApaMaskedBitmapE)
    typeinfo name for CApaAppList::CApaAppListStorer 0x00015d40   Data          35  APGAPLSTV2.o(.constdata__ZTSN11CApaAppList17CApaAppListStorerE)
    typeinfo name for CApaAppList::CApaIdleIconLoader 0x00015d63   Data          36  APGAPLSTV2.o(.constdata__ZTSN11CApaAppList18CApaIdleIconLoaderE)
    typeinfo name for CApaAppList::CApaLangChangeMonitor 0x00015d87   Data          39  APGAPLSTV2.o(.constdata__ZTSN11CApaAppList21CApaLangChangeMonitorE)
    typeinfo name for CApaResourceFileWriterBase::RBufferSink 0x00015dae   Data          44  APGICNFL.o(.constdata__ZTSN26CApaResourceFileWriterBase11RBufferSinkE)
    typeinfo name for CApaResourceFileWriterBase::MDataSink 0x00015dda   Data          41  APGICNFL.o(.constdata__ZTSN26CApaResourceFileWriterBase9MDataSinkE)
    vtable for CApaAppData                   0x00015e04   Data          20  APGAPLSTV2.o(.constdata__ZTV11CApaAppData)
    vtable for CApaAppList                   0x00015e18   Data          20  APGAPLSTV2.o(.constdata__ZTV11CApaAppList)
    vtable for CApaAppEntry                  0x00015e2c   Data          20  APGAPLSTV2.o(.constdata__ZTV12CApaAppEntry)
    vtable for CArrayFixFlat<TApaAppServiceInfo> 0x00015e40   Data          20  APGCLI.o(.constdata__ZTV13CArrayFixFlatI18TApaAppServiceInfoE)
    vtable for CArrayFixFlat<TDataTypeWithPriority> 0x00015e54   Data          20  APGAIRV2.o(.constdata__ZTV13CArrayFixFlatI21TDataTypeWithPriorityE)
    vtable for CArrayFixFlat<TSize>          0x00015e68   Data          20  APGAIRV2.o(.constdata__ZTV13CArrayFixFlatI5TSizeE)
    vtable for CArrayFixFlat<CApaAppInfoFile::TIconHeader> 0x00015e7c   Data          20  APGICNFL.o(.constdata__ZTV13CArrayFixFlatIN15CApaAppInfoFile11TIconHeaderEE)
    vtable for CArrayFixFlat<CApaAppInfoFile::TCaptionHeader> 0x00015e90   Data          20  APGICNFL.o(.constdata__ZTV13CArrayFixFlatIN15CApaAppInfoFile14TCaptionHeaderEE)
    vtable for CArrayFixFlat<CApaAppInfoFile::TDataTypeHeader> 0x00015ea4   Data          20  APGICNFL.o(.constdata__ZTV13CArrayFixFlatIN15CApaAppInfoFile15TDataTypeHeaderEE)
    vtable for CArrayFixFlat<CApaAppInfoFile::TViewDataHeader> 0x00015eb8   Data          20  APGICNFL.o(.constdata__ZTV13CArrayFixFlatIN15CApaAppInfoFile15TViewDataHeaderEE)
    vtable for CArrayFixFlat<CApaAppInfoFile::TFileOwnershipInfoHeader> 0x00015ecc   Data          20  APGICNFL.o(.constdata__ZTV13CArrayFixFlatIN15CApaAppInfoFile24TFileOwnershipInfoHeaderEE)
    vtable for CArrayPtrFlat<CApaAIFCaption> 0x00015ee0   Data          20  APGICNFL.o(.constdata__ZTV13CArrayPtrFlatI14CApaAIFCaptionE)
    vtable for CArrayPtrFlat<CApaAppViewData> 0x00015ef4   Data          20  APGAIRV2.o(.constdata__ZTV13CArrayPtrFlatI15CApaAppViewDataE)
    vtable for CArrayPtrFlat<CApaMaskedBitmap> 0x00015f08   Data          20  APGICNFL.o(.constdata__ZTV13CArrayPtrFlatI16CApaMaskedBitmapE)
    vtable for RApaLsSession                 0x00015f1c   Data          16  APGCLI.o(.constdata__ZTV13RApaLsSession)
    vtable for CApaAIFCaption                0x00015f2c   Data          20  APGICNFL.o(.constdata__ZTV14CApaAIFCaption)
    vtable for CApaIconLoader                0x00015f40   Data          20  APGAIRV2.o(.constdata__ZTV14CApaIconLoader)
    vtable for CApaAIFViewData               0x00015f54   Data          20  APGICNFL.o(.constdata__ZTV15CApaAIFViewData)
    vtable for CApaAppInfoFile               0x00015f68   Data          20  APGICNFL.o(.constdata__ZTV15CApaAppInfoFile)
    vtable for CApaAppViewData               0x00015f7c   Data          20  APGAPLSTV2.o(.constdata__ZTV15CApaAppViewData)
    vtable for CApaIconPicture               0x00015f90   Data          72  APGPRIV.o(.constdata__ZTV15CApaIconPicture)
    vtable for CApaAppIconArray              0x00015fd8   Data          20  APGAIRV2.o(.constdata__ZTV16CApaAppIconArray)
    vtable for CApaMaskedBitmap              0x00015fec   Data          20  APGICNFL.o(.constdata__ZTV16CApaMaskedBitmap)
    vtable for TDesCArrayFiller              0x00016000   Data          12  APGCLI.o(.constdata__ZTV16TDesCArrayFiller)
    vtable for TSizeArrayFiller              0x0001600c   Data          12  APGCLI.o(.constdata__ZTV16TSizeArrayFiller)
    vtable for CApaAppInfoReader             0x00016018   Data          28  APGAIR.o(.constdata__ZTV17CApaAppInfoReader)
    vtable for CApaSystemControl             0x00016034   Data          20  APGCTL.o(.constdata__ZTV17CApaSystemControl)
    vtable for TApaPictureFactory            0x00016048   Data          12  APGDOOR.o(.constdata__ZTV18TApaPictureFactory)
    vtable for CApaAppInfoReaderV2           0x00016054   Data          28  APGAIRV2.o(.constdata__ZTV19CApaAppInfoReaderV2)
    vtable for CApaAppListNotifier           0x00016070   Data          32  apgnotif.o(.constdata__ZTV19CApaAppListNotifier)
    vtable for CApaWindowGroupName           0x00016090   Data          20  APGWGNAM.o(.constdata__ZTV19CApaWindowGroupName)
    vtable for TMemoryUnicodeSource          0x000160a4   Data          12  APGICNFL.o(.constdata__ZTV20TMemoryUnicodeSource)
    vtable for TViewDataArrayFiller          0x000160b0   Data          12  APGCLI.o(.constdata__ZTV20TViewDataArrayFiller)
    vtable for CApaAppInfoFileReader         0x000160bc   Data          20  APGICNFL.o(.constdata__ZTV21CApaAppInfoFileReader)
    vtable for CApaAppInfoFileWriter         0x000160d0   Data          20  APGICNFL.o(.constdata__ZTV21CApaAppInfoFileWriter)
    vtable for CApaSystemControlList         0x000160e4   Data          20  APGCTL.o(.constdata__ZTV21CApaSystemControlList)
    vtable for CAsyncFileRecognition         0x000160f8   Data          32  APGCLI.o(.constdata__ZTV21CAsyncFileRecognition)
    vtable for CApaLsSessionExtension        0x00016118   Data          20  APGCLI.o(.constdata__ZTV22CApaLsSessionExtension)
    vtable for MApaAppListServObserver       0x0001612c   Data          20  apgnotif.o(.constdata__ZTV23MApaAppListServObserver)
    vtable for CApaAppCaptionFileReader      0x00016140   Data          20  APGICNFL.o(.constdata__ZTV24CApaAppCaptionFileReader)
    vtable for CApaResourceFileWriterBase    0x00016154   Data          28  APGICNFL.o(.constdata__ZTV26CApaResourceFileWriterBase)
    vtable for CDataRecognitionResultArray   0x00016170   Data          20  APGCLI.o(.constdata__ZTV27CDataRecognitionResultArray)
    vtable for CApaAppServiceInfoArrayWrapper 0x00016184   Data          32  APGAPLSTV2.o(.constdata__ZTV30CApaAppServiceInfoArrayWrapper)
    vtable for CDataRecognitionResultArrayEntry 0x000161a4   Data          20  APGCLI.o(.constdata__ZTV32CDataRecognitionResultArrayEntry)
    vtable for CApaLocalisableResourceFileWriter 0x000161b8   Data          28  APGICNFL.o(.constdata__ZTV33CApaLocalisableResourceFileWriter)
    vtable for CApaRegistrationResourceFileWriter 0x000161d4   Data          28  APGICNFL.o(.constdata__ZTV34CApaRegistrationResourceFileWriter)
    vtable for HBufBuf                       0x000161f0   Data          52  APGDOOR.o(.constdata__ZTV7HBufBuf)
    vtable for CApaDoor                      0x00016224   Data          84  APGDOOR.o(.constdata__ZTV8CApaDoor)
    vtable for CApaAppList::CApaAppListStorer 0x00016278   Data          32  APGAPLSTV2.o(.constdata__ZTVN11CApaAppList17CApaAppListStorerE)
    vtable for CApaAppList::CApaIdleIconLoader 0x00016298   Data          32  APGAPLSTV2.o(.constdata__ZTVN11CApaAppList18CApaIdleIconLoaderE)
    vtable for CApaAppList::CApaLangChangeMonitor 0x000162b8   Data          32  APGAPLSTV2.o(.constdata__ZTVN11CApaAppList21CApaLangChangeMonitorE)
    vtable for CApaResourceFileWriterBase::RBufferSink 0x000162d8   Data          12  APGICNFL.o(.constdata__ZTVN26CApaResourceFileWriterBase11RBufferSinkE)
    vtable for CApaResourceFileWriterBase::MDataSink 0x000162e4   Data          12  APGICNFL.o(.constdata__ZTVN26CApaResourceFileWriterBase9MDataSinkE)
    .ARM.exidx$$Base                         0x000162f0   Number         0  ucppinit_aeabi.o(.ARM.exidx)
    .ARM.exidx$$Limit                        0x000172a0   Number         0  APGICNFL.o(.ARM.exidx)
    Image$$ER_RO$$Limit                      0x000172a0   Number         0  anon$$obj.o(linker$$defined$$symbols)

