ARM Linker, RVCT2.2 [Build 616]

================================================================================

Image Symbol Table

    Local Symbols

    Symbol Name                              Value     Ov Type        Size  Object(Section)

    ../../unhosted.s                         0x00000000   Number         0  switch8.o ABSOLUTE
    \EPOC32\BUILD\src\cedar\generic\base\e32\euser\EDLL\ARMV5\urel\uc_dll_.cpp 0x00000000   Number         0  uc_dll_.o ABSOLUTE
    \\EPOC32\\BUILD\\src\\cedar\\generic\\base\\e32\\euser\\EDLL\\ARMV5\\urel\\uc_dll_.cpp 0x00000000   Number         0  uc_dll_.o ABSOLUTE
    \\src\\cedar\\generic\\base\\e32\\compsupp\\RVCT2_2\\ucppinit_aeabi.cpp 0x00000000   Number         0  ucppinit_aeabi.o ABSOLUTE
    \src\cedar\generic\base\e32\compsupp\RVCT2_2\dllexp.cpp 0x00000000   Number         0  dllexp.o ABSOLUTE
    \src\cedar\generic\base\e32\compsupp\RVCT2_2\ucppinit_aeabi.cpp 0x00000000   Number         0  ucppinit_aeabi.o ABSOLUTE
    \src\cedar\generic\base\e32\euser\EPOC\up_dll_tls.cpp 0x00000000   Number         0  up_dll_tls.o ABSOLUTE
    \src\cedar\generic\base\e32\euser\epoc\arm\uc_dll.cpp 0x00000000   Number         0  uc_dll.o ABSOLUTE
    \src\common\generic\ser-comms\c32\CCOMM\cc_cli.cpp 0x00000000   Number         0  CC_CLI.o ABSOLUTE
    \src\common\generic\ser-comms\c32\CCOMM\cc_utl.cpp 0x00000000   Number         0  CC_UTL.o ABSOLUTE
    \src\common\generic\ser-comms\c32\SCOMM\cs_glob.cpp 0x00000000   Number         0  cs_glob.o ABSOLUTE
    \src\common\generic\ser-comms\c32\SCOMM\cs_log.cpp 0x00000000   Number         0  CS_LOG.o ABSOLUTE
    \src\common\generic\ser-comms\c32\SCOMM\cs_man.cpp 0x00000000   Number         0  CS_MAN.o ABSOLUTE
    \src\common\generic\ser-comms\c32\SCOMM\cs_port.cpp 0x00000000   Number         0  CS_PORT.o ABSOLUTE
    \src\common\generic\ser-comms\c32\SCOMM\cs_roles.cpp 0x00000000   Number         0  cs_roles.o ABSOLUTE
    \src\common\generic\ser-comms\c32\SCOMM\cs_ses.cpp 0x00000000   Number         0  CS_SES.o ABSOLUTE
    \src\common\generic\ser-comms\c32\SCOMM\cs_svr.cpp 0x00000000   Number         0  CS_SVR.o ABSOLUTE
    \src\common\generic\ser-comms\c32\SCOMM\cs_thread.cpp 0x00000000   Number         0  cs_thread.o ABSOLUTE
    \src\common\generic\ser-comms\c32\SCOMM\cs_time.cpp 0x00000000   Number         0  CS_TIME.o ABSOLUTE
    \src\common\generic\ser-comms\c32\SCOMM\cs_utl.cpp 0x00000000   Number         0  CS_UTL.o ABSOLUTE
    \src\common\generic\ser-comms\c32\SCOMM\cs_v02.cpp 0x00000000   Number         0  CS_V02.o ABSOLUTE
    .emb_text                                0x00008000   Section       40  uc_dll_.o(.emb_text)
    .emb_text                                0x00008028   Section       72  ucppinit_aeabi.o(.emb_text)
    skip                                     0x0000803c   ARM Code       0  ucppinit_aeabi.o(.emb_text)
    loop                                     0x0000804c   ARM Code       0  ucppinit_aeabi.o(.emb_text)
    fpinit                                   0x00008064   Data           0  ucppinit_aeabi.o(.emb_text)
    base                                     0x00008068   Data           0  ucppinit_aeabi.o(.emb_text)
    limit                                    0x0000806c   Data           0  ucppinit_aeabi.o(.emb_text)
    .text                                    0x000086e0   Section     2180  CC_CLI.o(.text)
    .text                                    0x00008f64   Section       68  CC_UTL.o(.text)
    CloseCObject(void*)                      0x00008fa9   Thumb Code     6  CS_MAN.o(.text)
    .text                                    0x00008fa8   Section      808  CS_MAN.o(.text)
    CloseLibrary(void*)                      0x00008faf   Thumb Code     8  CS_MAN.o(.text)
    .text                                    0x000092d0   Section     2876  CS_PORT.o(.text)
    .text                                    0x00009e0c   Section     3108  CS_SES.o(.text)
    .text                                    0x0000aa30   Section      408  CS_SVR.o(.text)
    .text                                    0x0000abc8   Section      236  CS_TIME.o(.text)
    .text                                    0x0000acb4   Section       28  CS_UTL.o(.text)
    .text                                    0x0000acd0   Section     1194  CS_V02.o(.text)
    .text                                    0x0000b17c   Section     9012  cs_roles.o(.text)
    .text                                    0x0000d4b0   Section     2208  cs_thread.o(.text)
    LoadDeviceDrivers()                      0x0000dce1   Thumb Code    98  cs_thread.o(.text)
    .text                                    0x0000dd50   Section      432  cs_glob.o(.text)
    .text                                    0x0000df00   Section        4  CS_LOG.o(.text)
    .text                                    0x0000df04   Section       24  switch8.o(.text)
    .text                                    0x0000df1c   Section       40  uc_dll.o(.text)
    .text                                    0x0000df44   Section       44  up_dll_tls.o(.text)
    .text                                    0x0000df70   Section        4  dllexp.o(.text)
    .text.clean                              0x0000df74   Section       18  CS_MAN.o(.text.clean)
    .text.clean                              0x0000df86   Section       44  CS_PORT.o(.text.clean)
    .text.clean                              0x0000dfb2   Section       46  CS_SES.o(.text.clean)
    .text.clean                              0x0000dfe0   Section       18  CS_SVR.o(.text.clean)
    .text.clean                              0x0000dff2   Section        8  CS_TIME.o(.text.clean)
    .text.clean                              0x0000dffa   Section      198  cs_roles.o(.text.clean)
    .text.clean                              0x0000e0c0   Section       18  cs_thread.o(.text.clean)
    .text.clean                              0x0000e0d2   Section       10  cs_glob.o(.text.clean)
    i._Z13CC32DataInTlsv                     0x0000e0dc   Section       10  cs_thread.o(i._Z13CC32DataInTlsv)
    i._ZN11TSerialInfoC1Ev                   0x0000e0e6   Section       18  cs_roles.o(i._ZN11TSerialInfoC1Ev)
    i._ZN12CCommSession21CC32SessionCloseTimerD0Ev 0x0000e0f8   Section       16  CS_SES.o(i._ZN12CCommSession21CC32SessionCloseTimerD0Ev)
    i._ZN12CCommSession21CC32SessionCloseTimerD1Ev 0x0000e108   Section        8  CS_SES.o(i._ZN12CCommSession21CC32SessionCloseTimerD1Ev)
    i._ZN12CLibUnloaderD0Ev                  0x0000e110   Section       16  CS_PORT.o(i._ZN12CLibUnloaderD0Ev)
    i._ZN12CLibUnloaderD1Ev                  0x0000e120   Section        8  CS_PORT.o(i._ZN12CLibUnloaderD1Ev)
    i._ZN14CCommSchedulerD0Ev                0x0000e128   Section       16  CS_SVR.o(i._ZN14CCommSchedulerD0Ev)
    i._ZN14CCommSchedulerD1Ev                0x0000e138   Section        8  CS_SVR.o(i._ZN14CCommSchedulerD1Ev)
    i._ZN15CCommSubSession5CloseEv           0x0000e140   Section       16  cs_roles.o(i._ZN15CCommSubSession5CloseEv)
    i._ZN15CCommSubSessionD0Ev               0x0000e150   Section       16  CS_SES.o(i._ZN15CCommSubSessionD0Ev)
    i._ZN15CCommSubSessionD1Ev               0x0000e160   Section        8  CS_SES.o(i._ZN15CCommSubSessionD1Ev)
    i._ZN16TDeltaTimerEntryC1Ev              0x0000e168   Section        8  CS_PORT.o(i._ZN16TDeltaTimerEntryC1Ev)
    i._ZN19CCommChannelHandlerD0Ev           0x0000e170   Section       16  cs_thread.o(i._ZN19CCommChannelHandlerD0Ev)
    i._ZN19CCommChannelHandlerD1Ev           0x0000e180   Section        8  cs_thread.o(i._ZN19CCommChannelHandlerD1Ev)
    i._ZN20CC32ShutdownWatchDogD0Ev          0x0000e188   Section       16  cs_glob.o(i._ZN20CC32ShutdownWatchDogD0Ev)
    i._ZN20CC32ShutdownWatchDogD1Ev          0x0000e198   Section        8  cs_glob.o(i._ZN20CC32ShutdownWatchDogD1Ev)
    i._ZN21CC32WorkerDataGlobalsD0Ev         0x0000e1a0   Section       16  cs_roles.o(i._ZN21CC32WorkerDataGlobalsD0Ev)
    i._ZN21CC32WorkerDataGlobalsD1Ev         0x0000e1b0   Section        8  cs_roles.o(i._ZN21CC32WorkerDataGlobalsD1Ev)
    i._ZN5CBasenwEj                          0x0000e1b8   Section        8  CS_SVR.o(i._ZN5CBasenwEj)
    i._ZN5CPort6CExtraD0Ev                   0x0000e1c0   Section       16  CS_MAN.o(i._ZN5CPort6CExtraD0Ev)
    i._ZN5CPort6CExtraD1Ev                   0x0000e1d0   Section        8  CS_MAN.o(i._ZN5CPort6CExtraD1Ev)
    i._ZN5TLex8C1ERK6TDesC8                  0x0000e1d8   Section       16  cs_thread.o(i._ZN5TLex8C1ERK6TDesC8)
    i._ZN5TPtr83SetEPhii                     0x0000e1e8   Section       38  CC_CLI.o(i._ZN5TPtr83SetEPhii)
    i._ZN5TPtr83SetEPhii.clean               0x0000e20e   Section       12  CC_CLI.o(i._ZN5TPtr83SetEPhii.clean)
    i._ZN6RArrayIiE7AppendLEi                0x0000e21a   Section       12  cs_roles.o(i._ZN6RArrayIiE7AppendLEi)
    i._ZN6RArrayIiEixEi                      0x0000e226   Section        8  cs_roles.o(i._ZN6RArrayIiEixEi)
    i._ZN6TPtrC83SetERK6TDesC8               0x0000e22e   Section       28  cs_roles.o(i._ZN6TPtrC83SetERK6TDesC8)
    i._ZN6TPtrC83SetERK6TDesC8.clean         0x0000e24a   Section       12  cs_roles.o(i._ZN6TPtrC83SetERK6TDesC8.clean)
    i._ZN6TPtrC83SetERKS_                    0x0000e256   Section       26  cs_roles.o(i._ZN6TPtrC83SetERKS_)
    i._ZN7CommsFW18RCFChannelPairBaseINS_10TCFMessageELi1EED0Ev 0x0000e270   Section       16  CC_CLI.o(i._ZN7CommsFW18RCFChannelPairBaseINS_10TCFMessageELi1EED0Ev)
    i._ZN7CommsFW18RCFChannelPairBaseINS_10TCFMessageELi1EED1Ev 0x0000e280   Section       40  CC_CLI.o(i._ZN7CommsFW18RCFChannelPairBaseINS_10TCFMessageELi1EED1Ev)
    i._ZN7CommsFW18RCFChannelPairBaseINS_10TCFMessageELi1EED1Ev.clean 0x0000e2a8   Section       22  CC_CLI.o(i._ZN7CommsFW18RCFChannelPairBaseINS_10TCFMessageELi1EED1Ev.clean)
    i._ZN7CommsFW18TCFBindCompleteMsgC1Eii   0x0000e2be   Section       10  cs_thread.o(i._ZN7CommsFW18TCFBindCompleteMsgC1Eii)
    i._ZN7CommsFW20TCFUnbindCompleteMsgC1Eii 0x0000e2c8   Section       10  cs_thread.o(i._ZN7CommsFW20TCFUnbindCompleteMsgC1Eii)
    i._ZN7CommsFW21CWorkerThreadRegisterI24TC32WorkerThreadRegisterLi8EED0Ev 0x0000e2d2   Section       16  cs_thread.o(i._ZN7CommsFW21CWorkerThreadRegisterI24TC32WorkerThreadRegisterLi8EED0Ev)
    i._ZN7CommsFW21CWorkerThreadRegisterI24TC32WorkerThreadRegisterLi8EED1Ev 0x0000e2e2   Section        8  cs_thread.o(i._ZN7CommsFW21CWorkerThreadRegisterI24TC32WorkerThreadRegisterLi8EED1Ev)
    i._ZN7CommsFW24CWorkerThreadDataGlobalsI24TC32WorkerThreadRegisterLi8EED1Ev 0x0000e2ea   Section        8  cs_roles.o(i._ZN7CommsFW24CWorkerThreadDataGlobalsI24TC32WorkerThreadRegisterLi8EED1Ev)
    i._ZN7CommsFW28CWorkerThreadDataGlobalsBaseD0Ev 0x0000e2f2   Section       16  cs_roles.o(i._ZN7CommsFW28CWorkerThreadDataGlobalsBaseD0Ev)
    i._ZN7CommsFW28CWorkerThreadDataGlobalsBaseD1Ev 0x0000e304   Section       28  cs_roles.o(i._ZN7CommsFW28CWorkerThreadDataGlobalsBaseD1Ev)
    i._ZN7CommsFW28CWorkerThreadDataGlobalsBaseD1Ev.clean 0x0000e320   Section       10  cs_roles.o(i._ZN7CommsFW28CWorkerThreadDataGlobalsBaseD1Ev.clean)
    i._ZN8CC32DataD0Ev                       0x0000e32a   Section       16  cs_glob.o(i._ZN8CC32DataD0Ev)
    i._ZN8CC32DataD1Ev                       0x0000e33a   Section        8  cs_glob.o(i._ZN8CC32DataD1Ev)
    i._ZNK12RSessionBase11SendReceiveEiRK8TIpcArgs 0x0000e342   Section        8  CC_CLI.o(i._ZNK12RSessionBase11SendReceiveEiRK8TIpcArgs)
    i._ZNK15RSubSessionBase11SendReceiveEiRK8TIpcArgs 0x0000e34a   Section        8  CC_CLI.o(i._ZNK15RSubSessionBase11SendReceiveEiRK8TIpcArgs)
    i._ZNK16CC32SubSessionIx10MakeHandleEiii 0x0000e352   Section       10  cs_roles.o(i._ZNK16CC32SubSessionIx10MakeHandleEiii)
    i._ZNK16CC32WorkerThread12IsMainThreadEv 0x0000e35c   Section       14  cs_thread.o(i._ZNK16CC32WorkerThread12IsMainThreadEv)
    i._ZNK16CC32WorkerThread13PeerReachableEi 0x0000e36a   Section       10  CS_SES.o(i._ZNK16CC32WorkerThread13PeerReachableEi)
    i._ZNK17CC32ThreadManager17CC32ParsedIniData7NumCSYsEv 0x0000e374   Section       10  cs_roles.o(i._ZNK17CC32ThreadManager17CC32ParsedIniData7NumCSYsEv)
    i._ZNK8CCSYInfo11GetPortNameEv           0x0000e37e   Section       20  cs_roles.o(i._ZNK8CCSYInfo11GetPortNameEv)
    i._ZNK9TObjectIdeqES_                    0x0000e392   Section       18  CC_CLI.o(i._ZNK9TObjectIdeqES_)
    i._ZThn4_NK7CommsFW21CWorkerThreadRegisterI24TC32WorkerThreadRegisterLi8EE10WorkerHeapEi 0x0000e3a4   Section       10  cs_thread.o(i._ZThn4_NK7CommsFW21CWorkerThreadRegisterI24TC32WorkerThreadRegisterLi8EE10WorkerHeapEi)
    i._ZThn4_NK7CommsFW21CWorkerThreadRegisterI24TC32WorkerThreadRegisterLi8EE11PanicWorkerEiRK7TDesC16i 0x0000e3ae   Section       10  cs_thread.o(i._ZThn4_NK7CommsFW21CWorkerThreadRegisterI24TC32WorkerThreadRegisterLi8EE11PanicWorkerEiRK7TDesC16i)
    i._ZThn4_NK7CommsFW21CWorkerThreadRegisterI24TC32WorkerThreadRegisterLi8EE12SelfWorkerIdEv 0x0000e3b8   Section        4  cs_thread.o(i._ZThn4_NK7CommsFW21CWorkerThreadRegisterI24TC32WorkerThreadRegisterLi8EE12SelfWorkerIdEv)
    i._ZThn4_NK7CommsFW21CWorkerThreadRegisterI24TC32WorkerThreadRegisterLi8EE18UpperBoundWorkerIdEv 0x0000e3bc   Section        4  cs_thread.o(i._ZThn4_NK7CommsFW21CWorkerThreadRegisterI24TC32WorkerThreadRegisterLi8EE18UpperBoundWorkerIdEv)
    i._ZThn8_NK7CommsFW24CWorkerThreadDataGlobalsI24TC32WorkerThreadRegisterLi8EE10WorkerHeapEi 0x0000e3c0   Section       14  cs_roles.o(i._ZThn8_NK7CommsFW24CWorkerThreadDataGlobalsI24TC32WorkerThreadRegisterLi8EE10WorkerHeapEi)
    i._ZThn8_NK7CommsFW24CWorkerThreadDataGlobalsI24TC32WorkerThreadRegisterLi8EE11PanicWorkerEiRK7TDesC16i 0x0000e3ce   Section       10  cs_roles.o(i._ZThn8_NK7CommsFW24CWorkerThreadDataGlobalsI24TC32WorkerThreadRegisterLi8EE11PanicWorkerEiRK7TDesC16i)
    i._ZThn8_NK7CommsFW24CWorkerThreadDataGlobalsI24TC32WorkerThreadRegisterLi8EE18UpperBoundWorkerIdEv 0x0000e3d8   Section        4  cs_roles.o(i._ZThn8_NK7CommsFW24CWorkerThreadDataGlobalsI24TC32WorkerThreadRegisterLi8EE18UpperBoundWorkerIdEv)
    i._ZdlPvS_                               0x0000e3dc   Section        2  CC_CLI.o(i._ZdlPvS_)
    i._Zne12RMessagePtr2S_                   0x0000e3de   Section       12  CS_PORT.o(i._Zne12RMessagePtr2S_)
    i._ZnwjPv                                0x0000e3ea   Section        4  CC_CLI.o(i._ZnwjPv)
    t._ZN12CleanupCloseI15RRsConfiguratorE5CloseEPv 0x0000e3ee   Section        8  cs_roles.o(t._ZN12CleanupCloseI15RRsConfiguratorE5CloseEPv)
    t._ZN12CleanupCloseI6RArrayIiEE5CloseEPv 0x0000e3f6   Section        8  cs_roles.o(t._ZN12CleanupCloseI6RArrayIiEE5CloseEPv)
    t._ZN13RPointerArrayI15CCommSubSessionEixEi 0x0000e3fe   Section        8  cs_roles.o(t._ZN13RPointerArrayI15CCommSubSessionEixEi)
    t._ZN13RPointerArrayI7HBufC16EixEi       0x0000e406   Section        8  CS_SES.o(t._ZN13RPointerArrayI7HBufC16EixEi)
    t._ZN13RPointerArrayI8CCSYInfoE13InsertInOrderEPKS0_12TLinearOrderIS0_E 0x0000e40e   Section       10  cs_roles.o(t._ZN13RPointerArrayI8CCSYInfoE13InsertInOrderEPKS0_12TLinearOrderIS0_E)
    t._ZN13RPointerArrayI8CCSYInfoE15ResetAndDestroyEv 0x0000e418   Section       48  cs_roles.o(t._ZN13RPointerArrayI8CCSYInfoE15ResetAndDestroyEv)
    t._ZN13RPointerArrayI8CCSYInfoEixEi      0x0000e448   Section        8  CS_SES.o(t._ZN13RPointerArrayI8CCSYInfoEixEi)
    t._ZN13RPointerArrayIN17CC32ThreadManager14CC32ThreadInfoEE15ResetAndDestroyEv 0x0000e450   Section       48  cs_roles.o(t._ZN13RPointerArrayIN17CC32ThreadManager14CC32ThreadInfoEE15ResetAndDestroyEv)
    t._ZN13RPointerArrayIN17CC32ThreadManager14CC32ThreadInfoEEixEi 0x0000e480   Section        8  cs_roles.o(t._ZN13RPointerArrayIN17CC32ThreadManager14CC32ThreadInfoEEixEi)
    t._ZN4TBufILi16EEC1Ev                    0x0000e488   Section       10  cs_roles.o(t._ZN4TBufILi16EEC1Ev)
    t._ZN4TBufILi256EEC1Ev                   0x0000e492   Section       12  CS_SES.o(t._ZN4TBufILi256EEC1Ev)
    t._ZN5TBuf8ILi256EEC1Ev                  0x0000e49e   Section       12  CS_SES.o(t._ZN5TBuf8ILi256EEC1Ev)
    t._ZN5TBuf8ILi32EEC1ERK6TDesC8           0x0000e4aa   Section       10  cs_roles.o(t._ZN5TBuf8ILi32EEC1ERK6TDesC8)
    t._ZN5TBuf8ILi32EEC1Ev                   0x0000e4b4   Section       10  cs_roles.o(t._ZN5TBuf8ILi32EEC1Ev)
    t._ZN5TPckgI11TSerialInfoEC1ERKS0_       0x0000e4be   Section       12  CC_CLI.o(t._ZN5TPckgI11TSerialInfoEC1ERKS0_)
    t._ZN5TPckgI12TFlowControlEC1ERKS0_      0x0000e4ca   Section       12  CS_V02.o(t._ZN5TPckgI12TFlowControlEC1ERKS0_)
    t._ZN5TPckgIiEC1ERKi                     0x0000e4d6   Section       12  CS_PORT.o(t._ZN5TPckgIiEC1ERKi)
    t._ZN6RArrayI6TPtrC8E7AppendLERKS0_      0x0000e4e2   Section       12  cs_roles.o(t._ZN6RArrayI6TPtrC8E7AppendLERKS0_)
    t._ZN7CommsFW14RCFChannelBaseINS_10TCFMessageELi1EED1Ev 0x0000e4ee   Section        8  CC_CLI.o(t._ZN7CommsFW14RCFChannelBaseINS_10TCFMessageELi1EED1Ev)
    t._ZN7CommsFW18RCFChannelPairBaseINS_10TCFMessageELi1EE7SendPIGEv 0x0000e4f6   Section       20  CC_CLI.o(t._ZN7CommsFW18RCFChannelPairBaseINS_10TCFMessageELi1EE7SendPIGEv)
    t._ZN7CommsFW18RCFChannelPairBaseINS_10TCFMessageELi1EE8IsMsgPIGEPKv 0x0000e50a   Section       14  CC_CLI.o(t._ZN7CommsFW18RCFChannelPairBaseINS_10TCFMessageELi1EE8IsMsgPIGEPKv)
    t._ZN8TIpcArgsC1IP5TDes8iiEET_T0_T1_     0x0000e518   Section       10  CC_CLI.o(t._ZN8TIpcArgsC1IP5TDes8iiEET_T0_T1_)
    t._ZN8TIpcArgsC1IPK6TDesC8iiEET_T0_T1_   0x0000e522   Section       10  CC_CLI.o(t._ZN8TIpcArgsC1IPK6TDesC8iiEET_T0_T1_)
    t._ZN8TIpcArgsC1IPK7TDesC1611TCommAccess9TCommRoleEET_T0_T1_ 0x0000e52c   Section       10  CC_CLI.o(t._ZN8TIpcArgsC1IPK7TDesC1611TCommAccess9TCommRoleEET_T0_T1_)
    t._ZNK13RPointerArrayI15CCommSubSessionE5CountEv 0x0000e536   Section        8  cs_roles.o(t._ZNK13RPointerArrayI15CCommSubSessionE5CountEv)
    t._ZNK13RPointerArrayI7HBufC16E5CountEv  0x0000e53e   Section        8  CS_SES.o(t._ZNK13RPointerArrayI7HBufC16E5CountEv)
    t._ZNK13RPointerArrayI8CCSYInfoE5CountEv 0x0000e546   Section        8  cs_roles.o(t._ZNK13RPointerArrayI8CCSYInfoE5CountEv)
    t._ZNK13RPointerArrayI8CCSYInfoEixEi     0x0000e54e   Section        8  cs_roles.o(t._ZNK13RPointerArrayI8CCSYInfoEixEi)
    t._ZNK13RPointerArrayIN17CC32ThreadManager14CC32ThreadInfoEE5CountEv 0x0000e556   Section        8  cs_roles.o(t._ZNK13RPointerArrayIN17CC32ThreadManager14CC32ThreadInfoEE5CountEv)
    t._ZNK7CommsFW21CWorkerThreadRegisterI24TC32WorkerThreadRegisterLi8EE10WorkerHeapEi 0x0000e55e   Section        8  cs_thread.o(t._ZNK7CommsFW21CWorkerThreadRegisterI24TC32WorkerThreadRegisterLi8EE10WorkerHeapEi)
    t._ZNK7CommsFW21CWorkerThreadRegisterI24TC32WorkerThreadRegisterLi8EE11PanicWorkerEiRK7TDesC16i 0x0000e566   Section       26  cs_thread.o(t._ZNK7CommsFW21CWorkerThreadRegisterI24TC32WorkerThreadRegisterLi8EE11PanicWorkerEiRK7TDesC16i)
    t._ZNK7CommsFW21CWorkerThreadRegisterI24TC32WorkerThreadRegisterLi8EE12SelfWorkerIdEv 0x0000e580   Section        4  cs_thread.o(t._ZNK7CommsFW21CWorkerThreadRegisterI24TC32WorkerThreadRegisterLi8EE12SelfWorkerIdEv)
    t._ZNK7CommsFW21CWorkerThreadRegisterI24TC32WorkerThreadRegisterLi8EE18UpperBoundWorkerIdEv 0x0000e584   Section        4  cs_thread.o(t._ZNK7CommsFW21CWorkerThreadRegisterI24TC32WorkerThreadRegisterLi8EE18UpperBoundWorkerIdEv)
    t._ZNK7CommsFW24CWorkerThreadDataGlobalsI24TC32WorkerThreadRegisterLi8EE10WorkerHeapEi 0x0000e588   Section       12  cs_roles.o(t._ZNK7CommsFW24CWorkerThreadDataGlobalsI24TC32WorkerThreadRegisterLi8EE10WorkerHeapEi)
    t._ZNK7CommsFW24CWorkerThreadDataGlobalsI24TC32WorkerThreadRegisterLi8EE11PanicWorkerEiRK7TDesC16i 0x0000e594   Section       24  cs_roles.o(t._ZNK7CommsFW24CWorkerThreadDataGlobalsI24TC32WorkerThreadRegisterLi8EE11PanicWorkerEiRK7TDesC16i)
    t._ZNK7CommsFW24CWorkerThreadDataGlobalsI24TC32WorkerThreadRegisterLi8EE16GetWorkerGlobalsEi 0x0000e5ac   Section       10  cs_roles.o(t._ZNK7CommsFW24CWorkerThreadDataGlobalsI24TC32WorkerThreadRegisterLi8EE16GetWorkerGlobalsEi)
    t._ZNK7CommsFW24CWorkerThreadDataGlobalsI24TC32WorkerThreadRegisterLi8EE18UpperBoundWorkerIdEv 0x0000e5b6   Section        4  cs_roles.o(t._ZNK7CommsFW24CWorkerThreadDataGlobalsI24TC32WorkerThreadRegisterLi8EE18UpperBoundWorkerIdEv)
    .extab._ZN9RCommServ15IsServerThreadLEv  0x0000e5bc   Data           0  CC_CLI.o(.ARM.extab)
    .extab._ZN5TPtr83SetEPhii                0x0000e5c8   Data           0  CC_CLI.o(.ARM.extab)
    .extab._ZN7CommsFW18RCFChannelPairBaseINS_10TCFMessageELi1EED1Ev 0x0000e5d8   Data           0  CC_CLI.o(.ARM.extab)
    .extab._ZN12CPortManager15LoadCommModuleLERK7TDesC16 0x0000e5f0   Data           0  CS_MAN.o(.ARM.extab)
    .extab._ZN12CPortManagerD1Ev             0x0000e618   Data           0  CS_MAN.o(.ARM.extab)
    .extab._ZN5CPortC2Ev                     0x0000e628   Data           0  CS_PORT.o(.ARM.extab)
    .extab._ZN5CPortD2Ev                     0x0000e638   Data           0  CS_PORT.o(.ARM.extab)
    .extab._ZN7CSerialC2Ev                   0x0000e648   Data           0  CS_PORT.o(.ARM.extab)
    .extab._ZN7CSerialD2Ev                   0x0000e658   Data           0  CS_PORT.o(.ARM.extab)
    .extab._ZN12CCommSessionC1EP17CC32ThreadManager 0x0000e668   Data           0  CS_SES.o(.ARM.extab)
    .extab._ZN12CCommSession16CloseCommModuleLERK9RMessage2 0x0000e678   Data           0  CS_SES.o(.ARM.extab)
    .extab._ZN12CCommSession15LoadCommModuleLERK9RMessage2iiRK7TDesC16 0x0000e684   Data           0  CS_SES.o(.ARM.extab)
    .extab._ZN12CCommSessionD1Ev             0x0000e6ac   Data           0  CS_SES.o(.ARM.extab)
    .extab._ZN10CC32Server20CustomSecurityCheckLERK9RMessage2RiR13TSecurityInfo 0x0000e6c4   Data           0  CS_SVR.o(.ARM.extab)
    .extab._ZN14CCommScheduler3NewEv         0x0000e6ec   Data           0  CS_SVR.o(.ARM.extab)
    .extab._ZN5CBasenwEj                     0x0000e6fc   Data           0  CS_SVR.o(.ARM.extab)
    .extab._ZN9CommTimer8GetTimerEv          0x0000e70c   Data           0  CS_TIME.o(.ARM.extab)
    .extab._ZN16CC32SubSessionIxD1Ev         0x0000e754   Data           0  cs_roles.o(.ARM.extab)
    .extab._ZN21CC32WorkerDataGlobals4NewLEv 0x0000e764   Data           0  cs_roles.o(.ARM.extab)
    .extab._ZN8CCSYInfoC1Ei                  0x0000e774   Data           0  cs_roles.o(.ARM.extab)
    .extab._ZN8CCSYInfoD1Ev                  0x0000e784   Data           0  cs_roles.o(.ARM.extab)
    .extab._ZN17CC32ThreadManagerD1Ev        0x0000e794   Data           0  cs_roles.o(.ARM.extab)
    .extab._ZN17CC32ThreadManagerC1EP10CC32Dealer 0x0000e7a4   Data           0  cs_roles.o(.ARM.extab)
    .extab._ZN17CC32ThreadManager17CC32ParsedIniDataC1Ev 0x0000e7b4   Data           0  cs_roles.o(.ARM.extab)
    .extab._ZN17CC32ThreadManager12LoadCMIDataLERK6TDesC8 0x0000e7c4   Data           0  cs_roles.o(.ARM.extab)
    .extab._ZN17CC32ThreadManager10CCPMLoaderC1Ev 0x0000e7ec   Data           0  cs_roles.o(.ARM.extab)
    .extab._ZN17CC32ThreadManager17RequestLoadModuleEi 0x0000e7fc   Data           0  cs_roles.o(.ARM.extab)
    .extab._ZN17CC32ThreadManager17CC32ParsedIniDataD1Ev 0x0000e824   Data           0  cs_roles.o(.ARM.extab)
    .extab._ZN17CC32ThreadManager10CCPMLoaderD1Ev 0x0000e834   Data           0  cs_roles.o(.ARM.extab)
    .extab._ZN10CC32Dealer10ConstructLERK6TDesC8 0x0000e844   Data           0  cs_roles.o(.ARM.extab)
    .extab._ZN10CC32DealerC1EP16CC32WorkerThread 0x0000e88c   Data           0  cs_roles.o(.ARM.extab)
    .extab._ZN10CC32DealerD1Ev               0x0000e89c   Data           0  cs_roles.o(.ARM.extab)
    .extab._ZN10CC32Dealer20ProcessParkedRequestEv 0x0000e8ac   Data           0  cs_roles.o(.ARM.extab)
    .extab._ZN10CC32PlayerC1EP16CC32WorkerThread 0x0000e8d4   Data           0  cs_roles.o(.ARM.extab)
    .extab._ZN10CC32PlayerD1Ev               0x0000e8e4   Data           0  cs_roles.o(.ARM.extab)
    .extab._ZN10CC32Player8NewPortLERK9RMessage2 0x0000e8f4   Data           0  cs_roles.o(.ARM.extab)
    .extab._ZN10CC32Player15CloseCommModuleERK9RMessage2 0x0000e95c   Data           0  cs_roles.o(.ARM.extab)
    .extab._ZN10CC32Player14LoadCommModuleERK9RMessage2 0x0000e984   Data           0  cs_roles.o(.ARM.extab)
    .extab._ZN6TPtrC83SetERK6TDesC8          0x0000e9ac   Data           0  cs_roles.o(.ARM.extab)
    .extab._ZN7CommsFW28CWorkerThreadDataGlobalsBaseD1Ev 0x0000e9bc   Data           0  cs_roles.o(.ARM.extab)
    .extab._ZN16CC32WorkerThreadD1Ev         0x0000e9cc   Data           0  cs_thread.o(.ARM.extab)
    .extab._ZN16CC32WorkerThread12RunC32ThreadEPN7CommsFW13TCFModuleInfoE 0x0000e9dc   Data           0  cs_thread.o(.ARM.extab)
    .extab._ZN14CTLSRedirectorD1Ev           0x0000ea04   Data           0  cs_glob.o(.ARM.extab)
    .constdata$1                             0x0000ea14   Data           0  CC_CLI.o(.constdata)
    KCommClientPanic@_ZN9RCommServ22CreateThreadInCommProcERK7TDesC16S2_PFiPvEiii_0 0x0000ea14   Data          28  CC_CLI.o(.constdata)
    .constdata                               0x0000ea14   Section       76  CC_CLI.o(.constdata)
    KCommProcessName@_ZN9RCommServ15IsServerThreadLEv_0 0x0000ea30   Data          20  CC_CLI.o(.constdata)
    KCommThreadName@_ZN9RCommServ15IsServerThreadLEv_1 0x0000ea44   Data          28  CC_CLI.o(.constdata)
    .constdata$1                             0x0000ea60   Data           0  CC_UTL.o(.constdata)
    KNullDesC                                0x0000ea60   Data           8  CC_UTL.o(.constdata)
    .constdata                               0x0000ea60   Section       64  CC_UTL.o(.constdata)
    KRootServerDll                           0x0000ea68   Data          28  CC_UTL.o(.constdata)
    KCommServerNameLit@_Z15KCommServerNamev_0 0x0000ea84   Data          28  CC_UTL.o(.constdata)
    .constdata$1                             0x0000eaa0   Data           0  CS_MAN.o(.constdata)
    KNullDesC                                0x0000eaa0   Data           8  CS_MAN.o(.constdata)
    .constdata                               0x0000eaa0   Section        8  CS_MAN.o(.constdata)
    .constdata$1                             0x0000eaa8   Data           0  CS_PORT.o(.constdata)
    KNullDesC8                               0x0000eaa8   Data           8  CS_PORT.o(.constdata)
    .constdata                               0x0000eaa8   Section        8  CS_PORT.o(.constdata)
    .constdata$1                             0x0000eab0   Data           0  CS_SES.o(.constdata)
    KNullDesC8                               0x0000eab0   Data           8  CS_SES.o(.constdata)
    .constdata                               0x0000eab0   Section       36  CS_SES.o(.constdata)
    KCSYExtension                            0x0000eab8   Data          16  CS_SES.o(.constdata)
    KDoubleColon@_ZN12CCommSession24ExtractPortNameAndNumberERK12RMessagePtr2R6TDes16RjRi_0 0x0000eac8   Data          12  CS_SES.o(.constdata)
    .constdata$1                             0x0000ead4   Data           0  CS_SVR.o(.constdata)
    KNullDesC8                               0x0000ead4   Data           8  CS_SVR.o(.constdata)
    .constdata                               0x0000ead4   Section       24  CS_SVR.o(.constdata)
    .constdata$13                            0x0000eaec   Data           0  CS_SVR.o(.constdata)
    .constdata                               0x0000eaec   Section        4  CS_SVR.o(.constdata)
    .constdata$19                            0x0000eaf0   Data           0  CS_SVR.o(.constdata)
    .constdata                               0x0000eaf0   Section       28  CS_SVR.o(.constdata)
    .constdata$25                            0x0000eb0c   Data           0  CS_SVR.o(.constdata)
    .constdata                               0x0000eb0c   Section        7  CS_SVR.o(.constdata)
    .constdata$31                            0x0000eb14   Data           0  CS_SVR.o(.constdata)
    .constdata                               0x0000eb14   Section       48  CS_SVR.o(.constdata)
    .constdata$1                             0x0000eb44   Data           0  CS_TIME.o(.constdata)
    KNullDesC8                               0x0000eb44   Data           8  CS_TIME.o(.constdata)
    .constdata                               0x0000eb44   Section        8  CS_TIME.o(.constdata)
    .constdata$1                             0x0000eb4c   Data           0  CS_UTL.o(.constdata)
    KC32FaultReason                          0x0000eb4c   Data          24  CS_UTL.o(.constdata)
    .constdata                               0x0000eb4c   Section       24  CS_UTL.o(.constdata)
    .constdata$1                             0x0000eb64   Data           0  cs_roles.o(.constdata)
    KNullDesC8                               0x0000eb64   Data           8  cs_roles.o(.constdata)
    .constdata                               0x0000eb64   Section      144  cs_roles.o(.constdata)
    KNullDesC16                              0x0000eb6c   Data           8  cs_roles.o(.constdata)
    KCSYExtension                            0x0000eb74   Data          16  cs_roles.o(.constdata)
    KCSYExtension8                           0x0000eb84   Data          12  cs_roles.o(.constdata)
    KRoleLabel                               0x0000eb90   Data          12  cs_roles.o(.constdata)
    KDealerRole                              0x0000eb9c   Data          12  cs_roles.o(.constdata)
    KPlayerRole                              0x0000eba8   Data          12  cs_roles.o(.constdata)
    KWorkerIdLabel                           0x0000ebb4   Data          16  cs_roles.o(.constdata)
    KCSYListLabel                            0x0000ebc4   Data          12  cs_roles.o(.constdata)
    KCSYDudName@_ZN17CC32ThreadManager12LoadCMIDataLERK6TDesC8_0 0x0000ebd0   Data          12  cs_roles.o(.constdata)
    KCSYDudName@_ZN17CC32ThreadManager12LoadCMIDataLERK6TDesC8_1 0x0000ebdc   Data          12  cs_roles.o(.constdata)
    KDoubleColon@_ZN10CC32Player24ExtractPortNameAndNumberERK12RMessagePtr2R6TDes16RjRi_0 0x0000ebe8   Data          12  cs_roles.o(.constdata)
    .constdata$1                             0x0000ebf4   Data           0  cs_thread.o(.constdata)
    KNullDesC8                               0x0000ebf4   Data           8  cs_thread.o(.constdata)
    .constdata                               0x0000ebf4   Section      320  cs_thread.o(.constdata)
    subconst@_ZN19CCommChannelHandler17CFMessageDiscoverERKN7CommsFW14TCFDiscoverMsgE_0 0x0000ebfc   Data           8  cs_thread.o(.constdata)
    KRoleLabel                               0x0000ec04   Data          12  cs_thread.o(.constdata)
    KDealerRole                              0x0000ec10   Data          12  cs_thread.o(.constdata)
    KPlayerRole                              0x0000ec1c   Data          12  cs_thread.o(.constdata)
    KWorkerIdLabel                           0x0000ec28   Data          16  cs_thread.o(.constdata)
    KCSYListLabel                            0x0000ec38   Data          12  cs_thread.o(.constdata)
    CommPddName@_Z17LoadDeviceDriversv_0     0x0000ec44   Data          16  cs_thread.o(.constdata)
    CommPddName0@_Z17LoadDeviceDriversv_1    0x0000ec54   Data          20  cs_thread.o(.constdata)
    CommPddName1@_Z17LoadDeviceDriversv_2    0x0000ec68   Data          20  cs_thread.o(.constdata)
    CommPddName2@_Z17LoadDeviceDriversv_3    0x0000ec7c   Data          20  cs_thread.o(.constdata)
    CommPddName3@_Z17LoadDeviceDriversv_4    0x0000ec90   Data          20  cs_thread.o(.constdata)
    CommPddName4@_Z17LoadDeviceDriversv_5    0x0000eca4   Data          20  cs_thread.o(.constdata)
    CommPddName5@_Z17LoadDeviceDriversv_6    0x0000ecb8   Data          20  cs_thread.o(.constdata)
    CommPddName6@_Z17LoadDeviceDriversv_7    0x0000eccc   Data          20  cs_thread.o(.constdata)
    CommPddName7@_Z17LoadDeviceDriversv_8    0x0000ece0   Data          20  cs_thread.o(.constdata)
    CommPddName8@_Z17LoadDeviceDriversv_9    0x0000ecf4   Data          20  cs_thread.o(.constdata)
    CommPddName9@_Z17LoadDeviceDriversv_10   0x0000ed08   Data          20  cs_thread.o(.constdata)
    CommLddName@_Z17LoadDeviceDriversv_11    0x0000ed1c   Data          24  cs_thread.o(.constdata)
    .constdata$1                             0x0000ed34   Data           0  cs_glob.o(.constdata)
    KNullDesC8                               0x0000ed34   Data           8  cs_glob.o(.constdata)
    .constdata                               0x0000ed34   Section        8  cs_glob.o(.constdata)
    .constdata__ZTI10CC32Dealer              0x0000ed3c   Section       12  cs_roles.o(.constdata__ZTI10CC32Dealer)
    .constdata__ZTI10CC32Player              0x0000ed48   Section       12  cs_roles.o(.constdata__ZTI10CC32Player)
    .constdata__ZTI10CC32Server              0x0000ed54   Section       12  CS_SVR.o(.constdata__ZTI10CC32Server)
    .constdata__ZTI12CCommSession            0x0000ed60   Section       12  CS_SES.o(.constdata__ZTI12CCommSession)
    .constdata__ZTI12CLibUnloader            0x0000ed6c   Section       12  CS_PORT.o(.constdata__ZTI12CLibUnloader)
    .constdata__ZTI12CPortManager            0x0000ed78   Section       12  CS_MAN.o(.constdata__ZTI12CPortManager)
    .constdata__ZTI14CCommScheduler          0x0000ed84   Section       12  CS_SVR.o(.constdata__ZTI14CCommScheduler)
    .constdata__ZTI14CTLSRedirector          0x0000ed90   Section       12  cs_glob.o(.constdata__ZTI14CTLSRedirector)
    .constdata__ZTI15CCommSubSession         0x0000ed9c   Section       12  CS_SES.o(.constdata__ZTI15CCommSubSession)
    .constdata__ZTI16CC32SubSessionIx        0x0000eda8   Section       12  cs_roles.o(.constdata__ZTI16CC32SubSessionIx)
    .constdata__ZTI16CC32WorkerThread        0x0000edb4   Section       32  cs_thread.o(.constdata__ZTI16CC32WorkerThread)
    .constdata__ZTI17CC32ThreadManager       0x0000edd4   Section       12  cs_roles.o(.constdata__ZTI17CC32ThreadManager)
    .constdata__ZTI19CCommChannelHandler     0x0000ede0   Section       12  cs_thread.o(.constdata__ZTI19CCommChannelHandler)
    .constdata__ZTI20CC32ShutdownWatchDog    0x0000edec   Section       12  cs_glob.o(.constdata__ZTI20CC32ShutdownWatchDog)
    .constdata__ZTI21CC32WorkerDataGlobals   0x0000edf8   Section       12  cs_roles.o(.constdata__ZTI21CC32WorkerDataGlobals)
    .constdata__ZTI5CPort                    0x0000ee04   Section       12  CS_PORT.o(.constdata__ZTI5CPort)
    .constdata__ZTI7CSerial                  0x0000ee10   Section       12  CS_PORT.o(.constdata__ZTI7CSerial)
    .constdata__ZTI8CC32Data                 0x0000ee1c   Section       12  cs_glob.o(.constdata__ZTI8CC32Data)
    .constdata__ZTI8CCSYInfo                 0x0000ee28   Section       12  cs_roles.o(.constdata__ZTI8CCSYInfo)
    .constdata__ZTIN12CCommSession21CC32SessionCloseTimerE 0x0000ee34   Section       12  CS_SES.o(.constdata__ZTIN12CCommSession21CC32SessionCloseTimerE)
    .constdata__ZTIN17CC32ThreadManager10CCPMLoaderE 0x0000ee40   Section       12  cs_roles.o(.constdata__ZTIN17CC32ThreadManager10CCPMLoaderE)
    .constdata__ZTIN17CC32ThreadManager14CC32ThreadInfoE 0x0000ee4c   Section       12  cs_roles.o(.constdata__ZTIN17CC32ThreadManager14CC32ThreadInfoE)
    .constdata__ZTIN17CC32ThreadManager17CC32ParsedIniDataE 0x0000ee58   Section       12  cs_roles.o(.constdata__ZTIN17CC32ThreadManager17CC32ParsedIniDataE)
    .constdata__ZTIN5CPort6CExtraE           0x0000ee64   Section       12  CS_MAN.o(.constdata__ZTIN5CPort6CExtraE)
    .constdata__ZTIN7CommsFW18RCFChannelPairBaseINS_10TCFMessageELi1EEE 0x0000ee70   Section       12  CC_CLI.o(.constdata__ZTIN7CommsFW18RCFChannelPairBaseINS_10TCFMessageELi1EEE)
    .constdata__ZTIN7CommsFW21CWorkerThreadRegisterI24TC32WorkerThreadRegisterLi8EEE 0x0000ee7c   Section       32  cs_thread.o(.constdata__ZTIN7CommsFW21CWorkerThreadRegisterI24TC32WorkerThreadRegisterLi8EEE)
    .constdata__ZTIN7CommsFW21MGlobalThreadRegisterE 0x0000ee9c   Section        8  cs_roles.o(.constdata__ZTIN7CommsFW21MGlobalThreadRegisterE)
    .constdata__ZTIN7CommsFW21MWorkerThreadRegisterE 0x0000eea4   Section       12  cs_thread.o(.constdata__ZTIN7CommsFW21MWorkerThreadRegisterE)
    .constdata__ZTIN7CommsFW22MLegacyMessageReceiverE 0x0000eeb0   Section        8  cs_thread.o(.constdata__ZTIN7CommsFW22MLegacyMessageReceiverE)
    .constdata__ZTIN7CommsFW24CWorkerThreadDataGlobalsI24TC32WorkerThreadRegisterLi8EEE 0x0000eeb8   Section       32  cs_roles.o(.constdata__ZTIN7CommsFW24CWorkerThreadDataGlobalsI24TC32WorkerThreadRegisterLi8EEE)
    .constdata__ZTIN7CommsFW28CWorkerThreadDataGlobalsBaseE 0x0000eed8   Section       12  cs_roles.o(.constdata__ZTIN7CommsFW28CWorkerThreadDataGlobalsBaseE)
    .constdata__ZTS10CC32Dealer              0x0000eee4   Section       13  cs_roles.o(.constdata__ZTS10CC32Dealer)
    .constdata__ZTS10CC32Player              0x0000eef1   Section       13  cs_roles.o(.constdata__ZTS10CC32Player)
    .constdata__ZTS10CC32Server              0x0000eefe   Section       13  CS_SVR.o(.constdata__ZTS10CC32Server)
    .constdata__ZTS12CCommSession            0x0000ef0b   Section       15  CS_SES.o(.constdata__ZTS12CCommSession)
    .constdata__ZTS12CLibUnloader            0x0000ef1a   Section       15  CS_PORT.o(.constdata__ZTS12CLibUnloader)
    .constdata__ZTS12CPortManager            0x0000ef29   Section       15  CS_MAN.o(.constdata__ZTS12CPortManager)
    .constdata__ZTS14CCommScheduler          0x0000ef38   Section       17  CS_SVR.o(.constdata__ZTS14CCommScheduler)
    .constdata__ZTS14CTLSRedirector          0x0000ef49   Section       17  cs_glob.o(.constdata__ZTS14CTLSRedirector)
    .constdata__ZTS15CCommSubSession         0x0000ef5a   Section       18  CS_SES.o(.constdata__ZTS15CCommSubSession)
    .constdata__ZTS16CC32SubSessionIx        0x0000ef6c   Section       19  cs_roles.o(.constdata__ZTS16CC32SubSessionIx)
    .constdata__ZTS16CC32WorkerThread        0x0000ef7f   Section       19  cs_thread.o(.constdata__ZTS16CC32WorkerThread)
    .constdata__ZTS17CC32ThreadManager       0x0000ef92   Section       20  cs_roles.o(.constdata__ZTS17CC32ThreadManager)
    .constdata__ZTS19CCommChannelHandler     0x0000efa6   Section       22  cs_thread.o(.constdata__ZTS19CCommChannelHandler)
    .constdata__ZTS20CC32ShutdownWatchDog    0x0000efbc   Section       23  cs_glob.o(.constdata__ZTS20CC32ShutdownWatchDog)
    .constdata__ZTS21CC32WorkerDataGlobals   0x0000efd3   Section       24  cs_roles.o(.constdata__ZTS21CC32WorkerDataGlobals)
    .constdata__ZTS5CPort                    0x0000efeb   Section        7  CS_PORT.o(.constdata__ZTS5CPort)
    .constdata__ZTS7CSerial                  0x0000eff2   Section        9  CS_PORT.o(.constdata__ZTS7CSerial)
    .constdata__ZTS8CC32Data                 0x0000effb   Section       10  cs_glob.o(.constdata__ZTS8CC32Data)
    .constdata__ZTS8CCSYInfo                 0x0000f005   Section       10  cs_roles.o(.constdata__ZTS8CCSYInfo)
    .constdata__ZTSN12CCommSession21CC32SessionCloseTimerE 0x0000f00f   Section       40  CS_SES.o(.constdata__ZTSN12CCommSession21CC32SessionCloseTimerE)
    .constdata__ZTSN17CC32ThreadManager10CCPMLoaderE 0x0000f037   Section       34  cs_roles.o(.constdata__ZTSN17CC32ThreadManager10CCPMLoaderE)
    .constdata__ZTSN17CC32ThreadManager14CC32ThreadInfoE 0x0000f059   Section       38  cs_roles.o(.constdata__ZTSN17CC32ThreadManager14CC32ThreadInfoE)
    .constdata__ZTSN17CC32ThreadManager17CC32ParsedIniDataE 0x0000f07f   Section       41  cs_roles.o(.constdata__ZTSN17CC32ThreadManager17CC32ParsedIniDataE)
    .constdata__ZTSN5CPort6CExtraE           0x0000f0a8   Section       16  CS_MAN.o(.constdata__ZTSN5CPort6CExtraE)
    .constdata__ZTSN7CommsFW18RCFChannelPairBaseINS_10TCFMessageELi1EEE 0x0000f0b8   Section       53  CC_CLI.o(.constdata__ZTSN7CommsFW18RCFChannelPairBaseINS_10TCFMessageELi1EEE)
    .constdata__ZTSN7CommsFW21CWorkerThreadRegisterI24TC32WorkerThreadRegisterLi8EEE 0x0000f0ed   Section       66  cs_thread.o(.constdata__ZTSN7CommsFW21CWorkerThreadRegisterI24TC32WorkerThreadRegisterLi8EEE)
    .constdata__ZTSN7CommsFW21MGlobalThreadRegisterE 0x0000f12f   Section       34  cs_roles.o(.constdata__ZTSN7CommsFW21MGlobalThreadRegisterE)
    .constdata__ZTSN7CommsFW21MWorkerThreadRegisterE 0x0000f151   Section       34  cs_thread.o(.constdata__ZTSN7CommsFW21MWorkerThreadRegisterE)
    .constdata__ZTSN7CommsFW22MLegacyMessageReceiverE 0x0000f173   Section       35  cs_thread.o(.constdata__ZTSN7CommsFW22MLegacyMessageReceiverE)
    .constdata__ZTSN7CommsFW24CWorkerThreadDataGlobalsI24TC32WorkerThreadRegisterLi8EEE 0x0000f196   Section       69  cs_roles.o(.constdata__ZTSN7CommsFW24CWorkerThreadDataGlobalsI24TC32WorkerThreadRegisterLi8EEE)
    .constdata__ZTSN7CommsFW28CWorkerThreadDataGlobalsBaseE 0x0000f1db   Section       41  cs_roles.o(.constdata__ZTSN7CommsFW28CWorkerThreadDataGlobalsBaseE)
    .constdata__ZTV10CC32Dealer              0x0000f204   Section       48  cs_roles.o(.constdata__ZTV10CC32Dealer)
    .constdata__ZTV10CC32Player              0x0000f234   Section       20  cs_roles.o(.constdata__ZTV10CC32Player)
    .constdata__ZTV10CC32Server              0x0000f248   Section       48  CS_SVR.o(.constdata__ZTV10CC32Server)
    .constdata__ZTV12CCommSession            0x0000f278   Section       40  CS_SES.o(.constdata__ZTV12CCommSession)
    .constdata__ZTV12CLibUnloader            0x0000f2a0   Section       36  CS_PORT.o(.constdata__ZTV12CLibUnloader)
    .constdata__ZTV12CPortManager            0x0000f2c4   Section       20  CS_MAN.o(.constdata__ZTV12CPortManager)
    .constdata__ZTV14CCommScheduler          0x0000f2d8   Section       44  CS_SVR.o(.constdata__ZTV14CCommScheduler)
    .constdata__ZTV14CTLSRedirector          0x0000f304   Section       20  cs_glob.o(.constdata__ZTV14CTLSRedirector)
    .constdata__ZTV15CCommSubSession         0x0000f318   Section       20  CS_SES.o(.constdata__ZTV15CCommSubSession)
    .constdata__ZTV16CC32SubSessionIx        0x0000f32c   Section       20  cs_roles.o(.constdata__ZTV16CC32SubSessionIx)
    .constdata__ZTV16CC32WorkerThread        0x0000f340   Section       44  cs_thread.o(.constdata__ZTV16CC32WorkerThread)
    .constdata__ZTV17CC32ThreadManager       0x0000f36c   Section       20  cs_roles.o(.constdata__ZTV17CC32ThreadManager)
    .constdata__ZTV19CCommChannelHandler     0x0000f380   Section       60  cs_thread.o(.constdata__ZTV19CCommChannelHandler)
    .constdata__ZTV20CC32ShutdownWatchDog    0x0000f3bc   Section       32  cs_glob.o(.constdata__ZTV20CC32ShutdownWatchDog)
    .constdata__ZTV21CC32WorkerDataGlobals   0x0000f3dc   Section       52  cs_roles.o(.constdata__ZTV21CC32WorkerDataGlobals)
    .constdata__ZTV5CPort                    0x0000f410   Section      180  CS_PORT.o(.constdata__ZTV5CPort)
    .constdata__ZTV7CSerial                  0x0000f4c4   Section       56  CS_PORT.o(.constdata__ZTV7CSerial)
    .constdata__ZTV8CC32Data                 0x0000f4fc   Section       20  cs_glob.o(.constdata__ZTV8CC32Data)
    .constdata__ZTV8CCSYInfo                 0x0000f510   Section       20  cs_roles.o(.constdata__ZTV8CCSYInfo)
    .constdata__ZTVN12CCommSession21CC32SessionCloseTimerE 0x0000f524   Section       32  CS_SES.o(.constdata__ZTVN12CCommSession21CC32SessionCloseTimerE)
    .constdata__ZTVN17CC32ThreadManager10CCPMLoaderE 0x0000f544   Section       32  cs_roles.o(.constdata__ZTVN17CC32ThreadManager10CCPMLoaderE)
    .constdata__ZTVN17CC32ThreadManager14CC32ThreadInfoE 0x0000f564   Section       20  cs_roles.o(.constdata__ZTVN17CC32ThreadManager14CC32ThreadInfoE)
    .constdata__ZTVN17CC32ThreadManager17CC32ParsedIniDataE 0x0000f578   Section       20  cs_roles.o(.constdata__ZTVN17CC32ThreadManager17CC32ParsedIniDataE)
    .constdata__ZTVN5CPort6CExtraE           0x0000f58c   Section       20  CS_MAN.o(.constdata__ZTVN5CPort6CExtraE)
    .constdata__ZTVN7CommsFW18RCFChannelPairBaseINS_10TCFMessageELi1EEE 0x0000f5a0   Section       40  CC_CLI.o(.constdata__ZTVN7CommsFW18RCFChannelPairBaseINS_10TCFMessageELi1EEE)
    .constdata__ZTVN7CommsFW21CWorkerThreadRegisterI24TC32WorkerThreadRegisterLi8EEE 0x0000f5c8   Section       60  cs_thread.o(.constdata__ZTVN7CommsFW21CWorkerThreadRegisterI24TC32WorkerThreadRegisterLi8EEE)
    .constdata__ZTVN7CommsFW28CWorkerThreadDataGlobalsBaseE 0x0000f604   Section       20  cs_roles.o(.constdata__ZTVN7CommsFW28CWorkerThreadDataGlobalsBaseE)
    .ARM.exidx                               0x0000f618   Section        8  ucppinit_aeabi.o(.ARM.exidx)

    Global Symbols

    Symbol Name                              Value     Ov Type        Size  Object(Section)

    BuildAttributes$$THUMB_ISAv2$ARM_ISAv5$M$PE$A:L22$X:L11$S22$IEEE1$IW$USESV6$~STKCKD$USESV7$~SHL$OSPACE$ROPI$IEEEJ$EBA8$UX$FPIC$INDIRECT$REQ8$PRES8$EABIv2 0x00000000   Number         0  anon$$obj.o ABSOLUTE
    c32root{000a0000}[101f7484].dll          0x00000000   Data           0  anon$$obj.o ABSOLUTE
    c32{000a0000}[10003d33].dll              0x00000000   Data           0  anon$$obj.o ABSOLUTE
    commsfw{000a0000}.dll                    0x00000000   Data           0  anon$$obj.o ABSOLUTE
    drtaeabi{000a0000}.dll                   0x00000000   Data           0  anon$$obj.o ABSOLUTE
    drtrvct2_2{000a0000}.dll                 0x00000000   Data           0  anon$$obj.o ABSOLUTE
    efsrv{000a0000}[100039e4].dll            0x00000000   Data           0  anon$$obj.o ABSOLUTE
    euser{000a0000}[100039e5].dll            0x00000000   Data           0  anon$$obj.o ABSOLUTE
    scppnwdl{000a0000}.dll                   0x00000000   Data           0  anon$$obj.o ABSOLUTE
    SHT$$INIT_ARRAY$$Base                     - Undefined Weak Reference
    SHT$$INIT_ARRAY$$Limit                    - Undefined Weak Reference
    CObjectCon::AddL(CObject*)                - Undefined Reference
    _ZN10CObjectCon4AddLEP7CObject@euser{000a0000}[100039e5].dll  - Undefined Reference
    CObjectCon::operator [](int)              - Undefined Reference
    _ZN10CObjectConixEi@euser{000a0000}[100039e5].dll  - Undefined Reference
    RArrayBase::Close()                       - Undefined Reference
    _ZN10RArrayBase5CloseEv@euser{000a0000}[100039e5].dll  - Undefined Reference
    RArrayBase::Append(const void*)           - Undefined Reference
    _ZN10RArrayBase6AppendEPKv@euser{000a0000}[100039e5].dll  - Undefined Reference
    RArrayBase::Remove(int)                   - Undefined Reference
    _ZN10RArrayBase6RemoveEi@euser{000a0000}[100039e5].dll  - Undefined Reference
    RArrayBase::RArrayBase(int)               - Undefined Reference
    _ZN10RArrayBaseC1Ei@euser{000a0000}[100039e5].dll  - Undefined Reference
    TBufBase16::TBufBase16(int)               - Undefined Reference
    _ZN10TBufBase16C1Ei@euser{000a0000}[100039e5].dll  - Undefined Reference
    TParsePtrC::TParsePtrC(const TDesC16&)    - Undefined Reference
    _ZN10TParsePtrCC1ERK7TDesC16@efsrv{000a0000}[100039e4].dll  - Undefined Reference
    CDeltaTimer::NewL(int, TTimeIntervalMicroSeconds32)  - Undefined Reference
    _ZN11CDeltaTimer4NewLEi27TTimeIntervalMicroSeconds32@euser{000a0000}[100039e5].dll  - Undefined Reference
    RHandleBase::Open(const TFindHandleBase&, TOwnerType)  - Undefined Reference
    _ZN11RHandleBase4OpenERK15TFindHandleBase10TOwnerType@euser{000a0000}[100039e5].dll  - Undefined Reference
    RHandleBase::Close()                      - Undefined Reference
    _ZN11RHandleBase5CloseEv@euser{000a0000}[100039e5].dll  - Undefined Reference
    TFindThread::Next(TBuf<(int)256>&)        - Undefined Reference
    _ZN11TFindThread4NextER4TBufILi256EE@euser{000a0000}[100039e5].dll  - Undefined Reference
    CObjectConIx::NewL()                      - Undefined Reference
    _ZN12CObjectConIx4NewLEv@euser{000a0000}[100039e5].dll  - Undefined Reference
    CObjectConIx::Remove(CObjectCon*)         - Undefined Reference
    _ZN12CObjectConIx6RemoveEP10CObjectCon@euser{000a0000}[100039e5].dll  - Undefined Reference
    CObjectConIx::CreateL()                   - Undefined Reference
    _ZN12CObjectConIx7CreateLEv@euser{000a0000}[100039e5].dll  - Undefined Reference
    CTrapCleanup::New()                       - Undefined Reference
    _ZN12CTrapCleanup3NewEv@euser{000a0000}[100039e5].dll  - Undefined Reference
    CleanupStack::PopAndDestroy()             - Undefined Reference
    _ZN12CleanupStack13PopAndDestroyEv@euser{000a0000}[100039e5].dll  - Undefined Reference
    CleanupStack::Pop(int)                    - Undefined Reference
    _ZN12CleanupStack3PopEi@euser{000a0000}[100039e5].dll  - Undefined Reference
    CleanupStack::Pop()                       - Undefined Reference
    _ZN12CleanupStack3PopEv@euser{000a0000}[100039e5].dll  - Undefined Reference
    CleanupStack::PushL(TCleanupItem)         - Undefined Reference
    _ZN12CleanupStack5PushLE12TCleanupItem@euser{000a0000}[100039e5].dll  - Undefined Reference
    CleanupStack::PushL(CBase*)               - Undefined Reference
    _ZN12CleanupStack5PushLEP5CBase@euser{000a0000}[100039e5].dll  - Undefined Reference
    RSessionBase::CreateSession(const TDesC16&, const TVersion&, int)  - Undefined Reference
    _ZN12RSessionBase13CreateSessionERK7TDesC16RK8TVersioni@euser{000a0000}[100039e5].dll  - Undefined Reference
    TFindProcess::Next(TBuf<(int)256>&)       - Undefined Reference
    _ZN12TFindProcess4NextER4TBufILi256EE@euser{000a0000}[100039e5].dll  - Undefined Reference
    CAsyncOneShot::Call()                     - Undefined Reference
    _ZN13CAsyncOneShot4CallEv@euser{000a0000}[100039e5].dll  - Undefined Reference
    CAsyncOneShot::DoCancel()                 - Undefined Reference
    _ZN13CAsyncOneShot8DoCancelEv@euser{000a0000}[100039e5].dll  - Undefined Reference
    CAsyncOneShot::CAsyncOneShot__sub_object(int)  - Undefined Reference
    _ZN13CAsyncOneShotC2Ei@euser{000a0000}[100039e5].dll  - Undefined Reference
    CAsyncOneShot::~CAsyncOneShot__sub_object()  - Undefined Reference
    _ZN13CAsyncOneShotD2Ev@euser{000a0000}[100039e5].dll  - Undefined Reference
    CPolicyServer::Extension_(unsigned, void*&, void*)  - Undefined Reference
    _ZN13CPolicyServer10Extension_EjRPvS0_@euser{000a0000}[100039e5].dll  - Undefined Reference
    CPolicyServer::CustomFailureActionL(const RMessage2&, int, const TSecurityInfo&)  - Undefined Reference
    _ZN13CPolicyServer20CustomFailureActionLERK9RMessage2iRK13TSecurityInfo@euser{000a0000}[100039e5].dll  - Undefined Reference
    CPolicyServer::RunL()                     - Undefined Reference
    _ZN13CPolicyServer4RunLEv@euser{000a0000}[100039e5].dll  - Undefined Reference
    CPolicyServer::RunError(int)              - Undefined Reference
    _ZN13CPolicyServer8RunErrorEi@euser{000a0000}[100039e5].dll  - Undefined Reference
    CPolicyServer::CPolicyServer__sub_object(int, const CPolicyServer::TPolicy&, CServer2::TServerType)  - Undefined Reference
    _ZN13CPolicyServerC2EiRKNS_7TPolicyEN8CServer211TServerTypeE@euser{000a0000}[100039e5].dll  - Undefined Reference
    RRsConfigurator::CancelLoadCpm(const TBuf8<(int)32>&)  - Undefined Reference
    _ZN15RRsConfigurator13CancelLoadCpmERK5TBuf8ILi32EE@c32root{000a0000}[101f7484].dll  - Undefined Reference
    RRsConfigurator::EnumerateModules(const TBuf8<(int)32>&, RootServer::TRSIter&, TBuf8<(int)32>&)  - Undefined Reference
    _ZN15RRsConfigurator16EnumerateModulesERK5TBuf8ILi32EERN10RootServer7TRSIterERS1_@c32root{000a0000}[101f7484].dll  - Undefined Reference
    RRsConfigurator::GetModuleIniData(const TBuf8<(int)32>&, TDes8&, int&)  - Undefined Reference
    _ZN15RRsConfigurator16GetModuleIniDataERK5TBuf8ILi32EER5TDes8Ri@c32root{000a0000}[101f7484].dll  - Undefined Reference
    RRsConfigurator::Connect()                - Undefined Reference
    _ZN15RRsConfigurator7ConnectEv@c32root{000a0000}[101f7484].dll  - Undefined Reference
    RRsConfigurator::LoadCpm(const TBuf8<(int)32>&, TRequestStatus&)  - Undefined Reference
    _ZN15RRsConfigurator7LoadCpmERK5TBuf8ILi32EER14TRequestStatus@c32root{000a0000}[101f7484].dll  - Undefined Reference
    RRsConfigurator::RRsConfigurator()        - Undefined Reference
    _ZN15RRsConfiguratorC1Ev@c32root{000a0000}[101f7484].dll  - Undefined Reference
    RSubSessionBase::CloseSubSession(int)     - Undefined Reference
    _ZN15RSubSessionBase15CloseSubSessionEi@euser{000a0000}[100039e5].dll  - Undefined Reference
    RSubSessionBase::DoCreateSubSession(const RSessionBase&, int, const TIpcArgs*)  - Undefined Reference
    _ZN15RSubSessionBase18DoCreateSubSessionERK12RSessionBaseiPK8TIpcArgs@euser{000a0000}[100039e5].dll  - Undefined Reference
    TDblQueIterBase::SetToFirst()             - Undefined Reference
    _ZN15TDblQueIterBase10SetToFirstEv@euser{000a0000}[100039e5].dll  - Undefined Reference
    TDblQueIterBase::DoPostInc()              - Undefined Reference
    _ZN15TDblQueIterBase9DoPostIncEv@euser{000a0000}[100039e5].dll  - Undefined Reference
    TFindHandleBase::TFindHandleBase(const TDesC16&)  - Undefined Reference
    _ZN15TFindHandleBaseC1ERK7TDesC16@euser{000a0000}[100039e5].dll  - Undefined Reference
    TSecurityPolicy::TSecurityPolicy(TSecurityPolicy::TSecPolicyType)  - Undefined Reference
    _ZN15TSecurityPolicyC1ENS_14TSecPolicyTypeE@euser{000a0000}[100039e5].dll  - Undefined Reference
    CActiveScheduler::Extension_(unsigned, void*&, void*)  - Undefined Reference
    _ZN16CActiveScheduler10Extension_EjRPvS0_@euser{000a0000}[100039e5].dll  - Undefined Reference
    CActiveScheduler::OnStarting()            - Undefined Reference
    _ZN16CActiveScheduler10OnStartingEv@euser{000a0000}[100039e5].dll  - Undefined Reference
    CActiveScheduler::OnStopping()            - Undefined Reference
    _ZN16CActiveScheduler10OnStoppingEv@euser{000a0000}[100039e5].dll  - Undefined Reference
    CActiveScheduler::Reserved_1()            - Undefined Reference
    _ZN16CActiveScheduler10Reserved_1Ev@euser{000a0000}[100039e5].dll  - Undefined Reference
    CActiveScheduler::Reserved_2()            - Undefined Reference
    _ZN16CActiveScheduler10Reserved_2Ev@euser{000a0000}[100039e5].dll  - Undefined Reference
    CActiveScheduler::WaitForAnyRequest()     - Undefined Reference
    _ZN16CActiveScheduler17WaitForAnyRequestEv@euser{000a0000}[100039e5].dll  - Undefined Reference
    CActiveScheduler::Add(CActive*)           - Undefined Reference
    _ZN16CActiveScheduler3AddEP7CActive@euser{000a0000}[100039e5].dll  - Undefined Reference
    CActiveScheduler::Stop()                  - Undefined Reference
    _ZN16CActiveScheduler4StopEv@euser{000a0000}[100039e5].dll  - Undefined Reference
    CActiveScheduler::Start()                 - Undefined Reference
    _ZN16CActiveScheduler5StartEv@euser{000a0000}[100039e5].dll  - Undefined Reference
    CActiveScheduler::Install(CActiveScheduler*)  - Undefined Reference
    _ZN16CActiveScheduler7InstallEPS_@euser{000a0000}[100039e5].dll  - Undefined Reference
    CActiveScheduler::CActiveScheduler()      - Undefined Reference
    _ZN16CActiveSchedulerC1Ev@euser{000a0000}[100039e5].dll  - Undefined Reference
    CActiveScheduler::~CActiveScheduler()     - Undefined Reference
    _ZN16CActiveSchedulerD1Ev@euser{000a0000}[100039e5].dll  - Undefined Reference
    RPointerArrayBase::Close()                - Undefined Reference
    _ZN17RPointerArrayBase5CloseEv@euser{000a0000}[100039e5].dll  - Undefined Reference
    RPointerArrayBase::Reset()                - Undefined Reference
    _ZN17RPointerArrayBase5ResetEv@euser{000a0000}[100039e5].dll  - Undefined Reference
    RPointerArrayBase::Append(const void*)    - Undefined Reference
    _ZN17RPointerArrayBase6AppendEPKv@euser{000a0000}[100039e5].dll  - Undefined Reference
    RPointerArrayBase::Remove(int)            - Undefined Reference
    _ZN17RPointerArrayBase6RemoveEi@euser{000a0000}[100039e5].dll  - Undefined Reference
    RPointerArrayBase::InsertIsq(const void*, int(*)(const void*, const void*), int)  - Undefined Reference
    _ZN17RPointerArrayBase9InsertIsqEPKvPFiS1_S1_Ei@euser{000a0000}[100039e5].dll  - Undefined Reference
    RPointerArrayBase::RPointerArrayBase()    - Undefined Reference
    _ZN17RPointerArrayBaseC1Ev@euser{000a0000}[100039e5].dll  - Undefined Reference
    User::LeaveIfNull(void*)                  - Undefined Reference
    _ZN4User11LeaveIfNullEPv@euser{000a0000}[100039e5].dll  - Undefined Reference
    User::LeaveIfError(int)                   - Undefined Reference
    _ZN4User12LeaveIfErrorEi@euser{000a0000}[100039e5].dll  - Undefined Reference
    User::RequestComplete(TRequestStatus*&, int)  - Undefined Reference
    _ZN4User15RequestCompleteERP14TRequestStatusi@euser{000a0000}[100039e5].dll  - Undefined Reference
    User::SwitchAllocator(RAllocator*)        - Undefined Reference
    _ZN4User15SwitchAllocatorEP10RAllocator@euser{000a0000}[100039e5].dll  - Undefined Reference
    User::MarkCleanupStack()                  - Undefined Reference
    _ZN4User16MarkCleanupStackEv@euser{000a0000}[100039e5].dll  - Undefined Reference
    User::LoadLogicalDevice(const TDesC16&)   - Undefined Reference
    _ZN4User17LoadLogicalDeviceERK7TDesC16@euser{000a0000}[100039e5].dll  - Undefined Reference
    User::LoadPhysicalDevice(const TDesC16&)  - Undefined Reference
    _ZN4User18LoadPhysicalDeviceERK7TDesC16@euser{000a0000}[100039e5].dll  - Undefined Reference
    User::UnMarkCleanupStack(TTrapHandler*)   - Undefined Reference
    _ZN4User18UnMarkCleanupStackEP12TTrapHandler@euser{000a0000}[100039e5].dll  - Undefined Reference
    User::QueryVersionSupported(const TVersion&, const TVersion&)  - Undefined Reference
    _ZN4User21QueryVersionSupportedERK8TVersionS2_@euser{000a0000}[100039e5].dll  - Undefined Reference
    User::Free(void*)                         - Undefined Reference
    _ZN4User4FreeEPv@euser{000a0000}[100039e5].dll  - Undefined Reference
    User::Alloc(int)                          - Undefined Reference
    _ZN4User5AllocEi@euser{000a0000}[100039e5].dll  - Undefined Reference
    User::Leave(int)                          - Undefined Reference
    _ZN4User5LeaveEi@euser{000a0000}[100039e5].dll  - Undefined Reference
    User::Panic(const TDesC16&, int)          - Undefined Reference
    _ZN4User5PanicERK7TDesC16i@euser{000a0000}[100039e5].dll  - Undefined Reference
    User::AllocZ(int)                         - Undefined Reference
    _ZN4User6AllocZEi@euser{000a0000}[100039e5].dll  - Undefined Reference
    User::AllocZL(int)                        - Undefined Reference
    _ZN4User7AllocZLEi@euser{000a0000}[100039e5].dll  - Undefined Reference
    User::ReAlloc(void*, int, int)            - Undefined Reference
    _ZN4User7ReAllocEPvii@euser{000a0000}[100039e5].dll  - Undefined Reference
    User::Allocator()                         - Undefined Reference
    _ZN4User9AllocatorEv@euser{000a0000}[100039e5].dll  - Undefined Reference
    User::Invariant()                         - Undefined Reference
    _ZN4User9InvariantEv@euser{000a0000}[100039e5].dll  - Undefined Reference
    CBase::Extension_(unsigned, void*&, void*)  - Undefined Reference
    _ZN5CBase10Extension_EjRPvS0_@euser{000a0000}[100039e5].dll  - Undefined Reference
    CBase::~CBase()                           - Undefined Reference
    _ZN5CBaseD1Ev@euser{000a0000}[100039e5].dll  - Undefined Reference
    RBuf8::CleanupClosePushL()                - Undefined Reference
    _ZN5RBuf817CleanupClosePushLEv@euser{000a0000}[100039e5].dll  - Undefined Reference
    RBuf8::CreateL(int)                       - Undefined Reference
    _ZN5RBuf87CreateLEi@euser{000a0000}[100039e5].dll  - Undefined Reference
    RBuf8::ReAllocL(int)                      - Undefined Reference
    _ZN5RBuf88ReAllocLEi@euser{000a0000}[100039e5].dll  - Undefined Reference
    RBuf8::RBuf8()                            - Undefined Reference
    _ZN5RBuf8C1Ev@euser{000a0000}[100039e5].dll  - Undefined Reference
    TDes8::Copy(const TDesC8&)                - Undefined Reference
    _ZN5TDes84CopyERK6TDesC8@euser{000a0000}[100039e5].dll  - Undefined Reference
    TDes8::Copy(const TDesC16&)               - Undefined Reference
    _ZN5TDes84CopyERK7TDesC16@euser{000a0000}[100039e5].dll  - Undefined Reference
    TDes8::Append(const TDesC8&)              - Undefined Reference
    _ZN5TDes86AppendERK6TDesC8@euser{000a0000}[100039e5].dll  - Undefined Reference
    TDes8::Format(TRefByValue<const TDesC8>, ...)  - Undefined Reference
    _ZN5TDes86FormatE11TRefByValueIK6TDesC8Ez@euser{000a0000}[100039e5].dll  - Undefined Reference
    TDes8::SetLength(int)                     - Undefined Reference
    _ZN5TDes89SetLengthEi@euser{000a0000}[100039e5].dll  - Undefined Reference
    TLex8::Val(long&)                         - Undefined Reference
    _ZN5TLex83ValERl@euser{000a0000}[100039e5].dll  - Undefined Reference
    TLex8::Assign(const TDesC8&)              - Undefined Reference
    _ZN5TLex86AssignERK6TDesC8@euser{000a0000}[100039e5].dll  - Undefined Reference
    TPtr8::TPtr8(unsigned char*, int)         - Undefined Reference
    _ZN5TPtr8C1EPhi@euser{000a0000}[100039e5].dll  - Undefined Reference
    TPtr8::TPtr8(unsigned char*, int, int)    - Undefined Reference
    _ZN5TPtr8C1EPhii@euser{000a0000}[100039e5].dll  - Undefined Reference
    TTime::HomeTime()                         - Undefined Reference
    _ZN5TTime8HomeTimeEv@euser{000a0000}[100039e5].dll  - Undefined Reference
    TTime::operator +=(TTimeIntervalMicroSeconds32)  - Undefined Reference
    _ZN5TTimepLE27TTimeIntervalMicroSeconds32@euser{000a0000}[100039e5].dll  - Undefined Reference
    CTimer::ConstructL()                      - Undefined Reference
    _ZN6CTimer10ConstructLEv@euser{000a0000}[100039e5].dll  - Undefined Reference
    CTimer::After(TTimeIntervalMicroSeconds32)  - Undefined Reference
    _ZN6CTimer5AfterE27TTimeIntervalMicroSeconds32@euser{000a0000}[100039e5].dll  - Undefined Reference
    CTimer::DoCancel()                        - Undefined Reference
    _ZN6CTimer8DoCancelEv@euser{000a0000}[100039e5].dll  - Undefined Reference
    CTimer::CTimer__sub_object(int)           - Undefined Reference
    _ZN6CTimerC2Ei@euser{000a0000}[100039e5].dll  - Undefined Reference
    CTimer::~CTimer__sub_object()             - Undefined Reference
    _ZN6CTimerD2Ev@euser{000a0000}[100039e5].dll  - Undefined Reference
    RBuf16::Close()                           - Undefined Reference
    _ZN6RBuf165CloseEv@euser{000a0000}[100039e5].dll  - Undefined Reference
    RBuf16::ReAlloc(int)                      - Undefined Reference
    _ZN6RBuf167ReAllocEi@euser{000a0000}[100039e5].dll  - Undefined Reference
    RBuf16::RBuf16()                          - Undefined Reference
    _ZN6RBuf16C1Ev@euser{000a0000}[100039e5].dll  - Undefined Reference
    TDes16::Copy(const TDesC8&)               - Undefined Reference
    _ZN6TDes164CopyERK6TDesC8@euser{000a0000}[100039e5].dll  - Undefined Reference
    TDes16::Copy(const TDesC16&)              - Undefined Reference
    _ZN6TDes164CopyERK7TDesC16@euser{000a0000}[100039e5].dll  - Undefined Reference
    TDes16::Append(const TDesC16&)            - Undefined Reference
    _ZN6TDes166AppendERK7TDesC16@euser{000a0000}[100039e5].dll  - Undefined Reference
    TLex16::Val(unsigned long&, TRadix)       - Undefined Reference
    _ZN6TLex163ValERm6TRadix@euser{000a0000}[100039e5].dll  - Undefined Reference
    TLex16::Assign(const TDesC16&)            - Undefined Reference
    _ZN6TLex166AssignERK7TDesC16@euser{000a0000}[100039e5].dll  - Undefined Reference
    TPtrC8::TPtrC8(const unsigned char*)      - Undefined Reference
    _ZN6TPtrC8C1EPKh@euser{000a0000}[100039e5].dll  - Undefined Reference
    TPtrC8::TPtrC8(const unsigned char*, int)  - Undefined Reference
    _ZN6TPtrC8C1EPKhi@euser{000a0000}[100039e5].dll  - Undefined Reference
    TPtrC8::TPtrC8(const TDesC8&)             - Undefined Reference
    _ZN6TPtrC8C1ERK6TDesC8@euser{000a0000}[100039e5].dll  - Undefined Reference
    TPtrC8::TPtrC8()                          - Undefined Reference
    _ZN6TPtrC8C1Ev@euser{000a0000}[100039e5].dll  - Undefined Reference
    CActive::Extension_(unsigned, void*&, void*)  - Undefined Reference
    _ZN7CActive10Extension_EjRPvS0_@euser{000a0000}[100039e5].dll  - Undefined Reference
    CActive::Deque()                          - Undefined Reference
    _ZN7CActive5DequeEv@euser{000a0000}[100039e5].dll  - Undefined Reference
    CActive::Cancel()                         - Undefined Reference
    _ZN7CActive6CancelEv@euser{000a0000}[100039e5].dll  - Undefined Reference
    CActive::RunError(int)                    - Undefined Reference
    _ZN7CActive8RunErrorEi@euser{000a0000}[100039e5].dll  - Undefined Reference
    CActive::SetActive()                      - Undefined Reference
    _ZN7CActive9SetActiveEv@euser{000a0000}[100039e5].dll  - Undefined Reference
    CActive::CActive__sub_object(int)         - Undefined Reference
    _ZN7CActiveC2Ei@euser{000a0000}[100039e5].dll  - Undefined Reference
    CActive::~CActive__sub_object()           - Undefined Reference
    _ZN7CActiveD2Ev@euser{000a0000}[100039e5].dll  - Undefined Reference
    CObject::Extension_(unsigned, void*&, void*)  - Undefined Reference
    _ZN7CObject10Extension_EjRPvS0_@euser{000a0000}[100039e5].dll  - Undefined Reference
    CObject::Open()                           - Undefined Reference
    _ZN7CObject4OpenEv@euser{000a0000}[100039e5].dll  - Undefined Reference
    CObject::Close()                          - Undefined Reference
    _ZN7CObject5CloseEv@euser{000a0000}[100039e5].dll  - Undefined Reference
    CObject::CObject()                        - Undefined Reference
    _ZN7CObjectC1Ev@euser{000a0000}[100039e5].dll  - Undefined Reference
    CObject::~CObject()                       - Undefined Reference
    _ZN7CObjectD1Ev@euser{000a0000}[100039e5].dll  - Undefined Reference
    CommsFW::CCommsTransport::PostMessage(const CommsFW::TCookie&, const CommsFW::TCFMessage&)  - Undefined Reference
    _ZN7CommsFW15CCommsTransport11PostMessageERKNS_7TCookieERKNS_10TCFMessageE@commsfw{000a0000}.dll  - Undefined Reference
    CommsFW::CCommsTransport::DropTransportToPeer(int)  - Undefined Reference
    _ZN7CommsFW15CCommsTransport19DropTransportToPeerEi@commsfw{000a0000}.dll  - Undefined Reference
    CommsFW::CCommsTransport::RegisterLegacyInterface(CommsFW::MLegacyMessageReceiver*, CommsFW::TCookie&)  - Undefined Reference
    _ZN7CommsFW15CCommsTransport23RegisterLegacyInterfaceEPNS_22MLegacyMessageReceiverERNS_7TCookieE@commsfw{000a0000}.dll  - Undefined Reference
    CommsFW::CCommsTransport::SetDropTransportPending(int, int)  - Undefined Reference
    _ZN7CommsFW15CCommsTransport23SetDropTransportPendingEii@commsfw{000a0000}.dll  - Undefined Reference
    CommsFW::CCommsTransport::EstablishTransportToPeer(int, const CommsFW::RCFChannelBase<CommsFW::TCFMessage, (int)1>::TMsgQueuesTAG&, const CommsFW::RCFChannelBase<CommsFW::TCFMessage, (int)1>::TMsgQueuesTAG&)  - Undefined Reference
    _ZN7CommsFW15CCommsTransport24EstablishTransportToPeerEiRKNS_14RCFChannelBaseINS_10TCFMessageELi1EE13TMsgQueuesTAGES6_@commsfw{000a0000}.dll  - Undefined Reference
    CommsFW::CCommsTransport::SetLastRequestIdConcerningPeer(int, int)  - Undefined Reference
    _ZN7CommsFW15CCommsTransport30SetLastRequestIdConcerningPeerEii@commsfw{000a0000}.dll  - Undefined Reference
    CommsFW::CCommsTransport::NewL(CommsFW::MWorkerThreadRegister&, const Meta::CMetaDataVirtualCtorInPlace*, CommsFW::CCFTransportHooks*)  - Undefined Reference
    _ZN7CommsFW15CCommsTransport4NewLERNS_21MWorkerThreadRegisterEPKN4Meta27CMetaDataVirtualCtorInPlaceEPNS_17CCFTransportHooksE@commsfw{000a0000}.dll  - Undefined Reference
    CommsFW::GetVarFromIniData(const TDesC8&, const TDesC8&, const TDesC8&, TPtrC8&)  - Undefined Reference
    _ZN7CommsFW17GetVarFromIniDataERK6TDesC8S2_S2_R6TPtrC8@commsfw{000a0000}.dll  - Undefined Reference
    CommsFW::RCFChannelRawBase::~RCFChannelRawBase()  - Undefined Reference
    _ZN7CommsFW17RCFChannelRawBaseD1Ev@commsfw{000a0000}.dll  - Undefined Reference
    CommsFW::CCFChannelPairRawBase::RunL()    - Undefined Reference
    _ZN7CommsFW21CCFChannelPairRawBase4RunLEv@commsfw{000a0000}.dll  - Undefined Reference
    CommsFW::CCFChannelPairRawBase::DoCancel()  - Undefined Reference
    _ZN7CommsFW21CCFChannelPairRawBase8DoCancelEv@commsfw{000a0000}.dll  - Undefined Reference
    CommsFW::CCFChannelPairRawBase::DoSendPIG(const void*)  - Undefined Reference
    _ZN7CommsFW21CCFChannelPairRawBase9DoSendPIGEPKv@commsfw{000a0000}.dll  - Undefined Reference
    CommsFW::CCFChannelPairRawBase::~CCFChannelPairRawBase()  - Undefined Reference
    _ZN7CommsFW21CCFChannelPairRawBaseD1Ev@commsfw{000a0000}.dll  - Undefined Reference
    CommsFW::TWorkerThreadDataBase::Init(int, int)  - Undefined Reference
    _ZN7CommsFW21TWorkerThreadDataBase4InitEii@commsfw{000a0000}.dll  - Undefined Reference
    CommsFW::TWorkerThreadDataBase::Clear()   - Undefined Reference
    _ZN7CommsFW21TWorkerThreadDataBase5ClearEv@commsfw{000a0000}.dll  - Undefined Reference
    CommsFW::CCFModuleChannelHandler::ConstructL(CommsFW::RCFChannelBase<CommsFW::TCFMessage, (int)1>::TMsgQueuesTAG&, CommsFW::RCFChannelBase<CommsFW::TCFMessage, (int)1>::TMsgQueuesTAG&)  - Undefined Reference
    _ZN7CommsFW23CCFModuleChannelHandler10ConstructLERNS_14RCFChannelBaseINS_10TCFMessageELi1EE13TMsgQueuesTAGES5_@commsfw{000a0000}.dll  - Undefined Reference
    CommsFW::CCFModuleChannelHandler::CFChannelError(int)  - Undefined Reference
    _ZN7CommsFW23CCFModuleChannelHandler14CFChannelErrorEi@commsfw{000a0000}.dll  - Undefined Reference
    CommsFW::CCFModuleChannelHandler::CFMessageForward(const CommsFW::TCFForwardMsg&)  - Undefined Reference
    _ZN7CommsFW23CCFModuleChannelHandler16CFMessageForwardERKNS_13TCFForwardMsgE@commsfw{000a0000}.dll  - Undefined Reference
    CommsFW::CCFModuleChannelHandler::CFMessageUnknown(const CommsFW::TCFMessage&)  - Undefined Reference
    _ZN7CommsFW23CCFModuleChannelHandler16CFMessageUnknownERKNS_10TCFMessageE@commsfw{000a0000}.dll  - Undefined Reference
    CommsFW::CCFModuleChannelHandler::RunL()  - Undefined Reference
    _ZN7CommsFW23CCFModuleChannelHandler4RunLEv@commsfw{000a0000}.dll  - Undefined Reference
    CommsFW::CCFModuleChannelHandler::Send(const CommsFW::TCFMessage&)  - Undefined Reference
    _ZN7CommsFW23CCFModuleChannelHandler4SendERKNS_10TCFMessageE@commsfw{000a0000}.dll  - Undefined Reference
    CommsFW::CCFModuleChannelHandler::DoCancel()  - Undefined Reference
    _ZN7CommsFW23CCFModuleChannelHandler8DoCancelEv@commsfw{000a0000}.dll  - Undefined Reference
    CommsFW::CCFModuleChannelHandler::CCFModuleChannelHandler(int)  - Undefined Reference
    _ZN7CommsFW23CCFModuleChannelHandlerC1Ei@commsfw{000a0000}.dll  - Undefined Reference
    CommsFW::CCFModuleChannelHandler::~CCFModuleChannelHandler()  - Undefined Reference
    _ZN7CommsFW23CCFModuleChannelHandlerD1Ev@commsfw{000a0000}.dll  - Undefined Reference
    RThread::Rendezvous(int)                  - Undefined Reference
    _ZN7RThread10RendezvousEi@euser{000a0000}[100039e5].dll  - Undefined Reference
    RThread::Open(const TDesC16&, TOwnerType)  - Undefined Reference
    _ZN7RThread4OpenERK7TDesC1610TOwnerType@euser{000a0000}[100039e5].dll  - Undefined Reference
    RThread::Panic(const TDesC16&, int)       - Undefined Reference
    _ZN7RThread5PanicERK7TDesC16i@euser{000a0000}[100039e5].dll  - Undefined Reference
    TPtrC16::TPtrC16(const unsigned short*, int)  - Undefined Reference
    _ZN7TPtrC16C1EPKti@euser{000a0000}[100039e5].dll  - Undefined Reference
    TPtrC16::TPtrC16(const TDesC16&)          - Undefined Reference
    _ZN7TPtrC16C1ERK7TDesC16@euser{000a0000}[100039e5].dll  - Undefined Reference
    UserSvr::DllFreeTls(int)                  - Undefined Reference
    _ZN7UserSvr10DllFreeTlsEi@euser{000a0000}[100039e5].dll  - Undefined Reference
    UserSvr::DllTls(int, int)                 - Undefined Reference
    _ZN7UserSvr6DllTlsEii@euser{000a0000}[100039e5].dll  - Undefined Reference
    UserSvr::DllSetTls(int, int, void*)       - Undefined Reference
    _ZN7UserSvr9DllSetTlsEiiPv@euser{000a0000}[100039e5].dll  - Undefined Reference
    CServer2::StartL(const TDesC16&)          - Undefined Reference
    _ZN8CServer26StartLERK7TDesC16@euser{000a0000}[100039e5].dll  - Undefined Reference
    CServer2::DoCancel()                      - Undefined Reference
    _ZN8CServer28DoCancelEv@euser{000a0000}[100039e5].dll  - Undefined Reference
    CServer2::DoConnect(const RMessage2&)     - Undefined Reference
    _ZN8CServer29DoConnectERK9RMessage2@euser{000a0000}[100039e5].dll  - Undefined Reference
    CServer2::~CServer2__sub_object()         - Undefined Reference
    _ZN8CServer2D2Ev@euser{000a0000}[100039e5].dll  - Undefined Reference
    RLibrary::Load(const TDesC16&, const TDesC16&)  - Undefined Reference
    _ZN8RLibrary4LoadERK7TDesC16S2_@euser{000a0000}[100039e5].dll  - Undefined Reference
    RLibrary::Close()                         - Undefined Reference
    _ZN8RLibrary5CloseEv@euser{000a0000}[100039e5].dll  - Undefined Reference
    TVersion::TVersion(int, int, int)         - Undefined Reference
    _ZN8TVersionC1Eiii@euser{000a0000}[100039e5].dll  - Undefined Reference
    TVersion::TVersion()                      - Undefined Reference
    _ZN8TVersionC1Ev@euser{000a0000}[100039e5].dll  - Undefined Reference
    CSession2::Disconnect(const RMessage2&)   - Undefined Reference
    _ZN9CSession210DisconnectERK9RMessage2@euser{000a0000}[100039e5].dll  - Undefined Reference
    CSession2::Extension_(unsigned, void*&, void*)  - Undefined Reference
    _ZN9CSession210Extension_EjRPvS0_@euser{000a0000}[100039e5].dll  - Undefined Reference
    CSession2::ServiceError(const RMessage2&, int)  - Undefined Reference
    _ZN9CSession212ServiceErrorERK9RMessage2i@euser{000a0000}[100039e5].dll  - Undefined Reference
    CSession2::CountResources()               - Undefined Reference
    _ZN9CSession214CountResourcesEv@euser{000a0000}[100039e5].dll  - Undefined Reference
    CSession2::CreateL()                      - Undefined Reference
    _ZN9CSession27CreateLEv@euser{000a0000}[100039e5].dll  - Undefined Reference
    CSession2::CSession2__sub_object()        - Undefined Reference
    _ZN9CSession2C2Ev@euser{000a0000}[100039e5].dll  - Undefined Reference
    CSession2::~CSession2__sub_object()       - Undefined Reference
    _ZN9CSession2D2Ev@euser{000a0000}[100039e5].dll  - Undefined Reference
    RFastLock::CreateLocal(TOwnerType)        - Undefined Reference
    _ZN9RFastLock11CreateLocalE10TOwnerType@euser{000a0000}[100039e5].dll  - Undefined Reference
    RFastLock::Wait()                         - Undefined Reference
    _ZN9RFastLock4WaitEv@euser{000a0000}[100039e5].dll  - Undefined Reference
    RFastLock::Signal()                       - Undefined Reference
    _ZN9RFastLock6SignalEv@euser{000a0000}[100039e5].dll  - Undefined Reference
    TBufBase8::TBufBase8(const TDesC8&, int)  - Undefined Reference
    _ZN9TBufBase8C1ERK6TDesC8i@euser{000a0000}[100039e5].dll  - Undefined Reference
    TBufBase8::TBufBase8(int)                 - Undefined Reference
    _ZN9TBufBase8C1Ei@euser{000a0000}[100039e5].dll  - Undefined Reference
    TBufBase8::TBufBase8(int, int)            - Undefined Reference
    _ZN9TBufBase8C1Eii@euser{000a0000}[100039e5].dll  - Undefined Reference
    CObjectCon::FindByName(int&, const TDesC16&, TBuf<(int)128>&) const  - Undefined Reference
    _ZNK10CObjectCon10FindByNameERiRK7TDesC16R4TBufILi128EE@euser{000a0000}[100039e5].dll  - Undefined Reference
    CObjectCon::FindByFullName(int&, const TDesC16&, TBuf<(int)256>&) const  - Undefined Reference
    _ZNK10CObjectCon14FindByFullNameERiRK7TDesC16R4TBufILi256EE@euser{000a0000}[100039e5].dll  - Undefined Reference
    CObjectCon::At(int) const                 - Undefined Reference
    _ZNK10CObjectCon2AtEi@euser{000a0000}[100039e5].dll  - Undefined Reference
    RArrayBase::At(int) const                 - Undefined Reference
    _ZNK10RArrayBase2AtEi@euser{000a0000}[100039e5].dll  - Undefined Reference
    RArrayBase::Count() const                 - Undefined Reference
    _ZNK10RArrayBase5CountEv@euser{000a0000}[100039e5].dll  - Undefined Reference
    TParseBase::Name() const                  - Undefined Reference
    _ZNK10TParseBase4NameEv@efsrv{000a0000}[100039e4].dll  - Undefined Reference
    RMessagePtr2::GetDesLength(int) const     - Undefined Reference
    _ZNK12RMessagePtr212GetDesLengthEi@euser{000a0000}[100039e5].dll  - Undefined Reference
    RMessagePtr2::Read(int, TDes8&, int) const  - Undefined Reference
    _ZNK12RMessagePtr24ReadEiR5TDes8i@euser{000a0000}[100039e5].dll  - Undefined Reference
    RMessagePtr2::Read(int, TDes16&, int) const  - Undefined Reference
    _ZNK12RMessagePtr24ReadEiR6TDes16i@euser{000a0000}[100039e5].dll  - Undefined Reference
    RMessagePtr2::Panic(const TDesC16&, int) const  - Undefined Reference
    _ZNK12RMessagePtr25PanicERK7TDesC16i@euser{000a0000}[100039e5].dll  - Undefined Reference
    RMessagePtr2::Write(int, const TDesC8&, int) const  - Undefined Reference
    _ZNK12RMessagePtr25WriteEiRK6TDesC8i@euser{000a0000}[100039e5].dll  - Undefined Reference
    RMessagePtr2::Write(int, const TDesC16&, int) const  - Undefined Reference
    _ZNK12RMessagePtr25WriteEiRK7TDesC16i@euser{000a0000}[100039e5].dll  - Undefined Reference
    RMessagePtr2::Complete(int) const         - Undefined Reference
    _ZNK12RMessagePtr28CompleteEi@euser{000a0000}[100039e5].dll  - Undefined Reference
    RSessionBase::DoSendReceive(int, const TIpcArgs*) const  - Undefined Reference
    _ZNK12RSessionBase13DoSendReceiveEiPK8TIpcArgs@euser{000a0000}[100039e5].dll  - Undefined Reference
    RSubSessionBase::DoSendReceive(int, const TIpcArgs*) const  - Undefined Reference
    _ZNK15RSubSessionBase13DoSendReceiveEiPK8TIpcArgs@euser{000a0000}[100039e5].dll  - Undefined Reference
    RSubSessionBase::DoSendReceive(int, const TIpcArgs*, TRequestStatus&) const  - Undefined Reference
    _ZNK15RSubSessionBase13DoSendReceiveEiPK8TIpcArgsR14TRequestStatus@euser{000a0000}[100039e5].dll  - Undefined Reference
    TSecurityPolicy::DoCheckPolicy(RMessagePtr2, const char*) const  - Undefined Reference
    _ZNK15TSecurityPolicy13DoCheckPolicyE12RMessagePtr2PKc@euser{000a0000}[100039e5].dll  - Undefined Reference
    XLeaveException::GetReason() const        - Undefined Reference
    _ZNK15XLeaveException9GetReasonEv@euser{000a0000}[100039e5].dll  - Undefined Reference
    RPointerArrayBase::At(int) const          - Undefined Reference
    _ZNK17RPointerArrayBase2AtEi@euser{000a0000}[100039e5].dll  - Undefined Reference
    RPointerArrayBase::Find(const void*) const  - Undefined Reference
    _ZNK17RPointerArrayBase4FindEPKv@euser{000a0000}[100039e5].dll  - Undefined Reference
    RPointerArrayBase::Find(const void*, int(*)(const void*, const void*)) const  - Undefined Reference
    _ZNK17RPointerArrayBase4FindEPKvPFiS1_S1_E@euser{000a0000}[100039e5].dll  - Undefined Reference
    RPointerArrayBase::Count() const          - Undefined Reference
    _ZNK17RPointerArrayBase5CountEv@euser{000a0000}[100039e5].dll  - Undefined Reference
    RPointerArrayBase::FindIsq(const void*, int(*)(const void*, const void*)) const  - Undefined Reference
    _ZNK17RPointerArrayBase7FindIsqEPKvPFiS1_S1_E@euser{000a0000}[100039e5].dll  - Undefined Reference
    TUid::operator !=(const TUid&) const      - Undefined Reference
    _ZNK4TUidneERKS_@euser{000a0000}[100039e5].dll  - Undefined Reference
    TDesC8::LocateReverse(TChar) const        - Undefined Reference
    _ZNK6TDesC813LocateReverseE5TChar@euser{000a0000}[100039e5].dll  - Undefined Reference
    TDesC8::AtC(int) const                    - Undefined Reference
    _ZNK6TDesC83AtCEi@euser{000a0000}[100039e5].dll  - Undefined Reference
    TDesC8::Mid(int) const                    - Undefined Reference
    _ZNK6TDesC83MidEi@euser{000a0000}[100039e5].dll  - Undefined Reference
    TDesC8::Mid(int, int) const               - Undefined Reference
    _ZNK6TDesC83MidEii@euser{000a0000}[100039e5].dll  - Undefined Reference
    TDesC8::Find(const TDesC8&) const         - Undefined Reference
    _ZNK6TDesC84FindERKS_@euser{000a0000}[100039e5].dll  - Undefined Reference
    TDesC8::AllocL() const                    - Undefined Reference
    _ZNK6TDesC86AllocLEv@euser{000a0000}[100039e5].dll  - Undefined Reference
    TDesC8::Compare(const TDesC8&) const      - Undefined Reference
    _ZNK6TDesC87CompareERKS_@euser{000a0000}[100039e5].dll  - Undefined Reference
    TDesC8::CompareF(const TDesC8&) const     - Undefined Reference
    _ZNK6TDesC88CompareFERKS_@euser{000a0000}[100039e5].dll  - Undefined Reference
    CObject::Name() const                     - Undefined Reference
    _ZNK7CObject4NameEv@euser{000a0000}[100039e5].dll  - Undefined Reference
    CObject::FullName() const                 - Undefined Reference
    _ZNK7CObject8FullNameEv@euser{000a0000}[100039e5].dll  - Undefined Reference
    CommsFW::CCommsTransport::PeerReachable(int) const  - Undefined Reference
    _ZNK7CommsFW15CCommsTransport13PeerReachableEi@commsfw{000a0000}.dll  - Undefined Reference
    CommsFW::CCommsTransport::IsDropTransportPending(int) const  - Undefined Reference
    _ZNK7CommsFW15CCommsTransport22IsDropTransportPendingEi@commsfw{000a0000}.dll  - Undefined Reference
    CommsFW::CCommsTransport::LastRequestIdConcerningPeer(int) const  - Undefined Reference
    _ZNK7CommsFW15CCommsTransport27LastRequestIdConcerningPeerEi@commsfw{000a0000}.dll  - Undefined Reference
    RThread::Id() const                       - Undefined Reference
    _ZNK7RThread2IdEv@euser{000a0000}[100039e5].dll  - Undefined Reference
    RThread::Process(RProcess&) const         - Undefined Reference
    _ZNK7RThread7ProcessER8RProcess@euser{000a0000}[100039e5].dll  - Undefined Reference
    TDesC16::LocateReverse(TChar) const       - Undefined Reference
    _ZNK7TDesC1613LocateReverseE5TChar@euser{000a0000}[100039e5].dll  - Undefined Reference
    TDesC16::AtC(int) const                   - Undefined Reference
    _ZNK7TDesC163AtCEi@euser{000a0000}[100039e5].dll  - Undefined Reference
    TDesC16::Find(const TDesC16&) const       - Undefined Reference
    _ZNK7TDesC164FindERKS_@euser{000a0000}[100039e5].dll  - Undefined Reference
    TDesC16::Left(int) const                  - Undefined Reference
    _ZNK7TDesC164LeftEi@euser{000a0000}[100039e5].dll  - Undefined Reference
    TDesC16::AllocL() const                   - Undefined Reference
    _ZNK7TDesC166AllocLEv@euser{000a0000}[100039e5].dll  - Undefined Reference
    TDesC16::Compare(const TDesC16&) const    - Undefined Reference
    _ZNK7TDesC167CompareERKS_@euser{000a0000}[100039e5].dll  - Undefined Reference
    TDesC16::CompareF(const TDesC16&) const   - Undefined Reference
    _ZNK7TDesC168CompareFERKS_@euser{000a0000}[100039e5].dll  - Undefined Reference
    RLibrary::Type() const                    - Undefined Reference
    _ZNK8RLibrary4TypeEv@euser{000a0000}[100039e5].dll  - Undefined Reference
    RLibrary::Lookup(int) const               - Undefined Reference
    _ZNK8RLibrary6LookupEi@euser{000a0000}[100039e5].dll  - Undefined Reference
    RLibrary::FileName() const                - Undefined Reference
    _ZNK8RLibrary8FileNameEv@euser{000a0000}[100039e5].dll  - Undefined Reference
    RProcess::Id() const                      - Undefined Reference
    _ZNK8RProcess2IdEv@euser{000a0000}[100039e5].dll  - Undefined Reference
    TUidType::operator [](int) const          - Undefined Reference
    _ZNK8TUidTypeixEi@euser{000a0000}[100039e5].dll  - Undefined Reference
    typeinfo for CAsyncOneShot                - Undefined Reference
    _ZTI13CAsyncOneShot@euser{000a0000}[100039e5].dll  - Undefined Reference
    typeinfo for CPolicyServer                - Undefined Reference
    _ZTI13CPolicyServer@euser{000a0000}[100039e5].dll  - Undefined Reference
    typeinfo for XLeaveException              - Undefined Reference
    _ZTI15XLeaveException@drtaeabi{000a0000}.dll  - Undefined Reference
    typeinfo for CActiveScheduler             - Undefined Reference
    _ZTI16CActiveScheduler@euser{000a0000}[100039e5].dll  - Undefined Reference
    typeinfo for CBase                        - Undefined Reference
    _ZTI5CBase@euser{000a0000}[100039e5].dll  - Undefined Reference
    typeinfo for CTimer                       - Undefined Reference
    _ZTI6CTimer@euser{000a0000}[100039e5].dll  - Undefined Reference
    typeinfo for CActive                      - Undefined Reference
    _ZTI7CActive@euser{000a0000}[100039e5].dll  - Undefined Reference
    typeinfo for CObject                      - Undefined Reference
    _ZTI7CObject@euser{000a0000}[100039e5].dll  - Undefined Reference
    typeinfo for CSession2                    - Undefined Reference
    _ZTI9CSession2@euser{000a0000}[100039e5].dll  - Undefined Reference
    typeinfo for CommsFW::CCFChannelPairRawBase  - Undefined Reference
    _ZTIN7CommsFW21CCFChannelPairRawBaseE@commsfw{000a0000}.dll  - Undefined Reference
    typeinfo for CommsFW::CCFModuleChannelHandler  - Undefined Reference
    _ZTIN7CommsFW23CCFModuleChannelHandlerE@commsfw{000a0000}.dll  - Undefined Reference
    vtable for __cxxabiv1::__class_type_info  - Undefined Reference
    _ZTVN10__cxxabiv117__class_type_infoE@drtaeabi{000a0000}.dll  - Undefined Reference
    vtable for __cxxabiv1::__si_class_type_info  - Undefined Reference
    _ZTVN10__cxxabiv120__si_class_type_infoE@drtaeabi{000a0000}.dll  - Undefined Reference
    vtable for __cxxabiv1::__vmi_class_type_info  - Undefined Reference
    _ZTVN10__cxxabiv121__vmi_class_type_infoE@drtaeabi{000a0000}.dll  - Undefined Reference
    operator delete (void*)                   - Undefined Reference
    _ZdlPv@scppnwdl{000a0000}.dll             - Undefined Reference
    __ARM_ll_cmpge                            - Undefined Reference
    __ARM_ll_cmpge@drtrvct2_2{000a0000}.dll   - Undefined Reference
    __ARM_ll_cmpu                             - Undefined Reference
    __ARM_ll_cmpu@drtrvct2_2{000a0000}.dll    - Undefined Reference
    __aeabi_memclr4                           - Undefined Reference
    __aeabi_memclr4@drtaeabi{000a0000}.dll    - Undefined Reference
    __aeabi_memcpy                            - Undefined Reference
    __aeabi_memcpy4                           - Undefined Reference
    __aeabi_memcpy4@drtaeabi{000a0000}.dll    - Undefined Reference
    __aeabi_memcpy@drtaeabi{000a0000}.dll     - Undefined Reference
    __aeabi_unwind_cpp_pr0                    - Undefined Reference
    __aeabi_unwind_cpp_pr0@drtaeabi{000a0000}.dll  - Undefined Reference
    __aeabi_unwind_cpp_pr1                    - Undefined Reference
    __aeabi_unwind_cpp_pr1@drtaeabi{000a0000}.dll  - Undefined Reference
    __cxa_begin_catch                         - Undefined Reference
    __cxa_begin_catch@drtaeabi{000a0000}.dll  - Undefined Reference
    __cxa_call_unexpected                     - Undefined Reference
    __cxa_call_unexpected@drtaeabi{000a0000}.dll  - Undefined Reference
    __cxa_end_catch                           - Undefined Reference
    __cxa_end_catch@drtaeabi{000a0000}.dll    - Undefined Reference
    __cxa_end_cleanup                         - Undefined Reference
    __cxa_end_cleanup@drtaeabi{000a0000}.dll  - Undefined Reference
    __cxa_pure_virtual                        - Undefined Reference
    __cxa_pure_virtual@drtaeabi{000a0000}.dll  - Undefined Reference
    _fp_init                                  - Undefined Weak Reference
    run_static_dtors                          - Undefined Weak Reference
    Image$$ER_RO$$Base                       0x00008000   Number         0  anon$$obj.o(linker$$defined$$symbols)
    _E32Dll                                  0x00008000   ARM Code      40  uc_dll_.o(.emb_text)
    Symbian$$CPP$$Exception$$Descriptor      0x00008014   Data           0  uc_dll_.o(.emb_text)
    __cpp_initialize__aeabi_                 0x00008028   ARM Code      72  ucppinit_aeabi.o(.emb_text)
    std::nothrow                             0x00008070   ARM Code       0  ucppinit_aeabi.o(.emb_text)
    __PLT                                    0x00008070   ARM Code       0  anon$$obj.o(.plt)
    RCommServ::RCommServ()                   0x000086e1   Thumb Code     6  CC_CLI.o(.text)
    RCommServ::RCommServ__sub_object()       0x000086e1   Thumb Code     0  CC_CLI.o(.text)
    RCommServ::Version() const               0x000086e7   Thumb Code    18  CC_CLI.o(.text)
    RCommServ::Connect()                     0x000086f9   Thumb Code    64  CC_CLI.o(.text)
    RCommServ::LoadCommModule(const TDesC16&) 0x00008739   Thumb Code    22  CC_CLI.o(.text)
    RCommServ::UnloadCommModule(const TDesC16&) 0x0000874f   Thumb Code    20  CC_CLI.o(.text)
    RCommServ::NumPorts(int&)                0x00008763   Thumb Code    38  CC_CLI.o(.text)
    RCommServ::GetPortInfo(const TDesC16&, TSerialInfo&) 0x00008789   Thumb Code    40  CC_CLI.o(.text)
    RCommServ::GetPortInfo(int, TDes16&, TSerialInfo&) 0x000087b1   Thumb Code    44  CC_CLI.o(.text)
    RCommServ::__DbgMarkHeap()               0x000087dd   Thumb Code     4  CC_CLI.o(.text)
    RCommServ::__DbgCheckHeap(int)           0x000087e1   Thumb Code     4  CC_CLI.o(.text)
    RCommServ::__DbgMarkEnd(int)             0x000087e5   Thumb Code     4  CC_CLI.o(.text)
    RCommServ::__DbgFailNext(int)            0x000087e9   Thumb Code     4  CC_CLI.o(.text)
    RCommServ::__DbgSetTraceMask(TC32Trace)  0x000087ed   Thumb Code     4  CC_CLI.o(.text)
    RCommServ::CreateThreadInCommProc(const TDesC16&, const TDesC16&, int(*)(void*), int, int, int) 0x000087f1   Thumb Code    50  CC_CLI.o(.text)
    RCommServ::IsServerThreadL()             0x00008823   Thumb Code   328  CC_CLI.o(.text)
    RComm::RComm()                           0x0000896b   Thumb Code    34  CC_CLI.o(.text)
    RComm::RComm__sub_object()               0x0000896b   Thumb Code     0  CC_CLI.o(.text)
    RComm::Open(RCommServ&, const TDesC16&, TCommAccess) 0x0000898d   Thumb Code    66  CC_CLI.o(.text)
    RComm::Open(RCommServ&, const TDesC16&, TCommAccess, TCommRole) 0x000089cf   Thumb Code    36  CC_CLI.o(.text)
    RComm::OpenWhenAvailable(TRequestStatus&, RCommServ&, const TDesC16&, TCommRole) 0x000089f3   Thumb Code    66  CC_CLI.o(.text)
    RComm::OpenWhenAvailable(TRequestStatus&, RCommServ&, const TDesC16&) 0x00008a35   Thumb Code    16  CC_CLI.o(.text)
    RComm::Close()                           0x00008a45   Thumb Code    10  CC_CLI.o(.text)
    RComm::OpenWhenAvailableCancel()         0x00008a4f   Thumb Code    24  CC_CLI.o(.text)
    RComm::Read(TRequestStatus&, TDes8&)     0x00008a67   Thumb Code    74  CC_CLI.o(.text)
    RComm::Read(TRequestStatus&, TDes8&, int) 0x00008ab1   Thumb Code    70  CC_CLI.o(.text)
    RComm::Read(TRequestStatus&, TTimeIntervalMicroSeconds32, TDes8&) 0x00008af7   Thumb Code    46  CC_CLI.o(.text)
    RComm::Read(TRequestStatus&, TTimeIntervalMicroSeconds32, TDes8&, int) 0x00008b25   Thumb Code    72  CC_CLI.o(.text)
    RComm::ReadOneOrMore(TRequestStatus&, TDes8&) 0x00008b6d   Thumb Code    36  CC_CLI.o(.text)
    RComm::ReadCancel()                      0x00008b91   Thumb Code    18  CC_CLI.o(.text)
    RComm::QueryReceiveBuffer() const        0x00008ba3   Thumb Code    44  CC_CLI.o(.text)
    RComm::ResetBuffers(unsigned)            0x00008bcf   Thumb Code    20  CC_CLI.o(.text)
    RComm::Write(TRequestStatus&, const TDesC8&) 0x00008be3   Thumb Code    38  CC_CLI.o(.text)
    RComm::Write(TRequestStatus&, const TDesC8&, int) 0x00008c09   Thumb Code    62  CC_CLI.o(.text)
    RComm::Write(TRequestStatus&, TTimeIntervalMicroSeconds32, const TDesC8&) 0x00008c47   Thumb Code    38  CC_CLI.o(.text)
    RComm::Write(TRequestStatus&, TTimeIntervalMicroSeconds32, const TDesC8&, int) 0x00008c6d   Thumb Code    62  CC_CLI.o(.text)
    RComm::WriteCancel()                     0x00008cab   Thumb Code    18  CC_CLI.o(.text)
    RComm::Break(TRequestStatus&, TTimeIntervalMicroSeconds32) 0x00008cbd   Thumb Code    22  CC_CLI.o(.text)
    RComm::BreakCancel()                     0x00008cd3   Thumb Code    18  CC_CLI.o(.text)
    RComm::Cancel()                          0x00008ce5   Thumb Code    18  CC_CLI.o(.text)
    RComm::Config(TDes8&) const              0x00008cf7   Thumb Code    20  CC_CLI.o(.text)
    RComm::SetConfig(const TDesC8&)          0x00008d0b   Thumb Code    20  CC_CLI.o(.text)
    RComm::Caps(TDes8&) const                0x00008d1f   Thumb Code    20  CC_CLI.o(.text)
    RComm::SetMode(const TPckgBuf<TCommServerConfigV01>&) 0x00008d33   Thumb Code    20  CC_CLI.o(.text)
    RComm::Mode(TPckgBuf<TCommServerConfigV01>&) const 0x00008d47   Thumb Code    20  CC_CLI.o(.text)
    RComm::Signals(unsigned) const           0x00008d5b   Thumb Code    42  CC_CLI.o(.text)
    RComm::SetSignalsToMark(unsigned)        0x00008d85   Thumb Code    20  CC_CLI.o(.text)
    RComm::SetSignalsToSpace(unsigned)       0x00008d99   Thumb Code    20  CC_CLI.o(.text)
    RComm::ReceiveBufferLength() const       0x00008dad   Thumb Code    42  CC_CLI.o(.text)
    RComm::SetReceiveBufferLength(int)       0x00008dd7   Thumb Code    20  CC_CLI.o(.text)
    RComm::NotifySignalChange(TRequestStatus&, unsigned&, unsigned) 0x00008deb   Thumb Code    48  CC_CLI.o(.text)
    RComm::NotifySignalChangeCancel() const  0x00008e1b   Thumb Code    18  CC_CLI.o(.text)
    RComm::NotifyConfigChange(TRequestStatus&, TDes8&) const 0x00008e2d   Thumb Code    22  CC_CLI.o(.text)
    RComm::NotifyConfigChangeCancel() const  0x00008e43   Thumb Code    18  CC_CLI.o(.text)
    RComm::NotifyFlowControlChange(TRequestStatus&, TFlowControl&) 0x00008e55   Thumb Code    44  CC_CLI.o(.text)
    RComm::NotifyFlowControlChangeCancel() const 0x00008e81   Thumb Code    18  CC_CLI.o(.text)
    RComm::NotifyBreak(TRequestStatus&) const 0x00008e93   Thumb Code    20  CC_CLI.o(.text)
    RComm::NotifyBreakCancel() const         0x00008ea7   Thumb Code    18  CC_CLI.o(.text)
    RComm::NotifyDataAvailable(TRequestStatus&) const 0x00008eb9   Thumb Code    20  CC_CLI.o(.text)
    RComm::NotifyDataAvailableCancel() const 0x00008ecd   Thumb Code    18  CC_CLI.o(.text)
    RComm::NotifyOutputEmpty(TRequestStatus&) const 0x00008edf   Thumb Code    20  CC_CLI.o(.text)
    RComm::NotifyOutputEmptyCancel() const   0x00008ef3   Thumb Code    18  CC_CLI.o(.text)
    RComm::GetFlowControlStatus(TFlowControl&) const 0x00008f05   Thumb Code    36  CC_CLI.o(.text)
    RComm::GetRole(TCommRole&) const         0x00008f29   Thumb Code    36  CC_CLI.o(.text)
    RComm::SetAccessMode(TCommAccess)        0x00008f4d   Thumb Code    20  CC_CLI.o(.text)
    RComm::DebugState(TCommDebugInfo&)       0x00008f61   Thumb Code     4  CC_CLI.o(.text)
    KCommServerName()                        0x00008f65   Thumb Code     4  CC_UTL.o(.text)
    StartC32()                               0x00008f69   Thumb Code    60  CC_UTL.o(.text)
    CPortManager::ConstructL()               0x00008fb7   Thumb Code    26  CS_MAN.o(.text)
    CPortManager::NewL()                     0x00008fd1   Thumb Code    44  CS_MAN.o(.text)
    CPortManager::LoadCommModuleL(const TDesC16&) 0x00008ffd   Thumb Code   258  CS_MAN.o(.text)
    CPortManager::GetSerialL(const TDesC16&) 0x000090ff   Thumb Code    48  CS_MAN.o(.text)
    CPortManager::GetPortL(const TDesC16&, unsigned, CSerial*, unsigned, unsigned, CCommSession*) 0x0000912f   Thumb Code   192  CS_MAN.o(.text)
    CPortManager::PortInfo(const TBuf<(int)16>&, TSerialInfo&) 0x000091ef   Thumb Code   140  CS_MAN.o(.text)
    CPortManager::~CPortManager()            0x0000927b   Thumb Code    44  CS_MAN.o(.text)
    CPortManager::~CPortManager__sub_object() 0x0000927b   Thumb Code     0  CS_MAN.o(.text)
    CPortManager::~CPortManager__deallocating() 0x000092a7   Thumb Code    16  CS_MAN.o(.text)
    CPort::ReadCompleted(int)                0x000092d1   Thumb Code    46  CS_PORT.o(.text)
    CPort::ReadTimerExpiredHandler(void*)    0x000092ff   Thumb Code    30  CS_PORT.o(.text)
    CPort::TakeOwnershipForReading(const RMessage2&, CCommSession*) 0x0000931d   Thumb Code    32  CS_PORT.o(.text)
    CPort::CommRead(const RMessage2&, CCommSession*) 0x0000933d   Thumb Code    80  CS_PORT.o(.text)
    CPort::CommReadCancel(int, CCommSession*) 0x0000938d   Thumb Code    40  CS_PORT.o(.text)
    CPort::WriteCompleted(int)               0x000093b5   Thumb Code    46  CS_PORT.o(.text)
    CPort::WriteTimerExpiredHandler(void*)   0x000093e3   Thumb Code    30  CS_PORT.o(.text)
    CPort::TakeOwnershipForWriting(const RMessage2&, CCommSession*) 0x00009401   Thumb Code    32  CS_PORT.o(.text)
    CPort::CommWrite(const RMessage2&, CCommSession*) 0x00009421   Thumb Code   102  CS_PORT.o(.text)
    CPort::CommWriteCancel(int, CCommSession*) 0x00009487   Thumb Code    40  CS_PORT.o(.text)
    CPort::TakeOwnershipForBreaking(const RMessage2&, CCommSession*) 0x000094af   Thumb Code    34  CS_PORT.o(.text)
    CPort::CommBreak(const RMessage2&, CCommSession*) 0x000094d1   Thumb Code    54  CS_PORT.o(.text)
    CPort::BreakCompleted(int)               0x00009507   Thumb Code    34  CS_PORT.o(.text)
    CPort::CommBreakCancel(int, CCommSession*) 0x00009529   Thumb Code    42  CS_PORT.o(.text)
    CPort::CommSetAccessCancel(int, CCommSession*) 0x00009553   Thumb Code    22  CS_PORT.o(.text)
    CPort::CommCancel(int, CCommSession*)    0x00009569   Thumb Code   104  CS_PORT.o(.text)
    CPort::CommConfig(const RMessage2&, CCommSession&) const 0x000095d1   Thumb Code   110  CS_PORT.o(.text)
    CPort::AreAnyPending()                   0x0000963f   Thumb Code    28  CS_PORT.o(.text)
    CPort::CommSetConfig(const RMessage2&, CCommSession&) 0x0000965b   Thumb Code   124  CS_PORT.o(.text)
    CPort::CommSetServerConfig(const RMessage2&, CCommSession&) 0x000096d7   Thumb Code   118  CS_PORT.o(.text)
    CPort::CommGetServerConfig(const RMessage2&, CCommSession&) 0x0000974d   Thumb Code   108  CS_PORT.o(.text)
    CPort::CommCaps(const RMessage2&, CCommSession&) 0x000097b9   Thumb Code   108  CS_PORT.o(.text)
    CPort::CommSignals(const RMessage2&, CCommSession&) 0x00009825   Thumb Code    66  CS_PORT.o(.text)
    CPort::CommSetSignalsToMark(const RMessage2&, CCommSession&) 0x00009867   Thumb Code    22  CS_PORT.o(.text)
    CPort::CommSetSignalsToSpace(const RMessage2&, CCommSession&) 0x0000987d   Thumb Code    22  CS_PORT.o(.text)
    CPort::CommReceiveBufferLength(const RMessage2&, CCommSession&) const 0x00009893   Thumb Code    62  CS_PORT.o(.text)
    CPort::CommSetReceiveBufferLength(const RMessage2&, CCommSession&) 0x000098d1   Thumb Code    54  CS_PORT.o(.text)
    CPort::CommQueryReceiveBuffer(const RMessage2&, CCommSession&) const 0x00009907   Thumb Code    62  CS_PORT.o(.text)
    CPort::CommResetBuffers(const RMessage2&, CCommSession&) 0x00009945   Thumb Code    44  CS_PORT.o(.text)
    CPort::CommSetAccess(const RMessage2&, CCommSession&) 0x00009971   Thumb Code   108  CS_PORT.o(.text)
    CPort::IsBlockedSetAccessWaiting(CCommSession&) 0x000099dd   Thumb Code    30  CS_PORT.o(.text)
    CPort::SessionHasBeenPreempted(CCommSession*) 0x000099fb   Thumb Code    16  CS_PORT.o(.text)
    CPort::SessionIsAwaitingOpen(CCommSession*) 0x00009a0b   Thumb Code    16  CS_PORT.o(.text)
    CPort::FreeSession(CCommSession*)        0x00009a1b   Thumb Code    46  CS_PORT.o(.text)
    CPort::IPCRead(const void*, TDes8&, int) const 0x00009a49   Thumb Code    42  CS_PORT.o(.text)
    CPort::IPCWrite(const void*, const TDesC8&, int) const 0x00009a73   Thumb Code    42  CS_PORT.o(.text)
    CPort::CPort__sub_object()               0x00009a9d   Thumb Code    76  CS_PORT.o(.text)
    CPort::~CPort()                          0x00009ae9   Thumb Code     0  CS_PORT.o(.text)
    CPort::~CPort__sub_object()              0x00009ae9   Thumb Code    68  CS_PORT.o(.text)
    CPort::~CPort__deallocating()            0x00009b2d   Thumb Code    16  CS_PORT.o(.text)
    CPort::Close()                           0x00009b3d   Thumb Code    92  CS_PORT.o(.text)
    CPort::FreeMemory()                      0x00009b99   Thumb Code     2  CS_PORT.o(.text)
    CPort::DoPreemption()                    0x00009b9b   Thumb Code   150  CS_PORT.o(.text)
    CPort::DoOpenL(CCommSession*, TInternalCommAccess, TCommRole, int) 0x00009c31   Thumb Code   230  CS_PORT.o(.text)
    CPort::CPort_Reserved1()                 0x00009d17   Thumb Code     2  CS_PORT.o(.text)
    CSerial::CSerial__sub_object()           0x00009d19   Thumb Code    24  CS_PORT.o(.text)
    CSerial::~CSerial()                      0x00009d31   Thumb Code     0  CS_PORT.o(.text)
    CSerial::~CSerial__sub_object()          0x00009d31   Thumb Code    28  CS_PORT.o(.text)
    CSerial::~CSerial__deallocating()        0x00009d4d   Thumb Code    16  CS_PORT.o(.text)
    CSerial::QueryVersionSupported(const TVersion&) const 0x00009d5d   Thumb Code    10  CS_PORT.o(.text)
    CLibUnloader::CLibUnloader()             0x00009d67   Thumb Code    18  CS_PORT.o(.text)
    CLibUnloader::CLibUnloader__sub_object() 0x00009d67   Thumb Code     0  CS_PORT.o(.text)
    CLibUnloader::NewL(RLibrary&)            0x00009d79   Thumb Code    24  CS_PORT.o(.text)
    CSerial::ConstructL(RLibrary&)           0x00009d91   Thumb Code    14  CS_PORT.o(.text)
    CSerial::ModuleName(TDes16&)             0x00009d9f   Thumb Code    48  CS_PORT.o(.text)
    CSerial::PortPlatSecCapability(unsigned) const 0x00009dcf   Thumb Code    20  CS_PORT.o(.text)
    CSerial::CSerial_Reserved1()             0x00009de3   Thumb Code     2  CS_PORT.o(.text)
    CLibUnloader::RunL()                     0x00009de5   Thumb Code    24  CS_PORT.o(.text)
    PanicClient(int, const RMessagePtr2&)    0x00009e0d   Thumb Code    28  CS_SES.o(.text)
    SafeComplete(const RMessagePtr2&, int)   0x00009e29   Thumb Code    14  CS_SES.o(.text)
    AddCSYExtension(TBuf<(int)256>&, const RMessage2&) 0x00009e37   Thumb Code    52  CS_SES.o(.text)
    CCommSubSession::CCommSubSession(CCommSession*, CPort*, CC32Player*) 0x00009e6b   Thumb Code    18  CS_SES.o(.text)
    CCommSubSession::CCommSubSession__sub_object(CCommSession*, CPort*, CC32Player*) 0x00009e6b   Thumb Code     0  CS_SES.o(.text)
    CCommSubSession::NewL(CCommSession*, CPort*, CC32Player*) 0x00009e7d   Thumb Code    26  CS_SES.o(.text)
    CCommSubSession::RemoveAndDestroy()      0x00009e97   Thumb Code    72  CS_SES.o(.text)
    CCommSession::CC32SessionCloseTimer::CC32SessionCloseTimer(CCommSession*) 0x00009edf   Thumb Code    20  CS_SES.o(.text)
    CCommSession::CC32SessionCloseTimer::CC32SessionCloseTimer__sub_object(CCommSession*) 0x00009edf   Thumb Code     0  CS_SES.o(.text)
    CCommSession::CC32SessionCloseTimer::NewL(CCommSession*) 0x00009ef3   Thumb Code    36  CS_SES.o(.text)
    CCommSession::ConstructL()               0x00009f17   Thumb Code    20  CS_SES.o(.text)
    CCommSession::CCommSession(CC32ThreadManager*) 0x00009f2b   Thumb Code    48  CS_SES.o(.text)
    CCommSession::CCommSession__sub_object(CC32ThreadManager*) 0x00009f2b   Thumb Code     0  CS_SES.o(.text)
    CCommSession::NewL(CC32ThreadManager*)   0x00009f5b   Thumb Code    36  CS_SES.o(.text)
    CCommSession::SafeComplete(const RMessagePtr2&, int) 0x00009f7f   Thumb Code    16  CS_SES.o(.text)
    CCommSession::DontCompleteCurrentRequest() 0x00009f8f   Thumb Code     6  CS_SES.o(.text)
    CCommSession::AddPlayerToDisconnectList(int) 0x00009f95   Thumb Code    14  CS_SES.o(.text)
    CCommSession::C32WorkerThread() const    0x00009fa3   Thumb Code     6  CS_SES.o(.text)
    CCommSession::ForwardMessageL(const RMessage2&, CCommSubSession*, int) 0x00009fa9   Thumb Code   100  CS_SES.o(.text)
    CCommSession::ForwardMessageL(const RMessage2&, CCommSubSession&) 0x0000a00d   Thumb Code     8  CS_SES.o(.text)
    CCommSession::CloseSubSessionL(const RMessage2&, CCommSubSession::TSubSessionType) 0x0000a015   Thumb Code    50  CS_SES.o(.text)
    CCommSession::SubSessionFromHandle(unsigned, CCommSubSession::TSubSessionType) const 0x0000a047   Thumb Code    42  CS_SES.o(.text)
    CCommSession::Write(int, const RMessagePtr2&, const TDesC8&, int) 0x0000a071   Thumb Code    30  CS_SES.o(.text)
    CCommSession::NumPorts(const RMessage2&) 0x0000a08f   Thumb Code   100  CS_SES.o(.text)
    CCommSession::PortInfo(const RMessage2&, int) 0x0000a0f3   Thumb Code   154  CS_SES.o(.text)
    CCommSession::PortInfoL(const RMessage2&, const TBuf<(int)16>&) 0x0000a18d   Thumb Code    48  CS_SES.o(.text)
    CCommSession::Read(int, const RMessagePtr2&, TDes16&, int) 0x0000a1bd   Thumb Code    30  CS_SES.o(.text)
    CCommSession::RemoveCSYFromSession(const TDesC16&, int&) 0x0000a1db   Thumb Code   110  CS_SES.o(.text)
    CCommSession::CloseCommModuleL(const RMessage2&) 0x0000a249   Thumb Code   166  CS_SES.o(.text)
    CCommSession::AddCSYToSessionL(const TDesC16&, int&) 0x0000a2ef   Thumb Code    74  CS_SES.o(.text)
    CCommSession::LoadCommModuleL(const RMessage2&, int, int, const TDesC16&) 0x0000a339   Thumb Code   354  CS_SES.o(.text)
    CCommSession::ExtractPortNameAndNumber(const RMessagePtr2&, TDes16&, unsigned&, int&) 0x0000a49b   Thumb Code   106  CS_SES.o(.text)
    CCommSession::NewPortL(const RMessage2&) 0x0000a505   Thumb Code   106  CS_SES.o(.text)
    CCommSession::ServiceL(const RMessage2&) 0x0000a56f   Thumb Code   452  CS_SES.o(.text)
    CCommSession::ServiceError(const RMessage2&, int) 0x0000a733   Thumb Code    22  CS_SES.o(.text)
    CCommSession::~CCommSession()            0x0000a749   Thumb Code    88  CS_SES.o(.text)
    CCommSession::~CCommSession__sub_object() 0x0000a749   Thumb Code     0  CS_SES.o(.text)
    CCommSession::~CCommSession__deallocating() 0x0000a7a1   Thumb Code    16  CS_SES.o(.text)
    CCommSession::Read(int, const RMessagePtr2&, TDes8&, int) 0x0000a7b1   Thumb Code    30  CS_SES.o(.text)
    CCommSession::Write(int, const RMessagePtr2&, const TDesC16&, int) 0x0000a7cf   Thumb Code    30  CS_SES.o(.text)
    CCommSession::WorkerId() const           0x0000a7ed   Thumb Code     8  CS_SES.o(.text)
    CCommSession::ProcessSubSessions(int, void(*)(CCommSession*, CCommSubSession*, int, void*), void*) 0x0000a7f5   Thumb Code    78  CS_SES.o(.text)
    CCommSession::ForgetSubSession(CCommSession*, CCommSubSession*, int, void*) 0x0000a843   Thumb Code    12  CS_SES.o(.text)
    CCommSession::CountSubSessions(CCommSession*, CCommSubSession*, int, void*) 0x0000a84f   Thumb Code     8  CS_SES.o(.text)
    CCommSession::IsDisconnectListEmpty() const 0x0000a857   Thumb Code    14  CS_SES.o(.text)
    CCommSession::RemovePlayerFromDisconnectList(int) 0x0000a865   Thumb Code    12  CS_SES.o(.text)
    CCommSession::SessionCloseResp(int)      0x0000a871   Thumb Code    32  CS_SES.o(.text)
    CCommSession::IsPlayerInDisconnectList(int) const 0x0000a891   Thumb Code    10  CS_SES.o(.text)
    CCommSession::DisconnectPlayers()        0x0000a89b   Thumb Code     4  CS_SES.o(.text)
    CCommSession::CC32SessionCloseTimer::Start() 0x0000a89f   Thumb Code    20  CS_SES.o(.text)
    CCommSession::Disconnect()               0x0000a8b3   Thumb Code   300  CS_SES.o(.text)
    CCommSession::Disconnect(const RMessage2&) 0x0000a9df   Thumb Code    40  CS_SES.o(.text)
    CCommSession::CC32SessionCloseTimer::RunL() 0x0000aa07   Thumb Code    24  CS_SES.o(.text)
    CC32Server::NewSessionL(const TVersion&, const RMessage2&) const 0x0000aa31   Thumb Code    44  CS_SVR.o(.text)
    CC32Server::~CC32Server()                0x0000aa5d   Thumb Code     8  CS_SVR.o(.text)
    CC32Server::~CC32Server__sub_object()    0x0000aa5d   Thumb Code     0  CS_SVR.o(.text)
    CC32Server::~CC32Server__deallocating()  0x0000aa65   Thumb Code    16  CS_SVR.o(.text)
    CC32Server::CustomSecurityCheckL(const RMessage2&, int&, TSecurityInfo&) 0x0000aa75   Thumb Code   170  CS_SVR.o(.text)
    CC32Server::CC32Server(CC32WorkerThread*, int) 0x0000ab1f   Thumb Code    22  CS_SVR.o(.text)
    CC32Server::CC32Server__sub_object(CC32WorkerThread*, int) 0x0000ab1f   Thumb Code     0  CS_SVR.o(.text)
    CC32Server::ConstructL(CC32ThreadManager*) 0x0000ab35   Thumb Code    20  CS_SVR.o(.text)
    CCommScheduler::New()                    0x0000ab49   Thumb Code    52  CS_SVR.o(.text)
    CCommScheduler::Error(int) const         0x0000ab7d   Thumb Code    14  CS_SVR.o(.text)
    CommTimer::GetTimer()                    0x0000abc9   Thumb Code   160  CS_TIME.o(.text)
    CommTimer::Queue(TTimeIntervalMicroSeconds32, TDeltaTimerEntry&) 0x0000ac69   Thumb Code    38  CS_TIME.o(.text)
    CommTimer::Remove(TDeltaTimerEntry&)     0x0000ac8f   Thumb Code    22  CS_TIME.o(.text)
    Fault(TECommFault, TRefByValue<const TDesC8>, ...) 0x0000acb5   Thumb Code    12  CS_UTL.o(.text)
    Fault(TECommFault, TRefByValue<const TDesC16>, ...) 0x0000acc1   Thumb Code    12  CS_UTL.o(.text)
    CPort::CommGetRole(const RMessage2&, CCommSession*) 0x0000acd1   Thumb Code    66  CS_V02.o(.text)
    CPort::CommGetFlowControlStatus(const RMessage2&, CCommSession*) 0x0000ad13   Thumb Code    64  CS_V02.o(.text)
    CPort::TakeOwnershipForSignals(const RMessage2&, CCommSession*) 0x0000ad53   Thumb Code    32  CS_V02.o(.text)
    CPort::CommNotifySignalChange(const RMessage2&, CCommSession*) 0x0000ad73   Thumb Code    62  CS_V02.o(.text)
    CPort::TakeOwnershipForFlowControl(const RMessage2&, CCommSession*) 0x0000adb1   Thumb Code    32  CS_V02.o(.text)
    CPort::CommNotifyFlowControlChange(const RMessage2&, CCommSession*) 0x0000add1   Thumb Code    50  CS_V02.o(.text)
    CPort::TakeOwnershipForConfig(const RMessage2&, CCommSession*) 0x0000ae03   Thumb Code    32  CS_V02.o(.text)
    CPort::CommNotifyConfigChange(const RMessage2&, CCommSession*) 0x0000ae23   Thumb Code    50  CS_V02.o(.text)
    CPort::TakeOwnershipForBreak(const RMessage2&, CCommSession*) 0x0000ae55   Thumb Code    34  CS_V02.o(.text)
    CPort::CommNotifyBreak(const RMessage2&, CCommSession*) 0x0000ae77   Thumb Code    56  CS_V02.o(.text)
    CPort::TakeOwnershipForNotifyDataAvailable(const RMessage2&, CCommSession*) 0x0000aeaf   Thumb Code    34  CS_V02.o(.text)
    CPort::CommNotifyDataAvailable(const RMessage2&, CCommSession*) 0x0000aed1   Thumb Code    56  CS_V02.o(.text)
    CPort::TakeOwnershipForNotifyOutputEmpty(const RMessage2&, CCommSession*) 0x0000af09   Thumb Code    34  CS_V02.o(.text)
    CPort::CommNotifyOutputEmpty(const RMessage2&, CCommSession*) 0x0000af2b   Thumb Code    56  CS_V02.o(.text)
    CPort::SignalChangeCompleted(const unsigned&, int) 0x0000af63   Thumb Code    66  CS_V02.o(.text)
    CPort::CommNotifySignalChangeCancel(int, CCommSession*) 0x0000afa5   Thumb Code    44  CS_V02.o(.text)
    CPort::ConfigChangeCompleted(const TDesC8&, int) 0x0000afd1   Thumb Code    54  CS_V02.o(.text)
    CPort::CommNotifyConfigChangeCancel(int, CCommSession*) 0x0000b007   Thumb Code    54  CS_V02.o(.text)
    CPort::FlowControlChangeCompleted(const TFlowControl&, int) 0x0000b03d   Thumb Code    62  CS_V02.o(.text)
    CPort::CommNotifyFlowControlChangeCancel(int, CCommSession*) 0x0000b07b   Thumb Code    46  CS_V02.o(.text)
    CPort::BreakNotifyCompleted(int)         0x0000b0a9   Thumb Code    26  CS_V02.o(.text)
    CPort::CommNotifyBreakCancel(int, CCommSession*) 0x0000b0c3   Thumb Code    44  CS_V02.o(.text)
    CPort::NotifyDataAvailableCompleted(int) 0x0000b0ef   Thumb Code    26  CS_V02.o(.text)
    CPort::CommNotifyDataAvailableCancel(int, CCommSession*) 0x0000b109   Thumb Code    44  CS_V02.o(.text)
    CPort::NotifyOutputEmptyCompleted(int)   0x0000b135   Thumb Code    26  CS_V02.o(.text)
    CPort::CommNotifyOutputEmptyCancel(int, CCommSession*) 0x0000b14f   Thumb Code    44  CS_V02.o(.text)
    TC32WorkerThreadRegister::TC32WorkerThreadRegister() 0x0000b17d   Thumb Code     6  cs_roles.o(.text)
    TC32WorkerThreadRegister::TC32WorkerThreadRegister__sub_object() 0x0000b17d   Thumb Code     0  cs_roles.o(.text)
    TC32WorkerThreadRegister::Clear()        0x0000b183   Thumb Code    16  cs_roles.o(.text)
    CC32SubSessionIx::~CC32SubSessionIx()    0x0000b193   Thumb Code    22  cs_roles.o(.text)
    CC32SubSessionIx::~CC32SubSessionIx__sub_object() 0x0000b193   Thumb Code     0  cs_roles.o(.text)
    CC32SubSessionIx::~CC32SubSessionIx__deallocating() 0x0000b1a9   Thumb Code    16  cs_roles.o(.text)
    CC32SubSessionIx::InitialiseL()          0x0000b1b9   Thumb Code    16  cs_roles.o(.text)
    CC32SubSessionIx::At(int) const          0x0000b1c9   Thumb Code    40  cs_roles.o(.text)
    CC32SubSessionIx::At(int, CCommSubSession::TSubSessionType) const 0x0000b1f1   Thumb Code    30  cs_roles.o(.text)
    CC32SubSessionIx::Find(CCommSubSession*, int&) const 0x0000b20f   Thumb Code    56  cs_roles.o(.text)
    CC32SubSessionIx::ExpandArray()          0x0000b247   Thumb Code    66  cs_roles.o(.text)
    CC32SubSessionIx::Add(CCommSubSession*, int&) 0x0000b289   Thumb Code    74  cs_roles.o(.text)
    CC32SubSessionIx::Remove(int)            0x0000b2d3   Thumb Code    36  cs_roles.o(.text)
    CC32SubSessionIx::TIter::SetToFirst()    0x0000b2f7   Thumb Code     6  cs_roles.o(.text)
    CC32SubSessionIx::TIter::TIter(CC32SubSessionIx&) 0x0000b2fd   Thumb Code     8  cs_roles.o(.text)
    CC32SubSessionIx::TIter::TIter__sub_object(CC32SubSessionIx&) 0x0000b2fd   Thumb Code     0  cs_roles.o(.text)
    CC32SubSessionIx::TIter::Next(int&)      0x0000b305   Thumb Code    56  cs_roles.o(.text)
    CC32SubSessionIx::TIter::operator ++(int) 0x0000b33d   Thumb Code    10  cs_roles.o(.text)
    CC32WorkerDataGlobals::NewL()            0x0000b347   Thumb Code    86  cs_roles.o(.text)
    CCSYInfo::ConstructL(const TDesC8&)      0x0000b39d   Thumb Code    14  cs_roles.o(.text)
    CCSYInfo::CCSYInfo(int)                  0x0000b3ab   Thumb Code    32  cs_roles.o(.text)
    CCSYInfo::CCSYInfo__sub_object(int)      0x0000b3ab   Thumb Code     0  cs_roles.o(.text)
    CCSYInfo::NewL(const TDesC8&, int)       0x0000b3cb   Thumb Code    40  cs_roles.o(.text)
    CCSYInfo::CompareCSYInfo(const CCSYInfo&, const CCSYInfo&) 0x0000b3f3   Thumb Code    12  cs_roles.o(.text)
    CCSYInfo::~CCSYInfo()                    0x0000b3ff   Thumb Code    30  cs_roles.o(.text)
    CCSYInfo::~CCSYInfo__sub_object()        0x0000b3ff   Thumb Code     0  cs_roles.o(.text)
    CCSYInfo::~CCSYInfo__deallocating()      0x0000b41d   Thumb Code    16  cs_roles.o(.text)
    CCSYInfo::SetCSYHandle(CSerial*)         0x0000b42d   Thumb Code     4  cs_roles.o(.text)
    CCSYInfo::SetPortName(const TDesC16&)    0x0000b431   Thumb Code    28  cs_roles.o(.text)
    CCSYInfo::SetPortNameSizeToMaximum()     0x0000b44d   Thumb Code    14  cs_roles.o(.text)
    CC32ThreadManager::~CC32ThreadManager()  0x0000b45b   Thumb Code    54  cs_roles.o(.text)
    CC32ThreadManager::~CC32ThreadManager__sub_object() 0x0000b45b   Thumb Code     0  cs_roles.o(.text)
    CC32ThreadManager::~CC32ThreadManager__deallocating() 0x0000b491   Thumb Code    16  cs_roles.o(.text)
    CC32ThreadManager::CC32ThreadManager(CC32Dealer*) 0x0000b4a1   Thumb Code    32  cs_roles.o(.text)
    CC32ThreadManager::CC32ThreadManager__sub_object(CC32Dealer*) 0x0000b4a1   Thumb Code     0  cs_roles.o(.text)
    CC32ThreadManager::NewL(CC32Dealer*)     0x0000b4c1   Thumb Code    18  cs_roles.o(.text)
    CC32ThreadManager::CC32ThreadInfo::ConstructL(const TDesC8&) 0x0000b4d3   Thumb Code    14  cs_roles.o(.text)
    CC32ThreadManager::CC32ThreadInfo::CC32ThreadInfo() 0x0000b4e1   Thumb Code     6  cs_roles.o(.text)
    CC32ThreadManager::CC32ThreadInfo::CC32ThreadInfo__sub_object() 0x0000b4e1   Thumb Code     0  cs_roles.o(.text)
    CC32ThreadManager::CC32ThreadInfo::NewL(const TDesC8&) 0x0000b4e7   Thumb Code    36  cs_roles.o(.text)
    CC32ThreadManager::CC32ThreadInfo::CompareThreadInfo(const CC32ThreadManager::CC32ThreadInfo&, const CC32ThreadManager::CC32ThreadInfo&) 0x0000b50b   Thumb Code    42  cs_roles.o(.text)
    CC32ThreadManager::CC32ParsedIniData::ConstructL(const TDesC8&, int) 0x0000b535   Thumb Code   412  cs_roles.o(.text)
    CC32ThreadManager::CC32ParsedIniData::CC32ParsedIniData() 0x0000b6d1   Thumb Code    22  cs_roles.o(.text)
    CC32ThreadManager::CC32ParsedIniData::CC32ParsedIniData__sub_object() 0x0000b6d1   Thumb Code     0  cs_roles.o(.text)
    CC32ThreadManager::CC32ParsedIniData::NewL(const TDesC8&, int) 0x0000b6e7   Thumb Code    40  cs_roles.o(.text)
    CC32ThreadManager::LoadCMIDataL(const TDesC8&) 0x0000b70f   Thumb Code  1132  cs_roles.o(.text)
    CC32ThreadManager::SetDefaults()         0x0000bb7b   Thumb Code    24  cs_roles.o(.text)
    CC32ThreadManager::FindThreadByPortPrefix(const TDesC16&, int&) const 0x0000bb93   Thumb Code    88  cs_roles.o(.text)
    CC32ThreadManager::MapPortprefixToCSYFileName(const TDesC16&, TDes16&) 0x0000bbeb   Thumb Code    94  cs_roles.o(.text)
    CC32ThreadManager::FindThreadByFileName(const TDesC8&, int&) const 0x0000bc49   Thumb Code    68  cs_roles.o(.text)
    CC32ThreadManager::FindThreadOfActiveCSYByName(const TDesC16&, int&) const 0x0000bc8d   Thumb Code   184  cs_roles.o(.text)
    CC32ThreadManager::FindThreadByGlobalIndex(int) const 0x0000bd45   Thumb Code    74  cs_roles.o(.text)
    CC32ThreadManager::FindSerialObjectByGlobalIndex(int) const 0x0000bd8f   Thumb Code    80  cs_roles.o(.text)
    CC32ThreadManager::GetModuleName(int)    0x0000bddf   Thumb Code    14  cs_roles.o(.text)
    CC32ThreadManager::GetSerialObjectFromCSYFileName(const TDesC16&) 0x0000bded   Thumb Code    80  cs_roles.o(.text)
    CC32ThreadManager::GetIndexFromPortPrefix(const TDesC16&, int&) 0x0000be3d   Thumb Code    62  cs_roles.o(.text)
    CC32ThreadManager::GetSerialObjectByIndex(int) 0x0000be7b   Thumb Code    14  cs_roles.o(.text)
    CC32ThreadManager::GetSerialL(const TDesC16&) 0x0000be89   Thumb Code    24  cs_roles.o(.text)
    CC32ThreadManager::IncrementCountOnLoad(const TDesC16&) 0x0000bea1   Thumb Code    86  cs_roles.o(.text)
    CC32ThreadManager::UpdateThreadManagerOnCSYUnload(const TDesC8&) 0x0000bef7   Thumb Code   200  cs_roles.o(.text)
    CC32ThreadManager::DecrementCountOnCSYUnLoad(const TDesC16&) 0x0000bfbf   Thumb Code   110  cs_roles.o(.text)
    CC32ThreadManager::GrowCSYPortNameToMaximumIfNotLoaded(const TDesC16&) 0x0000c02d   Thumb Code   102  cs_roles.o(.text)
    CC32ThreadManager::DefaultThread()       0x0000c093   Thumb Code     4  cs_roles.o(.text)
    CC32ThreadManager::UpdateThreadManagerOnCSYLoad(const TDesC16&, const TDesC16&, CSerial*) 0x0000c097   Thumb Code   148  cs_roles.o(.text)
    CC32ThreadManager::UpdateThreadManagerOnCSYLoadFailure(const TDesC16&) 0x0000c12b   Thumb Code   138  cs_roles.o(.text)
    CC32ThreadManager::Dealer()              0x0000c1b5   Thumb Code     4  cs_roles.o(.text)
    CC32ThreadManager::CCPMLoader::RequestModuleLoad(CC32ThreadManager*, int, const TBuf8<(int)32>&) 0x0000c1b9   Thumb Code    68  cs_roles.o(.text)
    CC32ThreadManager::CCPMLoader::ConstructL() 0x0000c1fd   Thumb Code    18  cs_roles.o(.text)
    CC32ThreadManager::CCPMLoader::CCPMLoader() 0x0000c20f   Thumb Code    48  cs_roles.o(.text)
    CC32ThreadManager::CCPMLoader::CCPMLoader__sub_object() 0x0000c20f   Thumb Code     0  cs_roles.o(.text)
    CC32ThreadManager::CCPMLoader::NewL()    0x0000c23f   Thumb Code    32  cs_roles.o(.text)
    CC32ThreadManager::RequestLoadModule(int) 0x0000c25f   Thumb Code   130  cs_roles.o(.text)
    CC32Dealer::ProcessFailedPlayerLoad(int) 0x0000c2e1   Thumb Code   154  cs_roles.o(.text)
    CC32ThreadManager::ProcessModuleLoadFailed(int) 0x0000c37b   Thumb Code     4  cs_roles.o(.text)
    CC32ThreadManager::ProcessModuleLoadSuccess(int) 0x0000c37f   Thumb Code    24  cs_roles.o(.text)
    CC32ThreadManager::CC32ThreadInfo::SetModuleNameL(const TDesC8&) 0x0000c397   Thumb Code    26  cs_roles.o(.text)
    CC32ThreadManager::CC32ThreadInfo::~CC32ThreadInfo() 0x0000c3b1   Thumb Code    22  cs_roles.o(.text)
    CC32ThreadManager::CC32ThreadInfo::~CC32ThreadInfo__sub_object() 0x0000c3b1   Thumb Code     0  cs_roles.o(.text)
    CC32ThreadManager::CC32ThreadInfo::~CC32ThreadInfo__deallocating() 0x0000c3c7   Thumb Code    16  cs_roles.o(.text)
    CC32ThreadManager::CC32ParsedIniData::~CC32ParsedIniData() 0x0000c3d7   Thumb Code    24  cs_roles.o(.text)
    CC32ThreadManager::CC32ParsedIniData::~CC32ParsedIniData__sub_object() 0x0000c3d7   Thumb Code     0  cs_roles.o(.text)
    CC32ThreadManager::CC32ParsedIniData::~CC32ParsedIniData__deallocating() 0x0000c3ef   Thumb Code    16  cs_roles.o(.text)
    CC32ThreadManager::CCPMLoader::~CCPMLoader() 0x0000c3ff   Thumb Code    30  cs_roles.o(.text)
    CC32ThreadManager::CCPMLoader::~CCPMLoader__sub_object() 0x0000c3ff   Thumb Code     0  cs_roles.o(.text)
    CC32ThreadManager::CCPMLoader::~CCPMLoader__deallocating() 0x0000c41d   Thumb Code    16  cs_roles.o(.text)
    CC32ThreadManager::CCPMLoader::RunL()    0x0000c42d   Thumb Code    14  cs_roles.o(.text)
    CC32ThreadManager::CCPMLoader::DoCancel() 0x0000c43b   Thumb Code    14  cs_roles.o(.text)
    CC32Dealer::ConstructL(const TDesC8&)    0x0000c449   Thumb Code   176  cs_roles.o(.text)
    CC32Dealer::CC32Dealer(CC32WorkerThread*) 0x0000c4f9   Thumb Code    36  cs_roles.o(.text)
    CC32Dealer::CC32Dealer__sub_object(CC32WorkerThread*) 0x0000c4f9   Thumb Code     0  cs_roles.o(.text)
    CC32Dealer::NewL(CC32WorkerThread*, const TDesC8&) 0x0000c51d   Thumb Code    40  cs_roles.o(.text)
    CC32Dealer::FreeWorkerReferences(int)    0x0000c545   Thumb Code    20  cs_roles.o(.text)
    CC32Dealer::WorkerExists(int) const      0x0000c559   Thumb Code    24  cs_roles.o(.text)
    CC32Dealer::~CC32Dealer()                0x0000c571   Thumb Code   112  cs_roles.o(.text)
    CC32Dealer::~CC32Dealer__sub_object()    0x0000c571   Thumb Code     0  cs_roles.o(.text)
    CC32Dealer::~CC32Dealer__deallocating()  0x0000c5e1   Thumb Code    16  cs_roles.o(.text)
    CC32Dealer::CanShutdown()                0x0000c5f1   Thumb Code    20  cs_roles.o(.text)
    CC32Dealer::DeleteSession(CCommSession*) 0x0000c605   Thumb Code    64  cs_roles.o(.text)
    CC32Dealer::ProcessSubSessions(int, void(*)(CCommSession*, CCommSubSession*, int, void*), void*) 0x0000c645   Thumb Code    42  cs_roles.o(.text)
    CC32Dealer::SubsessionCountInPlayer(int) 0x0000c66f   Thumb Code    18  cs_roles.o(.text)
    CC32Dealer::Player(int) const            0x0000c681   Thumb Code    16  cs_roles.o(.text)
    CC32Dealer::CanUnbindFromWorker(int)     0x0000c691   Thumb Code    68  cs_roles.o(.text)
    CC32Dealer::ShutdownIfReady()            0x0000c6d5   Thumb Code    18  cs_roles.o(.text)
    CC32Dealer::SessionShutdownComplete()    0x0000c6e7   Thumb Code     8  cs_roles.o(.text)
    CC32Dealer::ProcessShutdownRequest(CommsFW::TCFShutdownType) 0x0000c6ef   Thumb Code    46  cs_roles.o(.text)
    CC32Dealer::Read(int, const RMessagePtr2&, TDes16&, int) 0x0000c71d   Thumb Code    30  cs_roles.o(.text)
    CC32Dealer::AddPendingIntroductionResponse() 0x0000c73b   Thumb Code    10  cs_roles.o(.text)
    CC32Dealer::SendMessage(int, const CommsFW::TCFMessage&) 0x0000c745   Thumb Code    12  cs_roles.o(.text)
    CC32Dealer::SendIntroductionToWorker(int) 0x0000c751   Thumb Code    30  cs_roles.o(.text)
    CC32Dealer::ProcessParkedRequest()       0x0000c76f   Thumb Code   154  cs_roles.o(.text)
    CC32Dealer::RemovePendingIntroductionResponse() 0x0000c809   Thumb Code    10  cs_roles.o(.text)
    CC32Dealer::ProcessWorkerIntroductionResponse(const TC32WorkerMainIntroductionRespMsg&) 0x0000c813   Thumb Code    52  cs_roles.o(.text)
    CC32Dealer::DeleteCPMLoader(int)         0x0000c847   Thumb Code    12  cs_roles.o(.text)
    CC32Dealer::ProcessLoadCommModuleSuccessResponse(const RMessage2&, CSerial*) 0x0000c853   Thumb Code    92  cs_roles.o(.text)
    CC32Dealer::ProcessLoadCommModuleFailureResponse(const RMessage2&, int) 0x0000c8af   Thumb Code    76  cs_roles.o(.text)
    CC32Dealer::Dealer(int) const            0x0000c8fb   Thumb Code    16  cs_roles.o(.text)
    CC32Dealer::MaybeSwitchHeap(int)         0x0000c90b   Thumb Code    36  cs_roles.o(.text)
    CC32Dealer::AddSubSession(CCommSubSession*, CCommSession*, int&) 0x0000c92f   Thumb Code    54  cs_roles.o(.text)
    CC32Dealer::RemoveSubSession(int, CCommSession*) 0x0000c965   Thumb Code    46  cs_roles.o(.text)
    CC32Dealer::FindSubSession(CCommSubSession*, CCommSession*, int&) 0x0000c993   Thumb Code    54  cs_roles.o(.text)
    CC32Dealer::LoadCPMOnLoadCommModule(int) 0x0000c9c9   Thumb Code    12  cs_roles.o(.text)
    CC32Dealer::RemoveParkedRequestsOnSessionClose(CCommSession*) 0x0000c9d5   Thumb Code    60  cs_roles.o(.text)
    CC32Dealer::ParkRequest(CCommSession*, const RMessage2&) 0x0000ca11   Thumb Code    64  cs_roles.o(.text)
    CC32Player::ConstructL()                 0x0000ca51   Thumb Code    12  cs_roles.o(.text)
    CC32Player::CC32Player(CC32WorkerThread*) 0x0000ca5d   Thumb Code    22  cs_roles.o(.text)
    CC32Player::CC32Player__sub_object(CC32WorkerThread*) 0x0000ca5d   Thumb Code     0  cs_roles.o(.text)
    CC32Player::NewL(CC32WorkerThread*)      0x0000ca73   Thumb Code    36  cs_roles.o(.text)
    CC32Player::CPortFromSubSession(CCommSubSession*) 0x0000ca97   Thumb Code     4  cs_roles.o(.text)
    CC32Player::~CC32Player()                0x0000ca9b   Thumb Code   136  cs_roles.o(.text)
    CC32Player::~CC32Player__sub_object()    0x0000ca9b   Thumb Code     0  cs_roles.o(.text)
    CC32Player::~CC32Player__deallocating()  0x0000cb23   Thumb Code    16  cs_roles.o(.text)
    CC32Player::SafeComplete(const RMessagePtr2&, int) 0x0000cb33   Thumb Code    20  cs_roles.o(.text)
    CC32Player::CloseSubSession(const RMessage2&, CCommSubSession*) 0x0000cb47   Thumb Code    96  cs_roles.o(.text)
    CC32Player::WriteSubSessionHandle(int)   0x0000cba7   Thumb Code    38  cs_roles.o(.text)
    CC32Player::Read(int, const RMessagePtr2&, TDes16&, int) 0x0000cbcd   Thumb Code    30  cs_roles.o(.text)
    CC32Player::ExtractPortNameAndNumber(const RMessagePtr2&, TDes16&, unsigned&, int&) 0x0000cbeb   Thumb Code    94  cs_roles.o(.text)
    CC32Player::NewPortL(const RMessage2&)   0x0000cc49   Thumb Code   562  cs_roles.o(.text)
    CC32Player::Write(int, const RMessagePtr2&, const TDesC8&, int) 0x0000ce7b   Thumb Code    30  cs_roles.o(.text)
    CC32Player::PortInfo(const RMessage2&, const TBuf<(int)16>&) 0x0000ce99   Thumb Code    70  cs_roles.o(.text)
    CC32Player::CloseCommModule(const RMessage2&) 0x0000cedf   Thumb Code   112  cs_roles.o(.text)
    CC32Player::DontCompleteCurrentRequest() 0x0000cf4f   Thumb Code     6  cs_roles.o(.text)
    CC32Player::LoadCommModule(const RMessage2&) 0x0000cf55   Thumb Code   240  cs_roles.o(.text)
    CC32Player::ProcessMessageL(const RMessage2&, CCommSubSession*) 0x0000d045   Thumb Code   744  cs_roles.o(.text)
    CC32Player::CanUnbindFromWorker(int)     0x0000d32d   Thumb Code    60  cs_roles.o(.text)
    CC32Player::MaybeSetPlayerShutdownComplete(int) 0x0000d369   Thumb Code    34  cs_roles.o(.text)
    CC32Player::ProcessShutdownRequest(CommsFW::TCFShutdownType) 0x0000d38b   Thumb Code    20  cs_roles.o(.text)
    CC32Player::CloseAllOwnedSubSessions(CCommSession*) 0x0000d39f   Thumb Code    88  cs_roles.o(.text)
    CC32Player::CloseSession(CCommSession*)  0x0000d3f7   Thumb Code     2  cs_roles.o(.text)
    CC32Player::ProcessUnLoadCommModuleMsg(CSerial*) 0x0000d3f9   Thumb Code    16  cs_roles.o(.text)
    CC32Player::Write(int, const RMessagePtr2&, const TDesC16&, int) 0x0000d409   Thumb Code    30  cs_roles.o(.text)
    CC32Player::PortInfo(const RMessage2&, CSerial*) 0x0000d427   Thumb Code   108  cs_roles.o(.text)
    CC32Player::Read(int, const RMessagePtr2&, TDes8&, int) 0x0000d493   Thumb Code    30  cs_roles.o(.text)
    CCommChannelHandler::CCommChannelHandler(CC32WorkerThread*) 0x0000d4b1   Thumb Code    18  cs_thread.o(.text)
    CCommChannelHandler::CCommChannelHandler__sub_object(CC32WorkerThread*) 0x0000d4b1   Thumb Code     0  cs_thread.o(.text)
    CCommChannelHandler::NewL(CommsFW::RCFChannelBase<CommsFW::TCFMessage, (int)1>::TMsgQueuesTAG, CommsFW::RCFChannelBase<CommsFW::TCFMessage, (int)1>::TMsgQueuesTAG, CC32WorkerThread*) 0x0000d4c3   Thumb Code    40  cs_thread.o(.text)
    CCommChannelHandler::Send(const CommsFW::TCFMessage&) 0x0000d4eb   Thumb Code     8  cs_thread.o(.text)
    CC32WorkerThread::MaybeCompleteUnbinding(int) 0x0000d4f3   Thumb Code   100  cs_thread.o(.text)
    CC32WorkerThread::MaybeCompleteUnbindings() 0x0000d557   Thumb Code    28  cs_thread.o(.text)
    CC32WorkerThread::SetPlayerShutdownComplete(int) 0x0000d573   Thumb Code    10  cs_thread.o(.text)
    CC32WorkerThread::SetDealerShutdownComplete(int) 0x0000d57d   Thumb Code    10  cs_thread.o(.text)
    CC32WorkerThread::DetermineRoleL(const TDesC8&, int&, int&) 0x0000d587   Thumb Code   202  cs_thread.o(.text)
    CC32WorkerThread::ConstructL(CommsFW::TCFModuleInfo*) 0x0000d651   Thumb Code   178  cs_thread.o(.text)
    CC32WorkerThread::CC32WorkerThread()     0x0000d703   Thumb Code    10  cs_thread.o(.text)
    CC32WorkerThread::CC32WorkerThread__sub_object() 0x0000d703   Thumb Code     0  cs_thread.o(.text)
    CC32WorkerThread::DeleteHBufC8(void*)    0x0000d70d   Thumb Code     8  cs_thread.o(.text)
    CC32WorkerThread::NewL(CommsFW::TCFModuleInfo*) 0x0000d715   Thumb Code    48  cs_thread.o(.text)
    CC32WorkerThread::~CC32WorkerThread()    0x0000d745   Thumb Code    90  cs_thread.o(.text)
    CC32WorkerThread::~CC32WorkerThread__sub_object() 0x0000d745   Thumb Code     0  cs_thread.o(.text)
    CC32WorkerThread::~CC32WorkerThread__deallocating() 0x0000d79f   Thumb Code    16  cs_thread.o(.text)
    CC32WorkerThread::RunC32Thread(CommsFW::TCFModuleInfo*) 0x0000d7af   Thumb Code   206  cs_thread.o(.text)
    CC32WorkerThread::ThreadEntryPoint(void*) 0x0000d87d   Thumb Code     2  cs_thread.o(.text)
    CC32WorkerThread::ShuttingDown() const   0x0000d87f   Thumb Code     4  cs_thread.o(.text)
    CC32WorkerThread::SetShuttingDown()      0x0000d883   Thumb Code     6  cs_thread.o(.text)
    CC32WorkerThread::TriggerThreadShutdownCallback() 0x0000d889   Thumb Code    14  cs_thread.o(.text)
    CC32WorkerThread::SessionShutdownComplete() 0x0000d897   Thumb Code    28  cs_thread.o(.text)
    CC32WorkerThread::MaybeTriggerThreadShutdownCallback() 0x0000d8b3   Thumb Code   104  cs_thread.o(.text)
    CC32WorkerThread::DecodePeerId(const CommsFW::TCFSubModuleAddress*, const CommsFW::TCFSubModuleAddress*, int&) 0x0000d91b   Thumb Code    84  cs_thread.o(.text)
    CC32WorkerThread::CFBindMessageReceived(const CommsFW::TCFBindMsg&) 0x0000d96f   Thumb Code   120  cs_thread.o(.text)
    CC32WorkerThread::CFUnbindMessageReceived(const CommsFW::TCFUnbindMsg&) 0x0000d9e7   Thumb Code    88  cs_thread.o(.text)
    CC32WorkerThread::CFShutdownMessageReceived(const CommsFW::TCFShutdownMsg&) 0x0000da3f   Thumb Code    56  cs_thread.o(.text)
    CC32WorkerThread::SendMessage(int, const CommsFW::TCFMessage&) 0x0000da77   Thumb Code    36  cs_thread.o(.text)
    CC32WorkerThread::DispatchL(const CommsFW::TCFMessage2&, int) 0x0000da9b   Thumb Code   442  cs_thread.o(.text)
    thunk{-4} to CC32WorkerThread::DispatchL(const CommsFW::TCFMessage2&, int) 0x0000dc55   Thumb Code     4  cs_thread.o(.text)
    CC32WorkerThread::OnDispatchLeave(const CommsFW::TCFMessage2&, int, int) 0x0000dc59   Thumb Code    54  cs_thread.o(.text)
    thunk{-4} to CC32WorkerThread::OnDispatchLeave(const CommsFW::TCFMessage2&, int, int) 0x0000dc8f   Thumb Code     4  cs_thread.o(.text)
    CCommChannelHandler::CFMessageShutdown(const CommsFW::TCFShutdownMsg&) 0x0000dc93   Thumb Code     4  cs_thread.o(.text)
    CCommChannelHandler::CFMessageDiscover(const CommsFW::TCFDiscoverMsg&) 0x0000dc97   Thumb Code    66  cs_thread.o(.text)
    CCommChannelHandler::CFMessageBind(const CommsFW::TCFBindMsg&) 0x0000dcd9   Thumb Code     4  cs_thread.o(.text)
    CCommChannelHandler::CFMessageUnbind(const CommsFW::TCFUnbindMsg&) 0x0000dcdd   Thumb Code     4  cs_thread.o(.text)
    CTLSRedirector::NewL()                   0x0000dd51   Thumb Code    24  cs_glob.o(.text)
    CC32ShutdownWatchDog::CC32ShutdownWatchDog() 0x0000dd69   Thumb Code    16  cs_glob.o(.text)
    CC32ShutdownWatchDog::CC32ShutdownWatchDog__sub_object() 0x0000dd69   Thumb Code     0  cs_glob.o(.text)
    CC32ShutdownWatchDog::NewL()             0x0000dd79   Thumb Code    32  cs_glob.o(.text)
    CC32Data::CC32Data()                     0x0000dd99   Thumb Code     6  cs_glob.o(.text)
    CC32Data::CC32Data__sub_object()         0x0000dd99   Thumb Code     0  cs_glob.o(.text)
    CC32Data::NewL()                         0x0000dd9f   Thumb Code    14  cs_glob.o(.text)
    C32GlobalUtil::InitC32GlobalsL(CC32WorkerThread*) 0x0000ddad   Thumb Code    80  cs_glob.o(.text)
    C32GlobalUtil::ShutDown()                0x0000ddfd   Thumb Code    46  cs_glob.o(.text)
    C32GlobalUtil::NewSession()              0x0000de2b   Thumb Code    14  cs_glob.o(.text)
    CC32Data::SelfWorker() const             0x0000de39   Thumb Code     4  cs_glob.o(.text)
    C32GlobalUtil::SessionClosing()          0x0000de3d   Thumb Code    54  cs_glob.o(.text)
    CTLSRedirector::~CTLSRedirector()        0x0000de73   Thumb Code    40  cs_glob.o(.text)
    CTLSRedirector::~CTLSRedirector__sub_object() 0x0000de73   Thumb Code     0  cs_glob.o(.text)
    CTLSRedirector::~CTLSRedirector__deallocating() 0x0000de9b   Thumb Code    16  cs_glob.o(.text)
    CC32ShutdownWatchDog::Shutdown()         0x0000deab   Thumb Code    36  cs_glob.o(.text)
    CC32ShutdownWatchDog::RunL()             0x0000decf   Thumb Code    26  cs_glob.o(.text)
    TC32Log::Printf(int, const TDesC8&, TRefByValue<const TDesC16>, ...) 0x0000df01   Thumb Code     2  CS_LOG.o(.text)
    TC32Log::Printf(int, const TDesC8&, TRefByValue<const TDesC8>, ...) 0x0000df03   Thumb Code     2  CS_LOG.o(.text)
    __ARM_switch8                            0x0000df04   ARM Code      24  switch8.o(.text)
    __rt_switch8                             0x0000df04   ARM Code       0  switch8.o(.text)
    _E32Dll_Body                             0x0000df1d   Thumb Code    34  uc_dll.o(.text)
    Dll::SetTls(void*)                       0x0000df45   Thumb Code    16  up_dll_tls.o(.text)
    Dll::Tls()                               0x0000df55   Thumb Code    12  up_dll_tls.o(.text)
    Dll::FreeTls()                           0x0000df61   Thumb Code    10  up_dll_tls.o(.text)
    __DLL_Export_Table__                     0x0000df70   ARM Code       4  dllexp.o(.text)
    CC32DataInTls()                          0x0000e0dd   Thumb Code    10  cs_thread.o(i._Z13CC32DataInTlsv)
    TSerialInfo::TSerialInfo()               0x0000e0e7   Thumb Code    18  cs_roles.o(i._ZN11TSerialInfoC1Ev)
    TSerialInfo::TSerialInfo__sub_object()   0x0000e0e7   Thumb Code     0  cs_roles.o(i._ZN11TSerialInfoC1Ev)
    CCommSession::CC32SessionCloseTimer::~CC32SessionCloseTimer__deallocating() 0x0000e0f9   Thumb Code    16  CS_SES.o(i._ZN12CCommSession21CC32SessionCloseTimerD0Ev)
    CCommSession::CC32SessionCloseTimer::~CC32SessionCloseTimer() 0x0000e109   Thumb Code     8  CS_SES.o(i._ZN12CCommSession21CC32SessionCloseTimerD1Ev)
    CCommSession::CC32SessionCloseTimer::~CC32SessionCloseTimer__sub_object() 0x0000e109   Thumb Code     0  CS_SES.o(i._ZN12CCommSession21CC32SessionCloseTimerD1Ev)
    CLibUnloader::~CLibUnloader__deallocating() 0x0000e111   Thumb Code    16  CS_PORT.o(i._ZN12CLibUnloaderD0Ev)
    CLibUnloader::~CLibUnloader()            0x0000e121   Thumb Code     8  CS_PORT.o(i._ZN12CLibUnloaderD1Ev)
    CLibUnloader::~CLibUnloader__sub_object() 0x0000e121   Thumb Code     0  CS_PORT.o(i._ZN12CLibUnloaderD1Ev)
    CCommScheduler::~CCommScheduler__deallocating() 0x0000e129   Thumb Code    16  CS_SVR.o(i._ZN14CCommSchedulerD0Ev)
    CCommScheduler::~CCommScheduler()        0x0000e139   Thumb Code     8  CS_SVR.o(i._ZN14CCommSchedulerD1Ev)
    CCommScheduler::~CCommScheduler__sub_object() 0x0000e139   Thumb Code     0  CS_SVR.o(i._ZN14CCommSchedulerD1Ev)
    CCommSubSession::Close()                 0x0000e141   Thumb Code    16  cs_roles.o(i._ZN15CCommSubSession5CloseEv)
    CCommSubSession::~CCommSubSession__deallocating() 0x0000e151   Thumb Code    16  CS_SES.o(i._ZN15CCommSubSessionD0Ev)
    CCommSubSession::~CCommSubSession()      0x0000e161   Thumb Code     8  CS_SES.o(i._ZN15CCommSubSessionD1Ev)
    CCommSubSession::~CCommSubSession__sub_object() 0x0000e161   Thumb Code     0  CS_SES.o(i._ZN15CCommSubSessionD1Ev)
    TDeltaTimerEntry::TDeltaTimerEntry()     0x0000e169   Thumb Code     8  CS_PORT.o(i._ZN16TDeltaTimerEntryC1Ev)
    TDeltaTimerEntry::TDeltaTimerEntry__sub_object() 0x0000e169   Thumb Code     0  CS_PORT.o(i._ZN16TDeltaTimerEntryC1Ev)
    CCommChannelHandler::~CCommChannelHandler__deallocating() 0x0000e171   Thumb Code    16  cs_thread.o(i._ZN19CCommChannelHandlerD0Ev)
    CCommChannelHandler::~CCommChannelHandler() 0x0000e181   Thumb Code     8  cs_thread.o(i._ZN19CCommChannelHandlerD1Ev)
    CCommChannelHandler::~CCommChannelHandler__sub_object() 0x0000e181   Thumb Code     0  cs_thread.o(i._ZN19CCommChannelHandlerD1Ev)
    CC32ShutdownWatchDog::~CC32ShutdownWatchDog__deallocating() 0x0000e189   Thumb Code    16  cs_glob.o(i._ZN20CC32ShutdownWatchDogD0Ev)
    CC32ShutdownWatchDog::~CC32ShutdownWatchDog() 0x0000e199   Thumb Code     8  cs_glob.o(i._ZN20CC32ShutdownWatchDogD1Ev)
    CC32ShutdownWatchDog::~CC32ShutdownWatchDog__sub_object() 0x0000e199   Thumb Code     0  cs_glob.o(i._ZN20CC32ShutdownWatchDogD1Ev)
    CC32WorkerDataGlobals::~CC32WorkerDataGlobals__deallocating() 0x0000e1a1   Thumb Code    16  cs_roles.o(i._ZN21CC32WorkerDataGlobalsD0Ev)
    CC32WorkerDataGlobals::~CC32WorkerDataGlobals() 0x0000e1b1   Thumb Code     8  cs_roles.o(i._ZN21CC32WorkerDataGlobalsD1Ev)
    CC32WorkerDataGlobals::~CC32WorkerDataGlobals__sub_object() 0x0000e1b1   Thumb Code     0  cs_roles.o(i._ZN21CC32WorkerDataGlobalsD1Ev)
    CBase::operator new(unsigned)            0x0000e1b9   Thumb Code     8  CS_SVR.o(i._ZN5CBasenwEj)
    CPort::CExtra::~CExtra__deallocating()   0x0000e1c1   Thumb Code    16  CS_MAN.o(i._ZN5CPort6CExtraD0Ev)
    CPort::CExtra::~CExtra()                 0x0000e1d1   Thumb Code     8  CS_MAN.o(i._ZN5CPort6CExtraD1Ev)
    CPort::CExtra::~CExtra__sub_object()     0x0000e1d1   Thumb Code     0  CS_MAN.o(i._ZN5CPort6CExtraD1Ev)
    TLex8::TLex8(const TDesC8&)              0x0000e1d9   Thumb Code    16  cs_thread.o(i._ZN5TLex8C1ERK6TDesC8)
    TLex8::TLex8__sub_object(const TDesC8&)  0x0000e1d9   Thumb Code     0  cs_thread.o(i._ZN5TLex8C1ERK6TDesC8)
    TPtr8::Set(unsigned char*, int, int)     0x0000e1e9   Thumb Code    38  CC_CLI.o(i._ZN5TPtr83SetEPhii)
    RArray<int>::AppendL(int)                0x0000e21b   Thumb Code    12  cs_roles.o(i._ZN6RArrayIiE7AppendLEi)
    RArray<int>::operator [](int)            0x0000e227   Thumb Code     8  cs_roles.o(i._ZN6RArrayIiEixEi)
    TPtrC8::Set(const TDesC8&)               0x0000e22f   Thumb Code    28  cs_roles.o(i._ZN6TPtrC83SetERK6TDesC8)
    TPtrC8::Set(const TPtrC8&)               0x0000e257   Thumb Code    26  cs_roles.o(i._ZN6TPtrC83SetERKS_)
    CommsFW::RCFChannelPairBase<CommsFW::TCFMessage, (int)1>::~RCFChannelPairBase__deallocating() 0x0000e271   Thumb Code    16  CC_CLI.o(i._ZN7CommsFW18RCFChannelPairBaseINS_10TCFMessageELi1EED0Ev)
    CommsFW::RCFChannelPairBase<CommsFW::TCFMessage, (int)1>::~RCFChannelPairBase() 0x0000e281   Thumb Code    36  CC_CLI.o(i._ZN7CommsFW18RCFChannelPairBaseINS_10TCFMessageELi1EED1Ev)
    CommsFW::RCFChannelPairBase<CommsFW::TCFMessage, (int)1>::~RCFChannelPairBase__sub_object() 0x0000e281   Thumb Code     0  CC_CLI.o(i._ZN7CommsFW18RCFChannelPairBaseINS_10TCFMessageELi1EED1Ev)
    CommsFW::TCFBindCompleteMsg::TCFBindCompleteMsg(int, int) 0x0000e2bf   Thumb Code    10  cs_thread.o(i._ZN7CommsFW18TCFBindCompleteMsgC1Eii)
    CommsFW::TCFBindCompleteMsg::TCFBindCompleteMsg__sub_object(int, int) 0x0000e2bf   Thumb Code     0  cs_thread.o(i._ZN7CommsFW18TCFBindCompleteMsgC1Eii)
    CommsFW::TCFUnbindCompleteMsg::TCFUnbindCompleteMsg(int, int) 0x0000e2c9   Thumb Code    10  cs_thread.o(i._ZN7CommsFW20TCFUnbindCompleteMsgC1Eii)
    CommsFW::TCFUnbindCompleteMsg::TCFUnbindCompleteMsg__sub_object(int, int) 0x0000e2c9   Thumb Code     0  cs_thread.o(i._ZN7CommsFW20TCFUnbindCompleteMsgC1Eii)
    CommsFW::CWorkerThreadRegister<TC32WorkerThreadRegister, (int)8>::~CWorkerThreadRegister__deallocating() 0x0000e2d3   Thumb Code    16  cs_thread.o(i._ZN7CommsFW21CWorkerThreadRegisterI24TC32WorkerThreadRegisterLi8EED0Ev)
    CommsFW::CWorkerThreadRegister<TC32WorkerThreadRegister, (int)8>::~CWorkerThreadRegister() 0x0000e2e3   Thumb Code     8  cs_thread.o(i._ZN7CommsFW21CWorkerThreadRegisterI24TC32WorkerThreadRegisterLi8EED1Ev)
    CommsFW::CWorkerThreadRegister<TC32WorkerThreadRegister, (int)8>::~CWorkerThreadRegister__sub_object() 0x0000e2e3   Thumb Code     0  cs_thread.o(i._ZN7CommsFW21CWorkerThreadRegisterI24TC32WorkerThreadRegisterLi8EED1Ev)
    CommsFW::CWorkerThreadDataGlobals<TC32WorkerThreadRegister, (int)8>::~CWorkerThreadDataGlobals() 0x0000e2eb   Thumb Code     8  cs_roles.o(i._ZN7CommsFW24CWorkerThreadDataGlobalsI24TC32WorkerThreadRegisterLi8EED1Ev)
    CommsFW::CWorkerThreadDataGlobals<TC32WorkerThreadRegister, (int)8>::~CWorkerThreadDataGlobals__sub_object() 0x0000e2eb   Thumb Code     0  cs_roles.o(i._ZN7CommsFW24CWorkerThreadDataGlobalsI24TC32WorkerThreadRegisterLi8EED1Ev)
    CommsFW::CWorkerThreadDataGlobalsBase::~CWorkerThreadDataGlobalsBase__deallocating() 0x0000e2f3   Thumb Code    16  cs_roles.o(i._ZN7CommsFW28CWorkerThreadDataGlobalsBaseD0Ev)
    CommsFW::CWorkerThreadDataGlobalsBase::~CWorkerThreadDataGlobalsBase() 0x0000e305   Thumb Code    22  cs_roles.o(i._ZN7CommsFW28CWorkerThreadDataGlobalsBaseD1Ev)
    CommsFW::CWorkerThreadDataGlobalsBase::~CWorkerThreadDataGlobalsBase__sub_object() 0x0000e305   Thumb Code     0  cs_roles.o(i._ZN7CommsFW28CWorkerThreadDataGlobalsBaseD1Ev)
    CC32Data::~CC32Data__deallocating()      0x0000e32b   Thumb Code    16  cs_glob.o(i._ZN8CC32DataD0Ev)
    CC32Data::~CC32Data()                    0x0000e33b   Thumb Code     8  cs_glob.o(i._ZN8CC32DataD1Ev)
    CC32Data::~CC32Data__sub_object()        0x0000e33b   Thumb Code     0  cs_glob.o(i._ZN8CC32DataD1Ev)
    RSessionBase::SendReceive(int, const TIpcArgs&) const 0x0000e343   Thumb Code     8  CC_CLI.o(i._ZNK12RSessionBase11SendReceiveEiRK8TIpcArgs)
    RSubSessionBase::SendReceive(int, const TIpcArgs&) const 0x0000e34b   Thumb Code     8  CC_CLI.o(i._ZNK15RSubSessionBase11SendReceiveEiRK8TIpcArgs)
    CC32SubSessionIx::MakeHandle(int, int, int) const 0x0000e353   Thumb Code    10  cs_roles.o(i._ZNK16CC32SubSessionIx10MakeHandleEiii)
    CC32WorkerThread::IsMainThread() const   0x0000e35d   Thumb Code    14  cs_thread.o(i._ZNK16CC32WorkerThread12IsMainThreadEv)
    CC32WorkerThread::PeerReachable(int) const 0x0000e36b   Thumb Code    10  CS_SES.o(i._ZNK16CC32WorkerThread13PeerReachableEi)
    CC32ThreadManager::CC32ParsedIniData::NumCSYs() const 0x0000e375   Thumb Code    10  cs_roles.o(i._ZNK17CC32ThreadManager17CC32ParsedIniData7NumCSYsEv)
    CCSYInfo::GetPortName() const            0x0000e37f   Thumb Code    20  cs_roles.o(i._ZNK8CCSYInfo11GetPortNameEv)
    TObjectId::operator ==(TObjectId) const  0x0000e393   Thumb Code    18  CC_CLI.o(i._ZNK9TObjectIdeqES_)
    thunk{-4} to CommsFW::CWorkerThreadRegister<TC32WorkerThreadRegister, (int)8>::WorkerHeap(int) const 0x0000e3a5   Thumb Code    10  cs_thread.o(i._ZThn4_NK7CommsFW21CWorkerThreadRegisterI24TC32WorkerThreadRegisterLi8EE10WorkerHeapEi)
    thunk{-4} to CommsFW::CWorkerThreadRegister<TC32WorkerThreadRegister, (int)8>::PanicWorker(int, const TDesC16&, int) const 0x0000e3af   Thumb Code    10  cs_thread.o(i._ZThn4_NK7CommsFW21CWorkerThreadRegisterI24TC32WorkerThreadRegisterLi8EE11PanicWorkerEiRK7TDesC16i)
    thunk{-4} to CommsFW::CWorkerThreadRegister<TC32WorkerThreadRegister, (int)8>::SelfWorkerId() const 0x0000e3b9   Thumb Code     4  cs_thread.o(i._ZThn4_NK7CommsFW21CWorkerThreadRegisterI24TC32WorkerThreadRegisterLi8EE12SelfWorkerIdEv)
    thunk{-4} to CommsFW::CWorkerThreadRegister<TC32WorkerThreadRegister, (int)8>::UpperBoundWorkerId() const 0x0000e3bd   Thumb Code     4  cs_thread.o(i._ZThn4_NK7CommsFW21CWorkerThreadRegisterI24TC32WorkerThreadRegisterLi8EE18UpperBoundWorkerIdEv)
    thunk{-8} to CommsFW::CWorkerThreadDataGlobals<TC32WorkerThreadRegister, (int)8>::WorkerHeap(int) const 0x0000e3c1   Thumb Code    14  cs_roles.o(i._ZThn8_NK7CommsFW24CWorkerThreadDataGlobalsI24TC32WorkerThreadRegisterLi8EE10WorkerHeapEi)
    thunk{-8} to CommsFW::CWorkerThreadDataGlobals<TC32WorkerThreadRegister, (int)8>::PanicWorker(int, const TDesC16&, int) const 0x0000e3cf   Thumb Code    10  cs_roles.o(i._ZThn8_NK7CommsFW24CWorkerThreadDataGlobalsI24TC32WorkerThreadRegisterLi8EE11PanicWorkerEiRK7TDesC16i)
    thunk{-8} to CommsFW::CWorkerThreadDataGlobals<TC32WorkerThreadRegister, (int)8>::UpperBoundWorkerId() const 0x0000e3d9   Thumb Code     4  cs_roles.o(i._ZThn8_NK7CommsFW24CWorkerThreadDataGlobalsI24TC32WorkerThreadRegisterLi8EE18UpperBoundWorkerIdEv)
    operator delete (void*, void*)           0x0000e3dd   Thumb Code     2  CC_CLI.o(i._ZdlPvS_)
    operator !=(RMessagePtr2, RMessagePtr2)  0x0000e3df   Thumb Code    12  CS_PORT.o(i._Zne12RMessagePtr2S_)
    operator new(unsigned, void*)            0x0000e3eb   Thumb Code     4  CC_CLI.o(i._ZnwjPv)
    CleanupClose<RRsConfigurator>::Close(void*) 0x0000e3ef   Thumb Code     8  cs_roles.o(t._ZN12CleanupCloseI15RRsConfiguratorE5CloseEPv)
    CleanupClose<RArray<int>>::Close(void*)  0x0000e3f7   Thumb Code     8  cs_roles.o(t._ZN12CleanupCloseI6RArrayIiEE5CloseEPv)
    RPointerArray<CCommSubSession>::operator [](int) 0x0000e3ff   Thumb Code     8  cs_roles.o(t._ZN13RPointerArrayI15CCommSubSessionEixEi)
    RPointerArray<HBufC16>::operator [](int) 0x0000e407   Thumb Code     8  CS_SES.o(t._ZN13RPointerArrayI7HBufC16EixEi)
    RPointerArray<CCSYInfo>::InsertInOrder(const CCSYInfo*, TLinearOrder<CCSYInfo>) 0x0000e40f   Thumb Code    10  cs_roles.o(t._ZN13RPointerArrayI8CCSYInfoE13InsertInOrderEPKS0_12TLinearOrderIS0_E)
    RPointerArray<CCSYInfo>::ResetAndDestroy() 0x0000e419   Thumb Code    48  cs_roles.o(t._ZN13RPointerArrayI8CCSYInfoE15ResetAndDestroyEv)
    RPointerArray<CCSYInfo>::operator [](int) 0x0000e449   Thumb Code     8  CS_SES.o(t._ZN13RPointerArrayI8CCSYInfoEixEi)
    RPointerArray<CC32ThreadManager::CC32ThreadInfo>::ResetAndDestroy() 0x0000e451   Thumb Code    48  cs_roles.o(t._ZN13RPointerArrayIN17CC32ThreadManager14CC32ThreadInfoEE15ResetAndDestroyEv)
    RPointerArray<CC32ThreadManager::CC32ThreadInfo>::operator [](int) 0x0000e481   Thumb Code     8  cs_roles.o(t._ZN13RPointerArrayIN17CC32ThreadManager14CC32ThreadInfoEEixEi)
    TBuf<(int)16>::TBuf()                    0x0000e489   Thumb Code    10  cs_roles.o(t._ZN4TBufILi16EEC1Ev)
    TBuf<(int)16>::TBuf__sub_object()        0x0000e489   Thumb Code     0  cs_roles.o(t._ZN4TBufILi16EEC1Ev)
    TBuf<(int)256>::TBuf()                   0x0000e493   Thumb Code    12  CS_SES.o(t._ZN4TBufILi256EEC1Ev)
    TBuf<(int)256>::TBuf__sub_object()       0x0000e493   Thumb Code     0  CS_SES.o(t._ZN4TBufILi256EEC1Ev)
    TBuf8<(int)256>::TBuf8()                 0x0000e49f   Thumb Code    12  CS_SES.o(t._ZN5TBuf8ILi256EEC1Ev)
    TBuf8<(int)256>::TBuf8__sub_object()     0x0000e49f   Thumb Code     0  CS_SES.o(t._ZN5TBuf8ILi256EEC1Ev)
    TBuf8<(int)32>::TBuf8(const TDesC8&)     0x0000e4ab   Thumb Code    10  cs_roles.o(t._ZN5TBuf8ILi32EEC1ERK6TDesC8)
    TBuf8<(int)32>::TBuf8__sub_object(const TDesC8&) 0x0000e4ab   Thumb Code     0  cs_roles.o(t._ZN5TBuf8ILi32EEC1ERK6TDesC8)
    TBuf8<(int)32>::TBuf8()                  0x0000e4b5   Thumb Code    10  cs_roles.o(t._ZN5TBuf8ILi32EEC1Ev)
    TBuf8<(int)32>::TBuf8__sub_object()      0x0000e4b5   Thumb Code     0  cs_roles.o(t._ZN5TBuf8ILi32EEC1Ev)
    TPckg<TSerialInfo>::TPckg(const TSerialInfo&) 0x0000e4bf   Thumb Code    12  CC_CLI.o(t._ZN5TPckgI11TSerialInfoEC1ERKS0_)
    TPckg<TSerialInfo>::TPckg__sub_object(const TSerialInfo&) 0x0000e4bf   Thumb Code     0  CC_CLI.o(t._ZN5TPckgI11TSerialInfoEC1ERKS0_)
    TPckg<TFlowControl>::TPckg(const TFlowControl&) 0x0000e4cb   Thumb Code    12  CS_V02.o(t._ZN5TPckgI12TFlowControlEC1ERKS0_)
    TPckg<TFlowControl>::TPckg__sub_object(const TFlowControl&) 0x0000e4cb   Thumb Code     0  CS_V02.o(t._ZN5TPckgI12TFlowControlEC1ERKS0_)
    TPckg<int>::TPckg(const int&)            0x0000e4d7   Thumb Code    12  CS_PORT.o(t._ZN5TPckgIiEC1ERKi)
    TPckg<int>::TPckg__sub_object(const int&) 0x0000e4d7   Thumb Code     0  CS_PORT.o(t._ZN5TPckgIiEC1ERKi)
    RArray<TPtrC8>::AppendL(const TPtrC8&)   0x0000e4e3   Thumb Code    12  cs_roles.o(t._ZN6RArrayI6TPtrC8E7AppendLERKS0_)
    CommsFW::RCFChannelBase<CommsFW::TCFMessage, (int)1>::~RCFChannelBase() 0x0000e4ef   Thumb Code     8  CC_CLI.o(t._ZN7CommsFW14RCFChannelBaseINS_10TCFMessageELi1EED1Ev)
    CommsFW::RCFChannelBase<CommsFW::TCFMessage, (int)1>::~RCFChannelBase__sub_object() 0x0000e4ef   Thumb Code     0  CC_CLI.o(t._ZN7CommsFW14RCFChannelBaseINS_10TCFMessageELi1EED1Ev)
    CommsFW::RCFChannelPairBase<CommsFW::TCFMessage, (int)1>::SendPIG() 0x0000e4f7   Thumb Code    20  CC_CLI.o(t._ZN7CommsFW18RCFChannelPairBaseINS_10TCFMessageELi1EE7SendPIGEv)
    CommsFW::RCFChannelPairBase<CommsFW::TCFMessage, (int)1>::IsMsgPIG(const void*) 0x0000e50b   Thumb Code    14  CC_CLI.o(t._ZN7CommsFW18RCFChannelPairBaseINS_10TCFMessageELi1EE8IsMsgPIGEPKv)
    TIpcArgs::TIpcArgs<TDes8*, int, int>(T1, T2, T3) 0x0000e519   Thumb Code    10  CC_CLI.o(t._ZN8TIpcArgsC1IP5TDes8iiEET_T0_T1_)
    TIpcArgs::TIpcArgs__sub_object<TDes8*, int, int>(T1, T2, T3) 0x0000e519   Thumb Code     0  CC_CLI.o(t._ZN8TIpcArgsC1IP5TDes8iiEET_T0_T1_)
    TIpcArgs::TIpcArgs<const TDesC8*, int, int>(T1, T2, T3) 0x0000e523   Thumb Code    10  CC_CLI.o(t._ZN8TIpcArgsC1IPK6TDesC8iiEET_T0_T1_)
    TIpcArgs::TIpcArgs__sub_object<const TDesC8*, int, int>(T1, T2, T3) 0x0000e523   Thumb Code     0  CC_CLI.o(t._ZN8TIpcArgsC1IPK6TDesC8iiEET_T0_T1_)
    TIpcArgs::TIpcArgs<const TDesC16*, TCommAccess, TCommRole>(T1, T2, T3) 0x0000e52d   Thumb Code    10  CC_CLI.o(t._ZN8TIpcArgsC1IPK7TDesC1611TCommAccess9TCommRoleEET_T0_T1_)
    TIpcArgs::TIpcArgs__sub_object<const TDesC16*, TCommAccess, TCommRole>(T1, T2, T3) 0x0000e52d   Thumb Code     0  CC_CLI.o(t._ZN8TIpcArgsC1IPK7TDesC1611TCommAccess9TCommRoleEET_T0_T1_)
    RPointerArray<CCommSubSession>::Count() const 0x0000e537   Thumb Code     8  cs_roles.o(t._ZNK13RPointerArrayI15CCommSubSessionE5CountEv)
    RPointerArray<HBufC16>::Count() const    0x0000e53f   Thumb Code     8  CS_SES.o(t._ZNK13RPointerArrayI7HBufC16E5CountEv)
    RPointerArray<CCSYInfo>::Count() const   0x0000e547   Thumb Code     8  cs_roles.o(t._ZNK13RPointerArrayI8CCSYInfoE5CountEv)
    RPointerArray<CCSYInfo>::operator [](int) const 0x0000e54f   Thumb Code     8  cs_roles.o(t._ZNK13RPointerArrayI8CCSYInfoEixEi)
    RPointerArray<CC32ThreadManager::CC32ThreadInfo>::Count() const 0x0000e557   Thumb Code     8  cs_roles.o(t._ZNK13RPointerArrayIN17CC32ThreadManager14CC32ThreadInfoEE5CountEv)
    CommsFW::CWorkerThreadRegister<TC32WorkerThreadRegister, (int)8>::WorkerHeap(int) const 0x0000e55f   Thumb Code     8  cs_thread.o(t._ZNK7CommsFW21CWorkerThreadRegisterI24TC32WorkerThreadRegisterLi8EE10WorkerHeapEi)
    CommsFW::CWorkerThreadRegister<TC32WorkerThreadRegister, (int)8>::PanicWorker(int, const TDesC16&, int) const 0x0000e567   Thumb Code    26  cs_thread.o(t._ZNK7CommsFW21CWorkerThreadRegisterI24TC32WorkerThreadRegisterLi8EE11PanicWorkerEiRK7TDesC16i)
    CommsFW::CWorkerThreadRegister<TC32WorkerThreadRegister, (int)8>::SelfWorkerId() const 0x0000e581   Thumb Code     4  cs_thread.o(t._ZNK7CommsFW21CWorkerThreadRegisterI24TC32WorkerThreadRegisterLi8EE12SelfWorkerIdEv)
    CommsFW::CWorkerThreadRegister<TC32WorkerThreadRegister, (int)8>::UpperBoundWorkerId() const 0x0000e585   Thumb Code     4  cs_thread.o(t._ZNK7CommsFW21CWorkerThreadRegisterI24TC32WorkerThreadRegisterLi8EE18UpperBoundWorkerIdEv)
    CommsFW::CWorkerThreadDataGlobals<TC32WorkerThreadRegister, (int)8>::WorkerHeap(int) const 0x0000e589   Thumb Code    12  cs_roles.o(t._ZNK7CommsFW24CWorkerThreadDataGlobalsI24TC32WorkerThreadRegisterLi8EE10WorkerHeapEi)
    CommsFW::CWorkerThreadDataGlobals<TC32WorkerThreadRegister, (int)8>::PanicWorker(int, const TDesC16&, int) const 0x0000e595   Thumb Code    24  cs_roles.o(t._ZNK7CommsFW24CWorkerThreadDataGlobalsI24TC32WorkerThreadRegisterLi8EE11PanicWorkerEiRK7TDesC16i)
    CommsFW::CWorkerThreadDataGlobals<TC32WorkerThreadRegister, (int)8>::GetWorkerGlobals(int) const 0x0000e5ad   Thumb Code    10  cs_roles.o(t._ZNK7CommsFW24CWorkerThreadDataGlobalsI24TC32WorkerThreadRegisterLi8EE16GetWorkerGlobalsEi)
    CommsFW::CWorkerThreadDataGlobals<TC32WorkerThreadRegister, (int)8>::UpperBoundWorkerId() const 0x0000e5b7   Thumb Code     4  cs_roles.o(t._ZNK7CommsFW24CWorkerThreadDataGlobalsI24TC32WorkerThreadRegisterLi8EE18UpperBoundWorkerIdEv)
    CC32Server::iPolicy                      0x0000eadc   Data          16  CS_SVR.o(.constdata)
    CC32Server::iRangeCount                  0x0000eaec   Data           4  CS_SVR.o(.constdata)
    CC32Server::iRanges                      0x0000eaf0   Data          28  CS_SVR.o(.constdata)
    CC32Server::iElementsIndex               0x0000eb0c   Data           7  CS_SVR.o(.constdata)
    CC32Server::iElements                    0x0000eb14   Data          48  CS_SVR.o(.constdata)
    typeinfo for CC32Dealer                  0x0000ed3c   Data          12  cs_roles.o(.constdata__ZTI10CC32Dealer)
    typeinfo for CC32Player                  0x0000ed48   Data          12  cs_roles.o(.constdata__ZTI10CC32Player)
    typeinfo for CC32Server                  0x0000ed54   Data          12  CS_SVR.o(.constdata__ZTI10CC32Server)
    typeinfo for CCommSession                0x0000ed60   Data          12  CS_SES.o(.constdata__ZTI12CCommSession)
    typeinfo for CLibUnloader                0x0000ed6c   Data          12  CS_PORT.o(.constdata__ZTI12CLibUnloader)
    typeinfo for CPortManager                0x0000ed78   Data          12  CS_MAN.o(.constdata__ZTI12CPortManager)
    typeinfo for CCommScheduler              0x0000ed84   Data          12  CS_SVR.o(.constdata__ZTI14CCommScheduler)
    typeinfo for CTLSRedirector              0x0000ed90   Data          12  cs_glob.o(.constdata__ZTI14CTLSRedirector)
    typeinfo for CCommSubSession             0x0000ed9c   Data          12  CS_SES.o(.constdata__ZTI15CCommSubSession)
    typeinfo for CC32SubSessionIx            0x0000eda8   Data          12  cs_roles.o(.constdata__ZTI16CC32SubSessionIx)
    typeinfo for CC32WorkerThread            0x0000edb4   Data          32  cs_thread.o(.constdata__ZTI16CC32WorkerThread)
    typeinfo for CC32ThreadManager           0x0000edd4   Data          12  cs_roles.o(.constdata__ZTI17CC32ThreadManager)
    typeinfo for CCommChannelHandler         0x0000ede0   Data          12  cs_thread.o(.constdata__ZTI19CCommChannelHandler)
    typeinfo for CC32ShutdownWatchDog        0x0000edec   Data          12  cs_glob.o(.constdata__ZTI20CC32ShutdownWatchDog)
    typeinfo for CC32WorkerDataGlobals       0x0000edf8   Data          12  cs_roles.o(.constdata__ZTI21CC32WorkerDataGlobals)
    typeinfo for CPort                       0x0000ee04   Data          12  CS_PORT.o(.constdata__ZTI5CPort)
    typeinfo for CSerial                     0x0000ee10   Data          12  CS_PORT.o(.constdata__ZTI7CSerial)
    typeinfo for CC32Data                    0x0000ee1c   Data          12  cs_glob.o(.constdata__ZTI8CC32Data)
    typeinfo for CCSYInfo                    0x0000ee28   Data          12  cs_roles.o(.constdata__ZTI8CCSYInfo)
    typeinfo for CCommSession::CC32SessionCloseTimer 0x0000ee34   Data          12  CS_SES.o(.constdata__ZTIN12CCommSession21CC32SessionCloseTimerE)
    typeinfo for CC32ThreadManager::CCPMLoader 0x0000ee40   Data          12  cs_roles.o(.constdata__ZTIN17CC32ThreadManager10CCPMLoaderE)
    typeinfo for CC32ThreadManager::CC32ThreadInfo 0x0000ee4c   Data          12  cs_roles.o(.constdata__ZTIN17CC32ThreadManager14CC32ThreadInfoE)
    typeinfo for CC32ThreadManager::CC32ParsedIniData 0x0000ee58   Data          12  cs_roles.o(.constdata__ZTIN17CC32ThreadManager17CC32ParsedIniDataE)
    typeinfo for CPort::CExtra               0x0000ee64   Data          12  CS_MAN.o(.constdata__ZTIN5CPort6CExtraE)
    typeinfo for CommsFW::RCFChannelPairBase<CommsFW::TCFMessage, (int)1> 0x0000ee70   Data          12  CC_CLI.o(.constdata__ZTIN7CommsFW18RCFChannelPairBaseINS_10TCFMessageELi1EEE)
    typeinfo for CommsFW::CWorkerThreadRegister<TC32WorkerThreadRegister, (int)8> 0x0000ee7c   Data          32  cs_thread.o(.constdata__ZTIN7CommsFW21CWorkerThreadRegisterI24TC32WorkerThreadRegisterLi8EEE)
    typeinfo for CommsFW::MGlobalThreadRegister 0x0000ee9c   Data           8  cs_roles.o(.constdata__ZTIN7CommsFW21MGlobalThreadRegisterE)
    typeinfo for CommsFW::MWorkerThreadRegister 0x0000eea4   Data          12  cs_thread.o(.constdata__ZTIN7CommsFW21MWorkerThreadRegisterE)
    typeinfo for CommsFW::MLegacyMessageReceiver 0x0000eeb0   Data           8  cs_thread.o(.constdata__ZTIN7CommsFW22MLegacyMessageReceiverE)
    typeinfo for CommsFW::CWorkerThreadDataGlobals<TC32WorkerThreadRegister, (int)8> 0x0000eeb8   Data          32  cs_roles.o(.constdata__ZTIN7CommsFW24CWorkerThreadDataGlobalsI24TC32WorkerThreadRegisterLi8EEE)
    typeinfo for CommsFW::CWorkerThreadDataGlobalsBase 0x0000eed8   Data          12  cs_roles.o(.constdata__ZTIN7CommsFW28CWorkerThreadDataGlobalsBaseE)
    typeinfo name for CC32Dealer             0x0000eee4   Data          13  cs_roles.o(.constdata__ZTS10CC32Dealer)
    typeinfo name for CC32Player             0x0000eef1   Data          13  cs_roles.o(.constdata__ZTS10CC32Player)
    typeinfo name for CC32Server             0x0000eefe   Data          13  CS_SVR.o(.constdata__ZTS10CC32Server)
    typeinfo name for CCommSession           0x0000ef0b   Data          15  CS_SES.o(.constdata__ZTS12CCommSession)
    typeinfo name for CLibUnloader           0x0000ef1a   Data          15  CS_PORT.o(.constdata__ZTS12CLibUnloader)
    typeinfo name for CPortManager           0x0000ef29   Data          15  CS_MAN.o(.constdata__ZTS12CPortManager)
    typeinfo name for CCommScheduler         0x0000ef38   Data          17  CS_SVR.o(.constdata__ZTS14CCommScheduler)
    typeinfo name for CTLSRedirector         0x0000ef49   Data          17  cs_glob.o(.constdata__ZTS14CTLSRedirector)
    typeinfo name for CCommSubSession        0x0000ef5a   Data          18  CS_SES.o(.constdata__ZTS15CCommSubSession)
    typeinfo name for CC32SubSessionIx       0x0000ef6c   Data          19  cs_roles.o(.constdata__ZTS16CC32SubSessionIx)
    typeinfo name for CC32WorkerThread       0x0000ef7f   Data          19  cs_thread.o(.constdata__ZTS16CC32WorkerThread)
    typeinfo name for CC32ThreadManager      0x0000ef92   Data          20  cs_roles.o(.constdata__ZTS17CC32ThreadManager)
    typeinfo name for CCommChannelHandler    0x0000efa6   Data          22  cs_thread.o(.constdata__ZTS19CCommChannelHandler)
    typeinfo name for CC32ShutdownWatchDog   0x0000efbc   Data          23  cs_glob.o(.constdata__ZTS20CC32ShutdownWatchDog)
    typeinfo name for CC32WorkerDataGlobals  0x0000efd3   Data          24  cs_roles.o(.constdata__ZTS21CC32WorkerDataGlobals)
    typeinfo name for CPort                  0x0000efeb   Data           7  CS_PORT.o(.constdata__ZTS5CPort)
    typeinfo name for CSerial                0x0000eff2   Data           9  CS_PORT.o(.constdata__ZTS7CSerial)
    typeinfo name for CC32Data               0x0000effb   Data          10  cs_glob.o(.constdata__ZTS8CC32Data)
    typeinfo name for CCSYInfo               0x0000f005   Data          10  cs_roles.o(.constdata__ZTS8CCSYInfo)
    typeinfo name for CCommSession::CC32SessionCloseTimer 0x0000f00f   Data          40  CS_SES.o(.constdata__ZTSN12CCommSession21CC32SessionCloseTimerE)
    typeinfo name for CC32ThreadManager::CCPMLoader 0x0000f037   Data          34  cs_roles.o(.constdata__ZTSN17CC32ThreadManager10CCPMLoaderE)
    typeinfo name for CC32ThreadManager::CC32ThreadInfo 0x0000f059   Data          38  cs_roles.o(.constdata__ZTSN17CC32ThreadManager14CC32ThreadInfoE)
    typeinfo name for CC32ThreadManager::CC32ParsedIniData 0x0000f07f   Data          41  cs_roles.o(.constdata__ZTSN17CC32ThreadManager17CC32ParsedIniDataE)
    typeinfo name for CPort::CExtra          0x0000f0a8   Data          16  CS_MAN.o(.constdata__ZTSN5CPort6CExtraE)
    typeinfo name for CommsFW::RCFChannelPairBase<CommsFW::TCFMessage, (int)1> 0x0000f0b8   Data          53  CC_CLI.o(.constdata__ZTSN7CommsFW18RCFChannelPairBaseINS_10TCFMessageELi1EEE)
    typeinfo name for CommsFW::CWorkerThreadRegister<TC32WorkerThreadRegister, (int)8> 0x0000f0ed   Data          66  cs_thread.o(.constdata__ZTSN7CommsFW21CWorkerThreadRegisterI24TC32WorkerThreadRegisterLi8EEE)
    typeinfo name for CommsFW::MGlobalThreadRegister 0x0000f12f   Data          34  cs_roles.o(.constdata__ZTSN7CommsFW21MGlobalThreadRegisterE)
    typeinfo name for CommsFW::MWorkerThreadRegister 0x0000f151   Data          34  cs_thread.o(.constdata__ZTSN7CommsFW21MWorkerThreadRegisterE)
    typeinfo name for CommsFW::MLegacyMessageReceiver 0x0000f173   Data          35  cs_thread.o(.constdata__ZTSN7CommsFW22MLegacyMessageReceiverE)
    typeinfo name for CommsFW::CWorkerThreadDataGlobals<TC32WorkerThreadRegister, (int)8> 0x0000f196   Data          69  cs_roles.o(.constdata__ZTSN7CommsFW24CWorkerThreadDataGlobalsI24TC32WorkerThreadRegisterLi8EEE)
    typeinfo name for CommsFW::CWorkerThreadDataGlobalsBase 0x0000f1db   Data          41  cs_roles.o(.constdata__ZTSN7CommsFW28CWorkerThreadDataGlobalsBaseE)
    vtable for CC32Dealer                    0x0000f204   Data          48  cs_roles.o(.constdata__ZTV10CC32Dealer)
    vtable for CC32Player                    0x0000f234   Data          20  cs_roles.o(.constdata__ZTV10CC32Player)
    vtable for CC32Server                    0x0000f248   Data          48  CS_SVR.o(.constdata__ZTV10CC32Server)
    vtable for CCommSession                  0x0000f278   Data          40  CS_SES.o(.constdata__ZTV12CCommSession)
    vtable for CLibUnloader                  0x0000f2a0   Data          36  CS_PORT.o(.constdata__ZTV12CLibUnloader)
    vtable for CPortManager                  0x0000f2c4   Data          20  CS_MAN.o(.constdata__ZTV12CPortManager)
    vtable for CCommScheduler                0x0000f2d8   Data          44  CS_SVR.o(.constdata__ZTV14CCommScheduler)
    vtable for CTLSRedirector                0x0000f304   Data          20  cs_glob.o(.constdata__ZTV14CTLSRedirector)
    vtable for CCommSubSession               0x0000f318   Data          20  CS_SES.o(.constdata__ZTV15CCommSubSession)
    vtable for CC32SubSessionIx              0x0000f32c   Data          20  cs_roles.o(.constdata__ZTV16CC32SubSessionIx)
    vtable for CC32WorkerThread              0x0000f340   Data          44  cs_thread.o(.constdata__ZTV16CC32WorkerThread)
    vtable for CC32ThreadManager             0x0000f36c   Data          20  cs_roles.o(.constdata__ZTV17CC32ThreadManager)
    vtable for CCommChannelHandler           0x0000f380   Data          60  cs_thread.o(.constdata__ZTV19CCommChannelHandler)
    vtable for CC32ShutdownWatchDog          0x0000f3bc   Data          32  cs_glob.o(.constdata__ZTV20CC32ShutdownWatchDog)
    vtable for CC32WorkerDataGlobals         0x0000f3dc   Data          52  cs_roles.o(.constdata__ZTV21CC32WorkerDataGlobals)
    vtable for CPort                         0x0000f410   Data         180  CS_PORT.o(.constdata__ZTV5CPort)
    vtable for CSerial                       0x0000f4c4   Data          56  CS_PORT.o(.constdata__ZTV7CSerial)
    vtable for CC32Data                      0x0000f4fc   Data          20  cs_glob.o(.constdata__ZTV8CC32Data)
    vtable for CCSYInfo                      0x0000f510   Data          20  cs_roles.o(.constdata__ZTV8CCSYInfo)
    vtable for CCommSession::CC32SessionCloseTimer 0x0000f524   Data          32  CS_SES.o(.constdata__ZTVN12CCommSession21CC32SessionCloseTimerE)
    vtable for CC32ThreadManager::CCPMLoader 0x0000f544   Data          32  cs_roles.o(.constdata__ZTVN17CC32ThreadManager10CCPMLoaderE)
    vtable for CC32ThreadManager::CC32ThreadInfo 0x0000f564   Data          20  cs_roles.o(.constdata__ZTVN17CC32ThreadManager14CC32ThreadInfoE)
    vtable for CC32ThreadManager::CC32ParsedIniData 0x0000f578   Data          20  cs_roles.o(.constdata__ZTVN17CC32ThreadManager17CC32ParsedIniDataE)
    vtable for CPort::CExtra                 0x0000f58c   Data          20  CS_MAN.o(.constdata__ZTVN5CPort6CExtraE)
    vtable for CommsFW::RCFChannelPairBase<CommsFW::TCFMessage, (int)1> 0x0000f5a0   Data          40  CC_CLI.o(.constdata__ZTVN7CommsFW18RCFChannelPairBaseINS_10TCFMessageELi1EEE)
    vtable for CommsFW::CWorkerThreadRegister<TC32WorkerThreadRegister, (int)8> 0x0000f5c8   Data          60  cs_thread.o(.constdata__ZTVN7CommsFW21CWorkerThreadRegisterI24TC32WorkerThreadRegisterLi8EEE)
    vtable for CommsFW::CWorkerThreadDataGlobalsBase 0x0000f604   Data          20  cs_roles.o(.constdata__ZTVN7CommsFW28CWorkerThreadDataGlobalsBaseE)
    .ARM.exidx$$Base                         0x0000f618   Number         0  ucppinit_aeabi.o(.ARM.exidx)
    .ARM.exidx$$Limit                        0x0000ff80   Number         0  cs_roles.o(.ARM.exidx)
    Image$$ER_RO$$Limit                      0x0000ff80   Number         0  anon$$obj.o(linker$$defined$$symbols)

